
args.exec:     file format elf32-i386


Disassembly of section .text:

08048094 <main>:
 8048094:	55                   	push   %ebp
 8048095:	89 e5                	mov    %esp,%ebp
 8048097:	83 e4 f0             	and    $0xfffffff0,%esp
 804809a:	83 c4 80             	add    $0xffffff80,%esp
 804809d:	c7 44 24 08 00 00 00 	movl   $0x0,0x8(%esp)
 80480a4:	00 
 80480a5:	c7 44 24 04 00 00 00 	movl   $0x0,0x4(%esp)
 80480ac:	00 
 80480ad:	c7 04 24 bc d5 04 08 	movl   $0x804d5bc,(%esp)
 80480b4:	e8 24 15 00 00       	call   80495dd <open>
 80480b9:	c7 44 24 08 00 00 00 	movl   $0x0,0x8(%esp)
 80480c0:	00 
 80480c1:	c7 44 24 04 01 00 00 	movl   $0x1,0x4(%esp)
 80480c8:	00 
 80480c9:	c7 04 24 bc d5 04 08 	movl   $0x804d5bc,(%esp)
 80480d0:	e8 08 15 00 00       	call   80495dd <open>
 80480d5:	8b 45 0c             	mov    0xc(%ebp),%eax
 80480d8:	89 44 24 0c          	mov    %eax,0xc(%esp)
 80480dc:	8b 45 08             	mov    0x8(%ebp),%eax
 80480df:	89 44 24 08          	mov    %eax,0x8(%esp)
 80480e3:	c7 44 24 04 c8 d5 04 	movl   $0x804d5c8,0x4(%esp)
 80480ea:	08 
 80480eb:	8d 44 24 18          	lea    0x18(%esp),%eax
 80480ef:	89 04 24             	mov    %eax,(%esp)
 80480f2:	e8 d0 01 00 00       	call   80482c7 <sprintf>
 80480f7:	8d 44 24 18          	lea    0x18(%esp),%eax
 80480fb:	89 04 24             	mov    %eax,(%esp)
 80480fe:	e8 7e 05 00 00       	call   8048681 <strlen>
 8048103:	89 44 24 08          	mov    %eax,0x8(%esp)
 8048107:	8d 44 24 18          	lea    0x18(%esp),%eax
 804810b:	89 44 24 04          	mov    %eax,0x4(%esp)
 804810f:	c7 04 24 01 00 00 00 	movl   $0x1,(%esp)
 8048116:	e8 fb 15 00 00       	call   8049716 <write>
 804811b:	c7 44 24 7c 00 00 00 	movl   $0x0,0x7c(%esp)
 8048122:	00 
 8048123:	eb 55                	jmp    804817a <main+0xe6>
 8048125:	8b 44 24 7c          	mov    0x7c(%esp),%eax
 8048129:	c1 e0 02             	shl    $0x2,%eax
 804812c:	03 45 0c             	add    0xc(%ebp),%eax
 804812f:	8b 00                	mov    (%eax),%eax
 8048131:	89 44 24 0c          	mov    %eax,0xc(%esp)
 8048135:	8b 44 24 7c          	mov    0x7c(%esp),%eax
 8048139:	89 44 24 08          	mov    %eax,0x8(%esp)
 804813d:	c7 44 24 04 eb d5 04 	movl   $0x804d5eb,0x4(%esp)
 8048144:	08 
 8048145:	8d 44 24 18          	lea    0x18(%esp),%eax
 8048149:	89 04 24             	mov    %eax,(%esp)
 804814c:	e8 76 01 00 00       	call   80482c7 <sprintf>
 8048151:	8d 44 24 18          	lea    0x18(%esp),%eax
 8048155:	89 04 24             	mov    %eax,(%esp)
 8048158:	e8 24 05 00 00       	call   8048681 <strlen>
 804815d:	89 44 24 08          	mov    %eax,0x8(%esp)
 8048161:	8d 44 24 18          	lea    0x18(%esp),%eax
 8048165:	89 44 24 04          	mov    %eax,0x4(%esp)
 8048169:	c7 04 24 01 00 00 00 	movl   $0x1,(%esp)
 8048170:	e8 a1 15 00 00       	call   8049716 <write>
 8048175:	83 44 24 7c 01       	addl   $0x1,0x7c(%esp)
 804817a:	8b 44 24 7c          	mov    0x7c(%esp),%eax
 804817e:	c1 e0 02             	shl    $0x2,%eax
 8048181:	03 45 0c             	add    0xc(%ebp),%eax
 8048184:	8b 00                	mov    (%eax),%eax
 8048186:	85 c0                	test   %eax,%eax
 8048188:	75 9b                	jne    8048125 <main+0x91>
 804818a:	8b 45 10             	mov    0x10(%ebp),%eax
 804818d:	89 44 24 08          	mov    %eax,0x8(%esp)
 8048191:	c7 44 24 04 f6 d5 04 	movl   $0x804d5f6,0x4(%esp)
 8048198:	08 
 8048199:	8d 44 24 18          	lea    0x18(%esp),%eax
 804819d:	89 04 24             	mov    %eax,(%esp)
 80481a0:	e8 22 01 00 00       	call   80482c7 <sprintf>
 80481a5:	8d 44 24 18          	lea    0x18(%esp),%eax
 80481a9:	89 04 24             	mov    %eax,(%esp)
 80481ac:	e8 d0 04 00 00       	call   8048681 <strlen>
 80481b1:	89 44 24 08          	mov    %eax,0x8(%esp)
 80481b5:	8d 44 24 18          	lea    0x18(%esp),%eax
 80481b9:	89 44 24 04          	mov    %eax,0x4(%esp)
 80481bd:	c7 04 24 01 00 00 00 	movl   $0x1,(%esp)
 80481c4:	e8 4d 15 00 00       	call   8049716 <write>
 80481c9:	c7 44 24 7c 00 00 00 	movl   $0x0,0x7c(%esp)
 80481d0:	00 
 80481d1:	eb 55                	jmp    8048228 <main+0x194>
 80481d3:	8b 44 24 7c          	mov    0x7c(%esp),%eax
 80481d7:	c1 e0 02             	shl    $0x2,%eax
 80481da:	03 45 10             	add    0x10(%ebp),%eax
 80481dd:	8b 00                	mov    (%eax),%eax
 80481df:	89 44 24 0c          	mov    %eax,0xc(%esp)
 80481e3:	8b 44 24 7c          	mov    0x7c(%esp),%eax
 80481e7:	89 44 24 08          	mov    %eax,0x8(%esp)
 80481eb:	c7 44 24 04 eb d5 04 	movl   $0x804d5eb,0x4(%esp)
 80481f2:	08 
 80481f3:	8d 44 24 18          	lea    0x18(%esp),%eax
 80481f7:	89 04 24             	mov    %eax,(%esp)
 80481fa:	e8 c8 00 00 00       	call   80482c7 <sprintf>
 80481ff:	8d 44 24 18          	lea    0x18(%esp),%eax
 8048203:	89 04 24             	mov    %eax,(%esp)
 8048206:	e8 76 04 00 00       	call   8048681 <strlen>
 804820b:	89 44 24 08          	mov    %eax,0x8(%esp)
 804820f:	8d 44 24 18          	lea    0x18(%esp),%eax
 8048213:	89 44 24 04          	mov    %eax,0x4(%esp)
 8048217:	c7 04 24 01 00 00 00 	movl   $0x1,(%esp)
 804821e:	e8 f3 14 00 00       	call   8049716 <write>
 8048223:	83 44 24 7c 01       	addl   $0x1,0x7c(%esp)
 8048228:	8b 44 24 7c          	mov    0x7c(%esp),%eax
 804822c:	c1 e0 02             	shl    $0x2,%eax
 804822f:	03 45 10             	add    0x10(%ebp),%eax
 8048232:	8b 00                	mov    (%eax),%eax
 8048234:	85 c0                	test   %eax,%eax
 8048236:	75 9b                	jne    80481d3 <main+0x13f>
 8048238:	b8 00 00 00 00       	mov    $0x0,%eax
 804823d:	c9                   	leave  
 804823e:	c3                   	ret    
 804823f:	90                   	nop

08048240 <__libc_static_entry>:
 8048240:	83 c4 04             	add    $0x4,%esp
 8048243:	e8 4c fe ff ff       	call   8048094 <main>
 8048248:	50                   	push   %eax
 8048249:	e8 22 10 00 00       	call   8049270 <exit>
 804824e:	90                   	nop
 804824f:	90                   	nop

08048250 <printf>:
 8048250:	55                   	push   %ebp
 8048251:	89 e5                	mov    %esp,%ebp
 8048253:	53                   	push   %ebx
 8048254:	83 ec 24             	sub    $0x24,%esp
 8048257:	e8 d5 01 00 00       	call   8048431 <__i686.get_pc_thunk.bx>
 804825c:	81 c3 bc 7d 00 00    	add    $0x7dbc,%ebx
 8048262:	8d 55 0c             	lea    0xc(%ebp),%edx
 8048265:	8d 45 f0             	lea    -0x10(%ebp),%eax
 8048268:	89 10                	mov    %edx,(%eax)
 804826a:	8b 45 f0             	mov    -0x10(%ebp),%eax
 804826d:	89 44 24 04          	mov    %eax,0x4(%esp)
 8048271:	8b 45 08             	mov    0x8(%ebp),%eax
 8048274:	89 04 24             	mov    %eax,(%esp)
 8048277:	e8 d0 00 00 00       	call   804834c <vprintf>
 804827c:	89 45 f4             	mov    %eax,-0xc(%ebp)
 804827f:	8b 45 f4             	mov    -0xc(%ebp),%eax
 8048282:	83 c4 24             	add    $0x24,%esp
 8048285:	5b                   	pop    %ebx
 8048286:	5d                   	pop    %ebp
 8048287:	c3                   	ret    

08048288 <fprintf>:
 8048288:	55                   	push   %ebp
 8048289:	89 e5                	mov    %esp,%ebp
 804828b:	53                   	push   %ebx
 804828c:	83 ec 24             	sub    $0x24,%esp
 804828f:	e8 9d 01 00 00       	call   8048431 <__i686.get_pc_thunk.bx>
 8048294:	81 c3 84 7d 00 00    	add    $0x7d84,%ebx
 804829a:	8d 55 10             	lea    0x10(%ebp),%edx
 804829d:	8d 45 f0             	lea    -0x10(%ebp),%eax
 80482a0:	89 10                	mov    %edx,(%eax)
 80482a2:	8b 45 f0             	mov    -0x10(%ebp),%eax
 80482a5:	89 44 24 08          	mov    %eax,0x8(%esp)
 80482a9:	8b 45 0c             	mov    0xc(%ebp),%eax
 80482ac:	89 44 24 04          	mov    %eax,0x4(%esp)
 80482b0:	8b 45 08             	mov    0x8(%ebp),%eax
 80482b3:	89 04 24             	mov    %eax,(%esp)
 80482b6:	e8 c7 00 00 00       	call   8048382 <vfprintf>
 80482bb:	89 45 f4             	mov    %eax,-0xc(%ebp)
 80482be:	8b 45 f4             	mov    -0xc(%ebp),%eax
 80482c1:	83 c4 24             	add    $0x24,%esp
 80482c4:	5b                   	pop    %ebx
 80482c5:	5d                   	pop    %ebp
 80482c6:	c3                   	ret    

080482c7 <sprintf>:
 80482c7:	55                   	push   %ebp
 80482c8:	89 e5                	mov    %esp,%ebp
 80482ca:	53                   	push   %ebx
 80482cb:	83 ec 24             	sub    $0x24,%esp
 80482ce:	e8 5e 01 00 00       	call   8048431 <__i686.get_pc_thunk.bx>
 80482d3:	81 c3 45 7d 00 00    	add    $0x7d45,%ebx
 80482d9:	8d 55 10             	lea    0x10(%ebp),%edx
 80482dc:	8d 45 f0             	lea    -0x10(%ebp),%eax
 80482df:	89 10                	mov    %edx,(%eax)
 80482e1:	8b 45 f0             	mov    -0x10(%ebp),%eax
 80482e4:	89 44 24 08          	mov    %eax,0x8(%esp)
 80482e8:	8b 45 0c             	mov    0xc(%ebp),%eax
 80482eb:	89 44 24 04          	mov    %eax,0x4(%esp)
 80482ef:	8b 45 08             	mov    0x8(%ebp),%eax
 80482f2:	89 04 24             	mov    %eax,(%esp)
 80482f5:	e8 f4 00 00 00       	call   80483ee <vsprintf>
 80482fa:	89 45 f4             	mov    %eax,-0xc(%ebp)
 80482fd:	8b 45 f4             	mov    -0xc(%ebp),%eax
 8048300:	83 c4 24             	add    $0x24,%esp
 8048303:	5b                   	pop    %ebx
 8048304:	5d                   	pop    %ebp
 8048305:	c3                   	ret    

08048306 <snprintf>:
 8048306:	55                   	push   %ebp
 8048307:	89 e5                	mov    %esp,%ebp
 8048309:	53                   	push   %ebx
 804830a:	83 ec 24             	sub    $0x24,%esp
 804830d:	e8 1f 01 00 00       	call   8048431 <__i686.get_pc_thunk.bx>
 8048312:	81 c3 06 7d 00 00    	add    $0x7d06,%ebx
 8048318:	8d 55 14             	lea    0x14(%ebp),%edx
 804831b:	8d 45 f0             	lea    -0x10(%ebp),%eax
 804831e:	89 10                	mov    %edx,(%eax)
 8048320:	8b 45 f0             	mov    -0x10(%ebp),%eax
 8048323:	89 44 24 0c          	mov    %eax,0xc(%esp)
 8048327:	8b 45 10             	mov    0x10(%ebp),%eax
 804832a:	89 44 24 08          	mov    %eax,0x8(%esp)
 804832e:	8b 45 0c             	mov    0xc(%ebp),%eax
 8048331:	89 44 24 04          	mov    %eax,0x4(%esp)
 8048335:	8b 45 08             	mov    0x8(%ebp),%eax
 8048338:	89 04 24             	mov    %eax,(%esp)
 804833b:	e8 ab 20 00 00       	call   804a3eb <vsnprintf>
 8048340:	89 45 f4             	mov    %eax,-0xc(%ebp)
 8048343:	8b 45 f4             	mov    -0xc(%ebp),%eax
 8048346:	83 c4 24             	add    $0x24,%esp
 8048349:	5b                   	pop    %ebx
 804834a:	5d                   	pop    %ebp
 804834b:	c3                   	ret    

0804834c <vprintf>:
 804834c:	55                   	push   %ebp
 804834d:	89 e5                	mov    %esp,%ebp
 804834f:	53                   	push   %ebx
 8048350:	83 ec 14             	sub    $0x14,%esp
 8048353:	e8 d9 00 00 00       	call   8048431 <__i686.get_pc_thunk.bx>
 8048358:	81 c3 c0 7c 00 00    	add    $0x7cc0,%ebx
 804835e:	8b 83 f4 ff ff ff    	mov    -0xc(%ebx),%eax
 8048364:	8b 00                	mov    (%eax),%eax
 8048366:	8b 55 0c             	mov    0xc(%ebp),%edx
 8048369:	89 54 24 08          	mov    %edx,0x8(%esp)
 804836d:	8b 55 08             	mov    0x8(%ebp),%edx
 8048370:	89 54 24 04          	mov    %edx,0x4(%esp)
 8048374:	89 04 24             	mov    %eax,(%esp)
 8048377:	e8 06 00 00 00       	call   8048382 <vfprintf>
 804837c:	83 c4 14             	add    $0x14,%esp
 804837f:	5b                   	pop    %ebx
 8048380:	5d                   	pop    %ebp
 8048381:	c3                   	ret    

08048382 <vfprintf>:
 8048382:	55                   	push   %ebp
 8048383:	89 e5                	mov    %esp,%ebp
 8048385:	53                   	push   %ebx
 8048386:	81 ec 24 04 00 00    	sub    $0x424,%esp
 804838c:	e8 a0 00 00 00       	call   8048431 <__i686.get_pc_thunk.bx>
 8048391:	81 c3 87 7c 00 00    	add    $0x7c87,%ebx
 8048397:	8b 45 10             	mov    0x10(%ebp),%eax
 804839a:	89 44 24 0c          	mov    %eax,0xc(%esp)
 804839e:	8b 45 0c             	mov    0xc(%ebp),%eax
 80483a1:	89 44 24 08          	mov    %eax,0x8(%esp)
 80483a5:	c7 44 24 04 00 04 00 	movl   $0x400,0x4(%esp)
 80483ac:	00 
 80483ad:	8d 85 f4 fb ff ff    	lea    -0x40c(%ebp),%eax
 80483b3:	89 04 24             	mov    %eax,(%esp)
 80483b6:	e8 30 20 00 00       	call   804a3eb <vsnprintf>
 80483bb:	89 45 f4             	mov    %eax,-0xc(%ebp)
 80483be:	83 7d f4 00          	cmpl   $0x0,-0xc(%ebp)
 80483c2:	7e 1e                	jle    80483e2 <vfprintf+0x60>
 80483c4:	8b 55 f4             	mov    -0xc(%ebp),%edx
 80483c7:	8b 45 08             	mov    0x8(%ebp),%eax
 80483ca:	8b 00                	mov    (%eax),%eax
 80483cc:	89 54 24 08          	mov    %edx,0x8(%esp)
 80483d0:	8d 95 f4 fb ff ff    	lea    -0x40c(%ebp),%edx
 80483d6:	89 54 24 04          	mov    %edx,0x4(%esp)
 80483da:	89 04 24             	mov    %eax,(%esp)
 80483dd:	e8 34 13 00 00       	call   8049716 <write>
 80483e2:	8b 45 f4             	mov    -0xc(%ebp),%eax
 80483e5:	81 c4 24 04 00 00    	add    $0x424,%esp
 80483eb:	5b                   	pop    %ebx
 80483ec:	5d                   	pop    %ebp
 80483ed:	c3                   	ret    

080483ee <vsprintf>:
 80483ee:	55                   	push   %ebp
 80483ef:	89 e5                	mov    %esp,%ebp
 80483f1:	53                   	push   %ebx
 80483f2:	83 ec 14             	sub    $0x14,%esp
 80483f5:	e8 37 00 00 00       	call   8048431 <__i686.get_pc_thunk.bx>
 80483fa:	81 c3 1e 7c 00 00    	add    $0x7c1e,%ebx
 8048400:	8b 45 10             	mov    0x10(%ebp),%eax
 8048403:	89 44 24 0c          	mov    %eax,0xc(%esp)
 8048407:	8b 45 0c             	mov    0xc(%ebp),%eax
 804840a:	89 44 24 08          	mov    %eax,0x8(%esp)
 804840e:	c7 44 24 04 ff ff ff 	movl   $0xffffffff,0x4(%esp)
 8048415:	ff 
 8048416:	8b 45 08             	mov    0x8(%ebp),%eax
 8048419:	89 04 24             	mov    %eax,(%esp)
 804841c:	e8 ca 1f 00 00       	call   804a3eb <vsnprintf>
 8048421:	83 c4 14             	add    $0x14,%esp
 8048424:	5b                   	pop    %ebx
 8048425:	5d                   	pop    %ebp
 8048426:	c3                   	ret    

08048427 <fflush>:
 8048427:	55                   	push   %ebp
 8048428:	89 e5                	mov    %esp,%ebp
 804842a:	b8 00 00 00 00       	mov    $0x0,%eax
 804842f:	5d                   	pop    %ebp
 8048430:	c3                   	ret    

08048431 <__i686.get_pc_thunk.bx>:
 8048431:	8b 1c 24             	mov    (%esp),%ebx
 8048434:	c3                   	ret    
 8048435:	90                   	nop
 8048436:	90                   	nop
 8048437:	90                   	nop

08048438 <memcmp>:
 8048438:	55                   	push   %ebp
 8048439:	89 e5                	mov    %esp,%ebp
 804843b:	83 ec 10             	sub    $0x10,%esp
 804843e:	c6 45 f7 00          	movb   $0x0,-0x9(%ebp)
 8048442:	8b 45 08             	mov    0x8(%ebp),%eax
 8048445:	89 45 fc             	mov    %eax,-0x4(%ebp)
 8048448:	8b 45 0c             	mov    0xc(%ebp),%eax
 804844b:	89 45 f8             	mov    %eax,-0x8(%ebp)
 804844e:	eb 27                	jmp    8048477 <memcmp+0x3f>
 8048450:	8b 45 fc             	mov    -0x4(%ebp),%eax
 8048453:	0f b6 10             	movzbl (%eax),%edx
 8048456:	8b 45 f8             	mov    -0x8(%ebp),%eax
 8048459:	0f b6 00             	movzbl (%eax),%eax
 804845c:	89 d1                	mov    %edx,%ecx
 804845e:	28 c1                	sub    %al,%cl
 8048460:	89 c8                	mov    %ecx,%eax
 8048462:	88 45 f7             	mov    %al,-0x9(%ebp)
 8048465:	80 7d f7 00          	cmpb   $0x0,-0x9(%ebp)
 8048469:	75 14                	jne    804847f <memcmp+0x47>
 804846b:	83 45 fc 01          	addl   $0x1,-0x4(%ebp)
 804846f:	83 45 f8 01          	addl   $0x1,-0x8(%ebp)
 8048473:	83 6d 10 01          	subl   $0x1,0x10(%ebp)
 8048477:	83 7d 10 00          	cmpl   $0x0,0x10(%ebp)
 804847b:	75 d3                	jne    8048450 <memcmp+0x18>
 804847d:	eb 01                	jmp    8048480 <memcmp+0x48>
 804847f:	90                   	nop
 8048480:	0f be 45 f7          	movsbl -0x9(%ebp),%eax
 8048484:	c9                   	leave  
 8048485:	c3                   	ret    

08048486 <memcpy>:
 8048486:	55                   	push   %ebp
 8048487:	89 e5                	mov    %esp,%ebp
 8048489:	83 ec 10             	sub    $0x10,%esp
 804848c:	8b 45 08             	mov    0x8(%ebp),%eax
 804848f:	89 45 fc             	mov    %eax,-0x4(%ebp)
 8048492:	8b 45 0c             	mov    0xc(%ebp),%eax
 8048495:	89 45 f8             	mov    %eax,-0x8(%ebp)
 8048498:	eb 13                	jmp    80484ad <memcpy+0x27>
 804849a:	8b 45 f8             	mov    -0x8(%ebp),%eax
 804849d:	0f b6 10             	movzbl (%eax),%edx
 80484a0:	8b 45 fc             	mov    -0x4(%ebp),%eax
 80484a3:	88 10                	mov    %dl,(%eax)
 80484a5:	83 45 fc 01          	addl   $0x1,-0x4(%ebp)
 80484a9:	83 45 f8 01          	addl   $0x1,-0x8(%ebp)
 80484ad:	83 7d 10 00          	cmpl   $0x0,0x10(%ebp)
 80484b1:	0f 95 c0             	setne  %al
 80484b4:	83 6d 10 01          	subl   $0x1,0x10(%ebp)
 80484b8:	84 c0                	test   %al,%al
 80484ba:	75 de                	jne    804849a <memcpy+0x14>
 80484bc:	8b 45 08             	mov    0x8(%ebp),%eax
 80484bf:	c9                   	leave  
 80484c0:	c3                   	ret    

080484c1 <strncmp>:
 80484c1:	55                   	push   %ebp
 80484c2:	89 e5                	mov    %esp,%ebp
 80484c4:	56                   	push   %esi
 80484c5:	be 00 00 00 00       	mov    $0x0,%esi
 80484ca:	eb 3c                	jmp    8048508 <strncmp+0x47>
 80484cc:	8b 45 08             	mov    0x8(%ebp),%eax
 80484cf:	0f b6 00             	movzbl (%eax),%eax
 80484d2:	89 c2                	mov    %eax,%edx
 80484d4:	8b 45 0c             	mov    0xc(%ebp),%eax
 80484d7:	0f b6 00             	movzbl (%eax),%eax
 80484da:	89 d1                	mov    %edx,%ecx
 80484dc:	28 c1                	sub    %al,%cl
 80484de:	89 c8                	mov    %ecx,%eax
 80484e0:	89 c6                	mov    %eax,%esi
 80484e2:	89 f0                	mov    %esi,%eax
 80484e4:	84 c0                	test   %al,%al
 80484e6:	0f 95 c0             	setne  %al
 80484e9:	83 45 0c 01          	addl   $0x1,0xc(%ebp)
 80484ed:	84 c0                	test   %al,%al
 80484ef:	75 1d                	jne    804850e <strncmp+0x4d>
 80484f1:	8b 45 08             	mov    0x8(%ebp),%eax
 80484f4:	0f b6 00             	movzbl (%eax),%eax
 80484f7:	84 c0                	test   %al,%al
 80484f9:	0f 94 c0             	sete   %al
 80484fc:	83 45 08 01          	addl   $0x1,0x8(%ebp)
 8048500:	84 c0                	test   %al,%al
 8048502:	75 0a                	jne    804850e <strncmp+0x4d>
 8048504:	83 6d 10 01          	subl   $0x1,0x10(%ebp)
 8048508:	83 7d 10 00          	cmpl   $0x0,0x10(%ebp)
 804850c:	75 be                	jne    80484cc <strncmp+0xb>
 804850e:	89 f2                	mov    %esi,%edx
 8048510:	0f be c2             	movsbl %dl,%eax
 8048513:	5e                   	pop    %esi
 8048514:	5d                   	pop    %ebp
 8048515:	c3                   	ret    

08048516 <strcmp>:
 8048516:	55                   	push   %ebp
 8048517:	89 e5                	mov    %esp,%ebp
 8048519:	56                   	push   %esi
 804851a:	eb 01                	jmp    804851d <strcmp+0x7>
 804851c:	90                   	nop
 804851d:	8b 45 08             	mov    0x8(%ebp),%eax
 8048520:	0f b6 00             	movzbl (%eax),%eax
 8048523:	89 c2                	mov    %eax,%edx
 8048525:	8b 45 0c             	mov    0xc(%ebp),%eax
 8048528:	0f b6 00             	movzbl (%eax),%eax
 804852b:	89 d1                	mov    %edx,%ecx
 804852d:	28 c1                	sub    %al,%cl
 804852f:	89 c8                	mov    %ecx,%eax
 8048531:	89 c6                	mov    %eax,%esi
 8048533:	89 f0                	mov    %esi,%eax
 8048535:	84 c0                	test   %al,%al
 8048537:	0f 95 c0             	setne  %al
 804853a:	83 45 0c 01          	addl   $0x1,0xc(%ebp)
 804853e:	84 c0                	test   %al,%al
 8048540:	75 13                	jne    8048555 <strcmp+0x3f>
 8048542:	8b 45 08             	mov    0x8(%ebp),%eax
 8048545:	0f b6 00             	movzbl (%eax),%eax
 8048548:	84 c0                	test   %al,%al
 804854a:	0f 94 c0             	sete   %al
 804854d:	83 45 08 01          	addl   $0x1,0x8(%ebp)
 8048551:	84 c0                	test   %al,%al
 8048553:	74 c7                	je     804851c <strcmp+0x6>
 8048555:	89 f2                	mov    %esi,%edx
 8048557:	0f be c2             	movsbl %dl,%eax
 804855a:	5e                   	pop    %esi
 804855b:	5d                   	pop    %ebp
 804855c:	c3                   	ret    

0804855d <strcpy>:
 804855d:	55                   	push   %ebp
 804855e:	89 e5                	mov    %esp,%ebp
 8048560:	83 ec 10             	sub    $0x10,%esp
 8048563:	8b 45 08             	mov    0x8(%ebp),%eax
 8048566:	89 45 fc             	mov    %eax,-0x4(%ebp)
 8048569:	90                   	nop
 804856a:	8b 45 0c             	mov    0xc(%ebp),%eax
 804856d:	0f b6 10             	movzbl (%eax),%edx
 8048570:	8b 45 08             	mov    0x8(%ebp),%eax
 8048573:	88 10                	mov    %dl,(%eax)
 8048575:	8b 45 08             	mov    0x8(%ebp),%eax
 8048578:	0f b6 00             	movzbl (%eax),%eax
 804857b:	84 c0                	test   %al,%al
 804857d:	0f 95 c0             	setne  %al
 8048580:	83 45 08 01          	addl   $0x1,0x8(%ebp)
 8048584:	83 45 0c 01          	addl   $0x1,0xc(%ebp)
 8048588:	84 c0                	test   %al,%al
 804858a:	75 de                	jne    804856a <strcpy+0xd>
 804858c:	8b 45 fc             	mov    -0x4(%ebp),%eax
 804858f:	c9                   	leave  
 8048590:	c3                   	ret    

08048591 <strncpy>:
 8048591:	55                   	push   %ebp
 8048592:	89 e5                	mov    %esp,%ebp
 8048594:	83 ec 10             	sub    $0x10,%esp
 8048597:	8b 45 08             	mov    0x8(%ebp),%eax
 804859a:	89 45 fc             	mov    %eax,-0x4(%ebp)
 804859d:	90                   	nop
 804859e:	83 7d 10 00          	cmpl   $0x0,0x10(%ebp)
 80485a2:	0f 95 c0             	setne  %al
 80485a5:	83 6d 10 01          	subl   $0x1,0x10(%ebp)
 80485a9:	84 c0                	test   %al,%al
 80485ab:	74 22                	je     80485cf <strncpy+0x3e>
 80485ad:	8b 45 0c             	mov    0xc(%ebp),%eax
 80485b0:	0f b6 10             	movzbl (%eax),%edx
 80485b3:	8b 45 08             	mov    0x8(%ebp),%eax
 80485b6:	88 10                	mov    %dl,(%eax)
 80485b8:	8b 45 08             	mov    0x8(%ebp),%eax
 80485bb:	0f b6 00             	movzbl (%eax),%eax
 80485be:	84 c0                	test   %al,%al
 80485c0:	0f 95 c0             	setne  %al
 80485c3:	83 45 08 01          	addl   $0x1,0x8(%ebp)
 80485c7:	83 45 0c 01          	addl   $0x1,0xc(%ebp)
 80485cb:	84 c0                	test   %al,%al
 80485cd:	75 cf                	jne    804859e <strncpy+0xd>
 80485cf:	8b 45 fc             	mov    -0x4(%ebp),%eax
 80485d2:	c9                   	leave  
 80485d3:	c3                   	ret    

080485d4 <memset>:
 80485d4:	55                   	push   %ebp
 80485d5:	89 e5                	mov    %esp,%ebp
 80485d7:	83 ec 10             	sub    $0x10,%esp
 80485da:	8b 45 08             	mov    0x8(%ebp),%eax
 80485dd:	89 45 fc             	mov    %eax,-0x4(%ebp)
 80485e0:	eb 0e                	jmp    80485f0 <memset+0x1c>
 80485e2:	8b 45 0c             	mov    0xc(%ebp),%eax
 80485e5:	89 c2                	mov    %eax,%edx
 80485e7:	8b 45 fc             	mov    -0x4(%ebp),%eax
 80485ea:	88 10                	mov    %dl,(%eax)
 80485ec:	83 45 fc 01          	addl   $0x1,-0x4(%ebp)
 80485f0:	83 7d 10 00          	cmpl   $0x0,0x10(%ebp)
 80485f4:	0f 95 c0             	setne  %al
 80485f7:	83 6d 10 01          	subl   $0x1,0x10(%ebp)
 80485fb:	84 c0                	test   %al,%al
 80485fd:	75 e3                	jne    80485e2 <memset+0xe>
 80485ff:	8b 45 08             	mov    0x8(%ebp),%eax
 8048602:	c9                   	leave  
 8048603:	c3                   	ret    

08048604 <strnlen>:
 8048604:	55                   	push   %ebp
 8048605:	89 e5                	mov    %esp,%ebp
 8048607:	83 ec 10             	sub    $0x10,%esp
 804860a:	8b 45 08             	mov    0x8(%ebp),%eax
 804860d:	89 45 fc             	mov    %eax,-0x4(%ebp)
 8048610:	eb 04                	jmp    8048616 <strnlen+0x12>
 8048612:	83 45 fc 01          	addl   $0x1,-0x4(%ebp)
 8048616:	83 7d 0c 00          	cmpl   $0x0,0xc(%ebp)
 804861a:	0f 95 c0             	setne  %al
 804861d:	83 6d 0c 01          	subl   $0x1,0xc(%ebp)
 8048621:	84 c0                	test   %al,%al
 8048623:	74 0a                	je     804862f <strnlen+0x2b>
 8048625:	8b 45 fc             	mov    -0x4(%ebp),%eax
 8048628:	0f b6 00             	movzbl (%eax),%eax
 804862b:	84 c0                	test   %al,%al
 804862d:	75 e3                	jne    8048612 <strnlen+0xe>
 804862f:	8b 55 fc             	mov    -0x4(%ebp),%edx
 8048632:	8b 45 08             	mov    0x8(%ebp),%eax
 8048635:	89 d1                	mov    %edx,%ecx
 8048637:	29 c1                	sub    %eax,%ecx
 8048639:	89 c8                	mov    %ecx,%eax
 804863b:	c9                   	leave  
 804863c:	c3                   	ret    

0804863d <strcat>:
 804863d:	55                   	push   %ebp
 804863e:	89 e5                	mov    %esp,%ebp
 8048640:	83 ec 10             	sub    $0x10,%esp
 8048643:	8b 45 08             	mov    0x8(%ebp),%eax
 8048646:	89 45 fc             	mov    %eax,-0x4(%ebp)
 8048649:	eb 04                	jmp    804864f <strcat+0x12>
 804864b:	83 45 08 01          	addl   $0x1,0x8(%ebp)
 804864f:	8b 45 08             	mov    0x8(%ebp),%eax
 8048652:	0f b6 00             	movzbl (%eax),%eax
 8048655:	84 c0                	test   %al,%al
 8048657:	75 f2                	jne    804864b <strcat+0xe>
 8048659:	90                   	nop
 804865a:	8b 45 0c             	mov    0xc(%ebp),%eax
 804865d:	0f b6 10             	movzbl (%eax),%edx
 8048660:	8b 45 08             	mov    0x8(%ebp),%eax
 8048663:	88 10                	mov    %dl,(%eax)
 8048665:	8b 45 08             	mov    0x8(%ebp),%eax
 8048668:	0f b6 00             	movzbl (%eax),%eax
 804866b:	84 c0                	test   %al,%al
 804866d:	0f 95 c0             	setne  %al
 8048670:	83 45 08 01          	addl   $0x1,0x8(%ebp)
 8048674:	83 45 0c 01          	addl   $0x1,0xc(%ebp)
 8048678:	84 c0                	test   %al,%al
 804867a:	75 de                	jne    804865a <strcat+0x1d>
 804867c:	8b 45 fc             	mov    -0x4(%ebp),%eax
 804867f:	c9                   	leave  
 8048680:	c3                   	ret    

08048681 <strlen>:
 8048681:	55                   	push   %ebp
 8048682:	89 e5                	mov    %esp,%ebp
 8048684:	83 ec 10             	sub    $0x10,%esp
 8048687:	8b 45 08             	mov    0x8(%ebp),%eax
 804868a:	89 45 fc             	mov    %eax,-0x4(%ebp)
 804868d:	eb 04                	jmp    8048693 <strlen+0x12>
 804868f:	83 45 fc 01          	addl   $0x1,-0x4(%ebp)
 8048693:	8b 45 fc             	mov    -0x4(%ebp),%eax
 8048696:	0f b6 00             	movzbl (%eax),%eax
 8048699:	84 c0                	test   %al,%al
 804869b:	75 f2                	jne    804868f <strlen+0xe>
 804869d:	8b 55 fc             	mov    -0x4(%ebp),%edx
 80486a0:	8b 45 08             	mov    0x8(%ebp),%eax
 80486a3:	89 d1                	mov    %edx,%ecx
 80486a5:	29 c1                	sub    %eax,%ecx
 80486a7:	89 c8                	mov    %ecx,%eax
 80486a9:	c9                   	leave  
 80486aa:	c3                   	ret    

080486ab <strchr>:
 80486ab:	55                   	push   %ebp
 80486ac:	89 e5                	mov    %esp,%ebp
 80486ae:	eb 15                	jmp    80486c5 <strchr+0x1a>
 80486b0:	8b 45 08             	mov    0x8(%ebp),%eax
 80486b3:	0f b6 00             	movzbl (%eax),%eax
 80486b6:	84 c0                	test   %al,%al
 80486b8:	75 07                	jne    80486c1 <strchr+0x16>
 80486ba:	b8 00 00 00 00       	mov    $0x0,%eax
 80486bf:	eb 14                	jmp    80486d5 <strchr+0x2a>
 80486c1:	83 45 08 01          	addl   $0x1,0x8(%ebp)
 80486c5:	8b 45 08             	mov    0x8(%ebp),%eax
 80486c8:	0f b6 10             	movzbl (%eax),%edx
 80486cb:	8b 45 0c             	mov    0xc(%ebp),%eax
 80486ce:	38 c2                	cmp    %al,%dl
 80486d0:	75 de                	jne    80486b0 <strchr+0x5>
 80486d2:	8b 45 08             	mov    0x8(%ebp),%eax
 80486d5:	5d                   	pop    %ebp
 80486d6:	c3                   	ret    

080486d7 <strrchr>:
 80486d7:	55                   	push   %ebp
 80486d8:	89 e5                	mov    %esp,%ebp
 80486da:	83 ec 10             	sub    $0x10,%esp
 80486dd:	c7 45 fc 00 00 00 00 	movl   $0x0,-0x4(%ebp)
 80486e4:	eb 17                	jmp    80486fd <strrchr+0x26>
 80486e6:	8b 45 08             	mov    0x8(%ebp),%eax
 80486e9:	0f b6 10             	movzbl (%eax),%edx
 80486ec:	8b 45 0c             	mov    0xc(%ebp),%eax
 80486ef:	38 c2                	cmp    %al,%dl
 80486f1:	75 06                	jne    80486f9 <strrchr+0x22>
 80486f3:	8b 45 08             	mov    0x8(%ebp),%eax
 80486f6:	89 45 fc             	mov    %eax,-0x4(%ebp)
 80486f9:	83 45 08 01          	addl   $0x1,0x8(%ebp)
 80486fd:	8b 45 08             	mov    0x8(%ebp),%eax
 8048700:	0f b6 00             	movzbl (%eax),%eax
 8048703:	84 c0                	test   %al,%al
 8048705:	75 df                	jne    80486e6 <strrchr+0xf>
 8048707:	8b 45 fc             	mov    -0x4(%ebp),%eax
 804870a:	c9                   	leave  
 804870b:	c3                   	ret    

0804870c <strstr>:
 804870c:	55                   	push   %ebp
 804870d:	89 e5                	mov    %esp,%ebp
 804870f:	53                   	push   %ebx
 8048710:	83 ec 24             	sub    $0x24,%esp
 8048713:	e8 19 fd ff ff       	call   8048431 <__i686.get_pc_thunk.bx>
 8048718:	81 c3 00 79 00 00    	add    $0x7900,%ebx
 804871e:	8b 45 0c             	mov    0xc(%ebp),%eax
 8048721:	89 04 24             	mov    %eax,(%esp)
 8048724:	e8 58 ff ff ff       	call   8048681 <strlen>
 8048729:	89 45 f0             	mov    %eax,-0x10(%ebp)
 804872c:	83 7d f0 00          	cmpl   $0x0,-0x10(%ebp)
 8048730:	75 05                	jne    8048737 <strstr+0x2b>
 8048732:	8b 45 08             	mov    0x8(%ebp),%eax
 8048735:	eb 47                	jmp    804877e <strstr+0x72>
 8048737:	8b 45 08             	mov    0x8(%ebp),%eax
 804873a:	89 04 24             	mov    %eax,(%esp)
 804873d:	e8 3f ff ff ff       	call   8048681 <strlen>
 8048742:	89 45 f4             	mov    %eax,-0xc(%ebp)
 8048745:	eb 2a                	jmp    8048771 <strstr+0x65>
 8048747:	83 6d f4 01          	subl   $0x1,-0xc(%ebp)
 804874b:	8b 45 f0             	mov    -0x10(%ebp),%eax
 804874e:	89 44 24 08          	mov    %eax,0x8(%esp)
 8048752:	8b 45 0c             	mov    0xc(%ebp),%eax
 8048755:	89 44 24 04          	mov    %eax,0x4(%esp)
 8048759:	8b 45 08             	mov    0x8(%ebp),%eax
 804875c:	89 04 24             	mov    %eax,(%esp)
 804875f:	e8 d4 fc ff ff       	call   8048438 <memcmp>
 8048764:	85 c0                	test   %eax,%eax
 8048766:	75 05                	jne    804876d <strstr+0x61>
 8048768:	8b 45 08             	mov    0x8(%ebp),%eax
 804876b:	eb 11                	jmp    804877e <strstr+0x72>
 804876d:	83 45 08 01          	addl   $0x1,0x8(%ebp)
 8048771:	8b 45 f4             	mov    -0xc(%ebp),%eax
 8048774:	3b 45 f0             	cmp    -0x10(%ebp),%eax
 8048777:	7d ce                	jge    8048747 <strstr+0x3b>
 8048779:	b8 00 00 00 00       	mov    $0x0,%eax
 804877e:	83 c4 24             	add    $0x24,%esp
 8048781:	5b                   	pop    %ebx
 8048782:	5d                   	pop    %ebp
 8048783:	c3                   	ret    

08048784 <strdup>:
 8048784:	55                   	push   %ebp
 8048785:	89 e5                	mov    %esp,%ebp
 8048787:	b8 00 00 00 00       	mov    $0x0,%eax
 804878c:	5d                   	pop    %ebp
 804878d:	c3                   	ret    

0804878e <strpbrk>:
 804878e:	55                   	push   %ebp
 804878f:	89 e5                	mov    %esp,%ebp
 8048791:	83 ec 10             	sub    $0x10,%esp
 8048794:	8b 45 0c             	mov    0xc(%ebp),%eax
 8048797:	89 45 fc             	mov    %eax,-0x4(%ebp)
 804879a:	eb 04                	jmp    80487a0 <strpbrk+0x12>
 804879c:	83 45 fc 01          	addl   $0x1,-0x4(%ebp)
 80487a0:	8b 45 fc             	mov    -0x4(%ebp),%eax
 80487a3:	0f b6 00             	movzbl (%eax),%eax
 80487a6:	84 c0                	test   %al,%al
 80487a8:	74 10                	je     80487ba <strpbrk+0x2c>
 80487aa:	8b 45 fc             	mov    -0x4(%ebp),%eax
 80487ad:	0f b6 10             	movzbl (%eax),%edx
 80487b0:	8b 45 08             	mov    0x8(%ebp),%eax
 80487b3:	0f b6 00             	movzbl (%eax),%eax
 80487b6:	38 c2                	cmp    %al,%dl
 80487b8:	75 e2                	jne    804879c <strpbrk+0xe>
 80487ba:	8b 45 fc             	mov    -0x4(%ebp),%eax
 80487bd:	0f b6 00             	movzbl (%eax),%eax
 80487c0:	84 c0                	test   %al,%al
 80487c2:	74 05                	je     80487c9 <strpbrk+0x3b>
 80487c4:	8b 45 08             	mov    0x8(%ebp),%eax
 80487c7:	eb 18                	jmp    80487e1 <strpbrk+0x53>
 80487c9:	8b 45 08             	mov    0x8(%ebp),%eax
 80487cc:	0f b6 00             	movzbl (%eax),%eax
 80487cf:	84 c0                	test   %al,%al
 80487d1:	0f 95 c0             	setne  %al
 80487d4:	83 45 08 01          	addl   $0x1,0x8(%ebp)
 80487d8:	84 c0                	test   %al,%al
 80487da:	75 b8                	jne    8048794 <strpbrk+0x6>
 80487dc:	b8 00 00 00 00       	mov    $0x0,%eax
 80487e1:	c9                   	leave  
 80487e2:	c3                   	ret    

080487e3 <strspn>:
 80487e3:	55                   	push   %ebp
 80487e4:	89 e5                	mov    %esp,%ebp
 80487e6:	83 ec 10             	sub    $0x10,%esp
 80487e9:	8b 45 08             	mov    0x8(%ebp),%eax
 80487ec:	89 45 f8             	mov    %eax,-0x8(%ebp)
 80487ef:	eb 34                	jmp    8048825 <strspn+0x42>
 80487f1:	8b 45 0c             	mov    0xc(%ebp),%eax
 80487f4:	89 45 fc             	mov    %eax,-0x4(%ebp)
 80487f7:	eb 04                	jmp    80487fd <strspn+0x1a>
 80487f9:	83 45 fc 01          	addl   $0x1,-0x4(%ebp)
 80487fd:	8b 45 fc             	mov    -0x4(%ebp),%eax
 8048800:	0f b6 00             	movzbl (%eax),%eax
 8048803:	84 c0                	test   %al,%al
 8048805:	74 10                	je     8048817 <strspn+0x34>
 8048807:	8b 45 fc             	mov    -0x4(%ebp),%eax
 804880a:	0f b6 10             	movzbl (%eax),%edx
 804880d:	8b 45 f8             	mov    -0x8(%ebp),%eax
 8048810:	0f b6 00             	movzbl (%eax),%eax
 8048813:	38 c2                	cmp    %al,%dl
 8048815:	75 e2                	jne    80487f9 <strspn+0x16>
 8048817:	8b 45 fc             	mov    -0x4(%ebp),%eax
 804881a:	0f b6 00             	movzbl (%eax),%eax
 804881d:	84 c0                	test   %al,%al
 804881f:	74 10                	je     8048831 <strspn+0x4e>
 8048821:	83 45 f8 01          	addl   $0x1,-0x8(%ebp)
 8048825:	8b 45 f8             	mov    -0x8(%ebp),%eax
 8048828:	0f b6 00             	movzbl (%eax),%eax
 804882b:	84 c0                	test   %al,%al
 804882d:	75 c2                	jne    80487f1 <strspn+0xe>
 804882f:	eb 01                	jmp    8048832 <strspn+0x4f>
 8048831:	90                   	nop
 8048832:	8b 55 f8             	mov    -0x8(%ebp),%edx
 8048835:	8b 45 08             	mov    0x8(%ebp),%eax
 8048838:	89 d1                	mov    %edx,%ecx
 804883a:	29 c1                	sub    %eax,%ecx
 804883c:	89 c8                	mov    %ecx,%eax
 804883e:	c9                   	leave  
 804883f:	c3                   	ret    

08048840 <strtok>:
 8048840:	55                   	push   %ebp
 8048841:	89 e5                	mov    %esp,%ebp
 8048843:	53                   	push   %ebx
 8048844:	83 ec 24             	sub    $0x24,%esp
 8048847:	e8 e5 fb ff ff       	call   8048431 <__i686.get_pc_thunk.bx>
 804884c:	81 c3 cc 77 00 00    	add    $0x77cc,%ebx
 8048852:	83 7d 08 00          	cmpl   $0x0,0x8(%ebp)
 8048856:	75 08                	jne    8048860 <strtok+0x20>
 8048858:	8b 83 68 01 00 00    	mov    0x168(%ebx),%eax
 804885e:	eb 03                	jmp    8048863 <strtok+0x23>
 8048860:	8b 45 08             	mov    0x8(%ebp),%eax
 8048863:	89 45 f4             	mov    %eax,-0xc(%ebp)
 8048866:	83 7d f4 00          	cmpl   $0x0,-0xc(%ebp)
 804886a:	75 07                	jne    8048873 <strtok+0x33>
 804886c:	b8 00 00 00 00       	mov    $0x0,%eax
 8048871:	eb 66                	jmp    80488d9 <strtok+0x99>
 8048873:	8b 45 0c             	mov    0xc(%ebp),%eax
 8048876:	89 44 24 04          	mov    %eax,0x4(%esp)
 804887a:	8b 45 f4             	mov    -0xc(%ebp),%eax
 804887d:	89 04 24             	mov    %eax,(%esp)
 8048880:	e8 5e ff ff ff       	call   80487e3 <strspn>
 8048885:	03 45 f4             	add    -0xc(%ebp),%eax
 8048888:	89 45 f0             	mov    %eax,-0x10(%ebp)
 804888b:	8b 45 f0             	mov    -0x10(%ebp),%eax
 804888e:	0f b6 00             	movzbl (%eax),%eax
 8048891:	84 c0                	test   %al,%al
 8048893:	75 07                	jne    804889c <strtok+0x5c>
 8048895:	b8 00 00 00 00       	mov    $0x0,%eax
 804889a:	eb 3d                	jmp    80488d9 <strtok+0x99>
 804889c:	8b 45 0c             	mov    0xc(%ebp),%eax
 804889f:	89 44 24 04          	mov    %eax,0x4(%esp)
 80488a3:	8b 45 f0             	mov    -0x10(%ebp),%eax
 80488a6:	89 04 24             	mov    %eax,(%esp)
 80488a9:	e8 e0 fe ff ff       	call   804878e <strpbrk>
 80488ae:	89 45 ec             	mov    %eax,-0x14(%ebp)
 80488b1:	83 7d ec 00          	cmpl   $0x0,-0x14(%ebp)
 80488b5:	75 0c                	jne    80488c3 <strtok+0x83>
 80488b7:	c7 83 68 01 00 00 00 	movl   $0x0,0x168(%ebx)
 80488be:	00 00 00 
 80488c1:	eb 13                	jmp    80488d6 <strtok+0x96>
 80488c3:	8b 45 ec             	mov    -0x14(%ebp),%eax
 80488c6:	c6 00 00             	movb   $0x0,(%eax)
 80488c9:	83 45 ec 01          	addl   $0x1,-0x14(%ebp)
 80488cd:	8b 45 ec             	mov    -0x14(%ebp),%eax
 80488d0:	89 83 68 01 00 00    	mov    %eax,0x168(%ebx)
 80488d6:	8b 45 f0             	mov    -0x10(%ebp),%eax
 80488d9:	83 c4 24             	add    $0x24,%esp
 80488dc:	5b                   	pop    %ebx
 80488dd:	5d                   	pop    %ebp
 80488de:	c3                   	ret    

080488df <strerror>:
 80488df:	55                   	push   %ebp
 80488e0:	89 e5                	mov    %esp,%ebp
 80488e2:	e8 17 07 00 00       	call   8048ffe <__i686.get_pc_thunk.cx>
 80488e7:	81 c1 31 77 00 00    	add    $0x7731,%ecx
 80488ed:	81 7d 08 83 00 00 00 	cmpl   $0x83,0x8(%ebp)
 80488f4:	0f 87 fd 06 00 00    	ja     8048ff7 <strerror+0x718>
 80488fa:	8b 45 08             	mov    0x8(%ebp),%eax
 80488fd:	c1 e0 02             	shl    $0x2,%eax
 8048900:	8b 84 08 f8 88 ff ff 	mov    -0x7708(%eax,%ecx,1),%eax
 8048907:	89 ca                	mov    %ecx,%edx
 8048909:	29 c2                	sub    %eax,%edx
 804890b:	89 d0                	mov    %edx,%eax
 804890d:	ff e0                	jmp    *%eax
 804890f:	90                   	nop
 8048910:	21 70 00             	and    %esi,0x0(%eax)
 8048913:	00 f8                	add    %bh,%al
 8048915:	74 00                	je     8048917 <strerror+0x38>
 8048917:	00 ed                	add    %ch,%ch
 8048919:	74 00                	je     804891b <strerror+0x3c>
 804891b:	00 e2                	add    %ah,%dl
 804891d:	74 00                	je     804891f <strerror+0x40>
 804891f:	00 d7                	add    %dl,%bh
 8048921:	74 00                	je     8048923 <strerror+0x44>
 8048923:	00 cc                	add    %cl,%ah
 8048925:	74 00                	je     8048927 <strerror+0x48>
 8048927:	00 c1                	add    %al,%cl
 8048929:	74 00                	je     804892b <strerror+0x4c>
 804892b:	00 b6 74 00 00 ab    	add    %dh,-0x54ffff8c(%esi)
 8048931:	74 00                	je     8048933 <strerror+0x54>
 8048933:	00 a0 74 00 00 95    	add    %ah,-0x6affff8c(%eax)
 8048939:	74 00                	je     804893b <strerror+0x5c>
 804893b:	00 8a 74 00 00 7f    	add    %cl,0x7f000074(%edx)
 8048941:	74 00                	je     8048943 <strerror+0x64>
 8048943:	00 74 74 00          	add    %dh,0x0(%esp,%esi,2)
 8048947:	00 69 74             	add    %ch,0x74(%ecx)
 804894a:	00 00                	add    %al,(%eax)
 804894c:	5e                   	pop    %esi
 804894d:	74 00                	je     804894f <strerror+0x70>
 804894f:	00 53 74             	add    %dl,0x74(%ebx)
 8048952:	00 00                	add    %al,(%eax)
 8048954:	48                   	dec    %eax
 8048955:	74 00                	je     8048957 <strerror+0x78>
 8048957:	00 3d 74 00 00 32    	add    %bh,0x32000074
 804895d:	74 00                	je     804895f <strerror+0x80>
 804895f:	00 27                	add    %ah,(%edi)
 8048961:	74 00                	je     8048963 <strerror+0x84>
 8048963:	00 1c 74             	add    %bl,(%esp,%esi,2)
 8048966:	00 00                	add    %al,(%eax)
 8048968:	11 74 00 00          	adc    %esi,0x0(%eax,%eax,1)
 804896c:	06                   	push   %es
 804896d:	74 00                	je     804896f <strerror+0x90>
 804896f:	00 fb                	add    %bh,%bl
 8048971:	73 00                	jae    8048973 <strerror+0x94>
 8048973:	00 f0                	add    %dh,%al
 8048975:	73 00                	jae    8048977 <strerror+0x98>
 8048977:	00 e5                	add    %ah,%ch
 8048979:	73 00                	jae    804897b <strerror+0x9c>
 804897b:	00 da                	add    %bl,%dl
 804897d:	73 00                	jae    804897f <strerror+0xa0>
 804897f:	00 cf                	add    %cl,%bh
 8048981:	73 00                	jae    8048983 <strerror+0xa4>
 8048983:	00 c4                	add    %al,%ah
 8048985:	73 00                	jae    8048987 <strerror+0xa8>
 8048987:	00 b9 73 00 00 ae    	add    %bh,-0x51ffff8d(%ecx)
 804898d:	73 00                	jae    804898f <strerror+0xb0>
 804898f:	00 a3 73 00 00 98    	add    %ah,-0x67ffff8d(%ebx)
 8048995:	73 00                	jae    8048997 <strerror+0xb8>
 8048997:	00 8d 73 00 00 14    	add    %cl,0x14000073(%ebp)
 804899d:	73 00                	jae    804899f <strerror+0xc0>
 804899f:	00 e0                	add    %ah,%al
 80489a1:	71 00                	jno    80489a3 <strerror+0xc4>
 80489a3:	00 09                	add    %cl,(%ecx)
 80489a5:	73 00                	jae    80489a7 <strerror+0xc8>
 80489a7:	00 67 71             	add    %ah,0x71(%edi)
 80489aa:	00 00                	add    %al,(%eax)
 80489ac:	3b 71 00             	cmp    0x0(%ecx),%esi
 80489af:	00 5c 71 00          	add    %bl,0x0(%ecx,%esi,2)
 80489b3:	00 21                	add    %ah,(%ecx)
 80489b5:	70 00                	jo     80489b7 <strerror+0xd8>
 80489b7:	00 82 73 00 00 77    	add    %al,0x77000073(%edx)
 80489bd:	73 00                	jae    80489bf <strerror+0xe0>
 80489bf:	00 6c 73 00          	add    %ch,0x0(%ebx,%esi,2)
 80489c3:	00 61 73             	add    %ah,0x73(%ecx)
 80489c6:	00 00                	add    %al,(%eax)
 80489c8:	56                   	push   %esi
 80489c9:	73 00                	jae    80489cb <strerror+0xec>
 80489cb:	00 4b 73             	add    %cl,0x73(%ebx)
 80489ce:	00 00                	add    %al,(%eax)
 80489d0:	40                   	inc    %eax
 80489d1:	73 00                	jae    80489d3 <strerror+0xf4>
 80489d3:	00 35 73 00 00 2a    	add    %dh,0x2a000073
 80489d9:	73 00                	jae    80489db <strerror+0xfc>
 80489db:	00 1f                	add    %bl,(%edi)
 80489dd:	73 00                	jae    80489df <strerror+0x100>
 80489df:	00 dd                	add    %bl,%ch
 80489e1:	72 00                	jb     80489e3 <strerror+0x104>
 80489e3:	00 d2                	add    %dl,%dl
 80489e5:	72 00                	jb     80489e7 <strerror+0x108>
 80489e7:	00 c7                	add    %al,%bh
 80489e9:	72 00                	jb     80489eb <strerror+0x10c>
 80489eb:	00 bc 72 00 00 b1 72 	add    %bh,0x72b10000(%edx,%esi,2)
 80489f2:	00 00                	add    %al,(%eax)
 80489f4:	a6                   	cmpsb  %es:(%edi),%ds:(%esi)
 80489f5:	72 00                	jb     80489f7 <strerror+0x118>
 80489f7:	00 21                	add    %ah,(%ecx)
 80489f9:	70 00                	jo     80489fb <strerror+0x11c>
 80489fb:	00 9b 72 00 00 7a    	add    %bl,0x7a000072(%ebx)
 8048a01:	72 00                	jb     8048a03 <strerror+0x124>
 8048a03:	00 6f 72             	add    %ch,0x72(%edi)
 8048a06:	00 00                	add    %al,(%eax)
 8048a08:	64                   	fs
 8048a09:	72 00                	jb     8048a0b <strerror+0x12c>
 8048a0b:	00 59 72             	add    %bl,0x72(%ecx)
 8048a0e:	00 00                	add    %al,(%eax)
 8048a10:	4e                   	dec    %esi
 8048a11:	72 00                	jb     8048a13 <strerror+0x134>
 8048a13:	00 43 72             	add    %al,0x72(%ebx)
 8048a16:	00 00                	add    %al,(%eax)
 8048a18:	38 72 00             	cmp    %dh,0x0(%edx)
 8048a1b:	00 2d 72 00 00 22    	add    %ch,0x22000072
 8048a21:	72 00                	jb     8048a23 <strerror+0x144>
 8048a23:	00 17                	add    %dl,(%edi)
 8048a25:	72 00                	jb     8048a27 <strerror+0x148>
 8048a27:	00 0c 72             	add    %cl,(%edx,%esi,2)
 8048a2a:	00 00                	add    %al,(%eax)
 8048a2c:	01 72 00             	add    %esi,0x0(%edx)
 8048a2f:	00 f6                	add    %dh,%dh
 8048a31:	71 00                	jno    8048a33 <strerror+0x154>
 8048a33:	00 21                	add    %ah,(%ecx)
 8048a35:	70 00                	jo     8048a37 <strerror+0x158>
 8048a37:	00 eb                	add    %ch,%bl
 8048a39:	71 00                	jno    8048a3b <strerror+0x15c>
 8048a3b:	00 d5                	add    %dl,%ch
 8048a3d:	71 00                	jno    8048a3f <strerror+0x160>
 8048a3f:	00 ca                	add    %cl,%dl
 8048a41:	71 00                	jno    8048a43 <strerror+0x164>
 8048a43:	00 bf 71 00 00 b4    	add    %bh,-0x4bffff8f(%edi)
 8048a49:	71 00                	jno    8048a4b <strerror+0x16c>
 8048a4b:	00 a9 71 00 00 9e    	add    %ch,-0x61ffff8f(%ecx)
 8048a51:	71 00                	jno    8048a53 <strerror+0x174>
 8048a53:	00 93 71 00 00 88    	add    %dl,-0x77ffff8f(%ebx)
 8048a59:	71 00                	jno    8048a5b <strerror+0x17c>
 8048a5b:	00 7d 71             	add    %bh,0x71(%ebp)
 8048a5e:	00 00                	add    %al,(%eax)
 8048a60:	72 71                	jb     8048ad3 <strerror+0x1f4>
 8048a62:	00 00                	add    %al,(%eax)
 8048a64:	51                   	push   %ecx
 8048a65:	71 00                	jno    8048a67 <strerror+0x188>
 8048a67:	00 46 71             	add    %al,0x71(%esi)
 8048a6a:	00 00                	add    %al,(%eax)
 8048a6c:	30 71 00             	xor    %dh,0x0(%ecx)
 8048a6f:	00 25 71 00 00 1a    	add    %ah,0x1a000071
 8048a75:	71 00                	jno    8048a77 <strerror+0x198>
 8048a77:	00 0f                	add    %cl,(%edi)
 8048a79:	71 00                	jno    8048a7b <strerror+0x19c>
 8048a7b:	00 04 71             	add    %al,(%ecx,%esi,2)
 8048a7e:	00 00                	add    %al,(%eax)
 8048a80:	f9                   	stc    
 8048a81:	70 00                	jo     8048a83 <strerror+0x1a4>
 8048a83:	00 ee                	add    %ch,%dh
 8048a85:	70 00                	jo     8048a87 <strerror+0x1a8>
 8048a87:	00 e3                	add    %ah,%bl
 8048a89:	70 00                	jo     8048a8b <strerror+0x1ac>
 8048a8b:	00 f3                	add    %dh,%bl
 8048a8d:	72 00                	jb     8048a8f <strerror+0x1b0>
 8048a8f:	00 d8                	add    %bl,%al
 8048a91:	70 00                	jo     8048a93 <strerror+0x1b4>
 8048a93:	00 cd                	add    %cl,%ch
 8048a95:	70 00                	jo     8048a97 <strerror+0x1b8>
 8048a97:	00 c2                	add    %al,%dl
 8048a99:	70 00                	jo     8048a9b <strerror+0x1bc>
 8048a9b:	00 b7 70 00 00 ac    	add    %dh,-0x53ffff90(%edi)
 8048aa1:	70 00                	jo     8048aa3 <strerror+0x1c4>
 8048aa3:	00 a1 70 00 00 99    	add    %ah,-0x66ffff90(%ecx)
 8048aa9:	70 00                	jo     8048aab <strerror+0x1cc>
 8048aab:	00 91 70 00 00 89    	add    %dl,-0x76ffff90(%ecx)
 8048ab1:	70 00                	jo     8048ab3 <strerror+0x1d4>
 8048ab3:	00 81 70 00 00 79    	add    %al,0x79000070(%ecx)
 8048ab9:	70 00                	jo     8048abb <strerror+0x1dc>
 8048abb:	00 71 70             	add    %dh,0x70(%ecx)
 8048abe:	00 00                	add    %al,(%eax)
 8048ac0:	69 70 00 00 61 70 00 	imul   $0x706100,0x0(%eax),%esi
 8048ac7:	00 59 70             	add    %bl,0x70(%ecx)
 8048aca:	00 00                	add    %al,(%eax)
 8048acc:	51                   	push   %ecx
 8048acd:	70 00                	jo     8048acf <strerror+0x1f0>
 8048acf:	00 49 70             	add    %cl,0x70(%ecx)
 8048ad2:	00 00                	add    %al,(%eax)
 8048ad4:	41                   	inc    %ecx
 8048ad5:	70 00                	jo     8048ad7 <strerror+0x1f8>
 8048ad7:	00 39                	add    %bh,(%ecx)
 8048ad9:	70 00                	jo     8048adb <strerror+0x1fc>
 8048adb:	00 31                	add    %dh,(%ecx)
 8048add:	70 00                	jo     8048adf <strerror+0x200>
 8048adf:	00 29                	add    %ch,(%ecx)
 8048ae1:	70 00                	jo     8048ae3 <strerror+0x204>
 8048ae3:	00 21                	add    %ah,(%ecx)
 8048ae5:	70 00                	jo     8048ae7 <strerror+0x208>
 8048ae7:	00 21                	add    %ah,(%ecx)
 8048ae9:	70 00                	jo     8048aeb <strerror+0x20c>
 8048aeb:	00 21                	add    %ah,(%ecx)
 8048aed:	70 00                	jo     8048aef <strerror+0x210>
 8048aef:	00 21                	add    %ah,(%ecx)
 8048af1:	70 00                	jo     8048af3 <strerror+0x214>
 8048af3:	00 21                	add    %ah,(%ecx)
 8048af5:	70 00                	jo     8048af7 <strerror+0x218>
 8048af7:	00 e8                	add    %ch,%al
 8048af9:	72 00                	jb     8048afb <strerror+0x21c>
 8048afb:	00 21                	add    %ah,(%ecx)
 8048afd:	70 00                	jo     8048aff <strerror+0x220>
 8048aff:	00 21                	add    %ah,(%ecx)
 8048b01:	70 00                	jo     8048b03 <strerror+0x224>
 8048b03:	00 fe                	add    %bh,%dh
 8048b05:	72 00                	jb     8048b07 <strerror+0x228>
 8048b07:	00 21                	add    %ah,(%ecx)
 8048b09:	70 00                	jo     8048b0b <strerror+0x22c>
 8048b0b:	00 21                	add    %ah,(%ecx)
 8048b0d:	70 00                	jo     8048b0f <strerror+0x230>
 8048b0f:	00 21                	add    %ah,(%ecx)
 8048b11:	70 00                	jo     8048b13 <strerror+0x234>
 8048b13:	00 21                	add    %ah,(%ecx)
 8048b15:	70 00                	jo     8048b17 <strerror+0x238>
 8048b17:	00 90 72 00 00 85    	add    %dl,-0x7affff8e(%eax)
 8048b1d:	72 00                	jb     8048b1f <strerror+0x240>
 8048b1f:	00 8d 81 f8 d5 ff    	add    %cl,-0x2a077f(%ebp)
 8048b25:	ff e9                	ljmp   *<internal disassembler error>
 8048b27:	d1 04 00             	roll   (%eax,%eax,1)
 8048b2a:	00 8d 81 07 d6 ff    	add    %cl,-0x29f87f(%ebp)
 8048b30:	ff e9                	ljmp   *<internal disassembler error>
 8048b32:	c6 04 00 00          	movb   $0x0,(%eax,%eax,1)
 8048b36:	8d 81 21 d6 ff ff    	lea    -0x29df(%ecx),%eax
 8048b3c:	e9 bb 04 00 00       	jmp    8048ffc <strerror+0x71d>
 8048b41:	8d 81 31 d6 ff ff    	lea    -0x29cf(%ecx),%eax
 8048b47:	e9 b0 04 00 00       	jmp    8048ffc <strerror+0x71d>
 8048b4c:	8d 81 49 d6 ff ff    	lea    -0x29b7(%ecx),%eax
 8048b52:	e9 a5 04 00 00       	jmp    8048ffc <strerror+0x71d>
 8048b57:	8d 81 53 d6 ff ff    	lea    -0x29ad(%ecx),%eax
 8048b5d:	e9 9a 04 00 00       	jmp    8048ffc <strerror+0x71d>
 8048b62:	8d 81 6d d6 ff ff    	lea    -0x2993(%ecx),%eax
 8048b68:	e9 8f 04 00 00       	jmp    8048ffc <strerror+0x71d>
 8048b6d:	8d 81 7f d6 ff ff    	lea    -0x2981(%ecx),%eax
 8048b73:	e9 84 04 00 00       	jmp    8048ffc <strerror+0x71d>
 8048b78:	8d 81 91 d6 ff ff    	lea    -0x296f(%ecx),%eax
 8048b7e:	e9 79 04 00 00       	jmp    8048ffc <strerror+0x71d>
 8048b83:	8d 81 a1 d6 ff ff    	lea    -0x295f(%ecx),%eax
 8048b89:	e9 6e 04 00 00       	jmp    8048ffc <strerror+0x71d>
 8048b8e:	8d 81 b0 d6 ff ff    	lea    -0x2950(%ecx),%eax
 8048b94:	e9 63 04 00 00       	jmp    8048ffc <strerror+0x71d>
 8048b99:	8d 81 d1 d6 ff ff    	lea    -0x292f(%ecx),%eax
 8048b9f:	e9 58 04 00 00       	jmp    8048ffc <strerror+0x71d>
 8048ba4:	8d 81 e1 d6 ff ff    	lea    -0x291f(%ecx),%eax
 8048baa:	e9 4d 04 00 00       	jmp    8048ffc <strerror+0x71d>
 8048baf:	8d 81 f3 d6 ff ff    	lea    -0x290d(%ecx),%eax
 8048bb5:	e9 42 04 00 00       	jmp    8048ffc <strerror+0x71d>
 8048bba:	8d 81 ff d6 ff ff    	lea    -0x2901(%ecx),%eax
 8048bc0:	e9 37 04 00 00       	jmp    8048ffc <strerror+0x71d>
 8048bc5:	8d 81 15 d7 ff ff    	lea    -0x28eb(%ecx),%eax
 8048bcb:	e9 2c 04 00 00       	jmp    8048ffc <strerror+0x71d>
 8048bd0:	8d 81 27 d7 ff ff    	lea    -0x28d9(%ecx),%eax
 8048bd6:	e9 21 04 00 00       	jmp    8048ffc <strerror+0x71d>
 8048bdb:	8d 81 33 d7 ff ff    	lea    -0x28cd(%ecx),%eax
 8048be1:	e9 16 04 00 00       	jmp    8048ffc <strerror+0x71d>
 8048be6:	8d 81 45 d7 ff ff    	lea    -0x28bb(%ecx),%eax
 8048bec:	e9 0b 04 00 00       	jmp    8048ffc <strerror+0x71d>
 8048bf1:	8d 81 54 d7 ff ff    	lea    -0x28ac(%ecx),%eax
 8048bf7:	e9 00 04 00 00       	jmp    8048ffc <strerror+0x71d>
 8048bfc:	8d 81 64 d7 ff ff    	lea    -0x289c(%ecx),%eax
 8048c02:	e9 f5 03 00 00       	jmp    8048ffc <strerror+0x71d>
 8048c07:	8d 81 73 d7 ff ff    	lea    -0x288d(%ecx),%eax
 8048c0d:	e9 ea 03 00 00       	jmp    8048ffc <strerror+0x71d>
 8048c12:	8d 81 84 d7 ff ff    	lea    -0x287c(%ecx),%eax
 8048c18:	e9 df 03 00 00       	jmp    8048ffc <strerror+0x71d>
 8048c1d:	8d 81 98 d7 ff ff    	lea    -0x2868(%ecx),%eax
 8048c23:	e9 d4 03 00 00       	jmp    8048ffc <strerror+0x71d>
 8048c28:	8d 81 ac d7 ff ff    	lea    -0x2854(%ecx),%eax
 8048c2e:	e9 c9 03 00 00       	jmp    8048ffc <strerror+0x71d>
 8048c33:	8d 81 cb d7 ff ff    	lea    -0x2835(%ecx),%eax
 8048c39:	e9 be 03 00 00       	jmp    8048ffc <strerror+0x71d>
 8048c3e:	8d 81 da d7 ff ff    	lea    -0x2826(%ecx),%eax
 8048c44:	e9 b3 03 00 00       	jmp    8048ffc <strerror+0x71d>
 8048c49:	8d 81 e9 d7 ff ff    	lea    -0x2817(%ecx),%eax
 8048c4f:	e9 a8 03 00 00       	jmp    8048ffc <strerror+0x71d>
 8048c54:	8d 81 01 d8 ff ff    	lea    -0x27ff(%ecx),%eax
 8048c5a:	e9 9d 03 00 00       	jmp    8048ffc <strerror+0x71d>
 8048c5f:	8d 81 0e d8 ff ff    	lea    -0x27f2(%ecx),%eax
 8048c65:	e9 92 03 00 00       	jmp    8048ffc <strerror+0x71d>
 8048c6a:	8d 81 24 d8 ff ff    	lea    -0x27dc(%ecx),%eax
 8048c70:	e9 87 03 00 00       	jmp    8048ffc <strerror+0x71d>
 8048c75:	8d 81 33 d8 ff ff    	lea    -0x27cd(%ecx),%eax
 8048c7b:	e9 7c 03 00 00       	jmp    8048ffc <strerror+0x71d>
 8048c80:	8d 81 40 d8 ff ff    	lea    -0x27c0(%ecx),%eax
 8048c86:	e9 71 03 00 00       	jmp    8048ffc <strerror+0x71d>
 8048c8b:	8d 81 5f d8 ff ff    	lea    -0x27a1(%ecx),%eax
 8048c91:	e9 66 03 00 00       	jmp    8048ffc <strerror+0x71d>
 8048c96:	8d 81 7d d8 ff ff    	lea    -0x2783(%ecx),%eax
 8048c9c:	e9 5b 03 00 00       	jmp    8048ffc <strerror+0x71d>
 8048ca1:	8d 81 98 d8 ff ff    	lea    -0x2768(%ecx),%eax
 8048ca7:	e9 50 03 00 00       	jmp    8048ffc <strerror+0x71d>
 8048cac:	8d 81 ab d8 ff ff    	lea    -0x2755(%ecx),%eax
 8048cb2:	e9 45 03 00 00       	jmp    8048ffc <strerror+0x71d>
 8048cb7:	8d 81 c7 d8 ff ff    	lea    -0x2739(%ecx),%eax
 8048cbd:	e9 3a 03 00 00       	jmp    8048ffc <strerror+0x71d>
 8048cc2:	8d 81 e0 d8 ff ff    	lea    -0x2720(%ecx),%eax
 8048cc8:	e9 2f 03 00 00       	jmp    8048ffc <strerror+0x71d>
 8048ccd:	8d 81 ef d8 ff ff    	lea    -0x2711(%ecx),%eax
 8048cd3:	e9 24 03 00 00       	jmp    8048ffc <strerror+0x71d>
 8048cd8:	8d 81 fd d8 ff ff    	lea    -0x2703(%ecx),%eax
 8048cde:	e9 19 03 00 00       	jmp    8048ffc <strerror+0x71d>
 8048ce3:	8d 81 16 d9 ff ff    	lea    -0x26ea(%ecx),%eax
 8048ce9:	e9 0e 03 00 00       	jmp    8048ffc <strerror+0x71d>
 8048cee:	8d 81 33 d9 ff ff    	lea    -0x26cd(%ecx),%eax
 8048cf4:	e9 03 03 00 00       	jmp    8048ffc <strerror+0x71d>
 8048cf9:	8d 81 4e d9 ff ff    	lea    -0x26b2(%ecx),%eax
 8048cff:	e9 f8 02 00 00       	jmp    8048ffc <strerror+0x71d>
 8048d04:	8d 81 5d d9 ff ff    	lea    -0x26a3(%ecx),%eax
 8048d0a:	e9 ed 02 00 00       	jmp    8048ffc <strerror+0x71d>
 8048d0f:	8d 81 71 d9 ff ff    	lea    -0x268f(%ecx),%eax
 8048d15:	e9 e2 02 00 00       	jmp    8048ffc <strerror+0x71d>
 8048d1a:	8d 81 8c d9 ff ff    	lea    -0x2674(%ecx),%eax
 8048d20:	e9 d7 02 00 00       	jmp    8048ffc <strerror+0x71d>
 8048d25:	8d 81 9f d9 ff ff    	lea    -0x2661(%ecx),%eax
 8048d2b:	e9 cc 02 00 00       	jmp    8048ffc <strerror+0x71d>
 8048d30:	8d 81 b7 d9 ff ff    	lea    -0x2649(%ecx),%eax
 8048d36:	e9 c1 02 00 00       	jmp    8048ffc <strerror+0x71d>
 8048d3b:	8d 81 cb d9 ff ff    	lea    -0x2635(%ecx),%eax
 8048d41:	e9 b6 02 00 00       	jmp    8048ffc <strerror+0x71d>
 8048d46:	8d 81 dc d9 ff ff    	lea    -0x2624(%ecx),%eax
 8048d4c:	e9 ab 02 00 00       	jmp    8048ffc <strerror+0x71d>
 8048d51:	8d 81 f7 d9 ff ff    	lea    -0x2609(%ecx),%eax
 8048d57:	e9 a0 02 00 00       	jmp    8048ffc <strerror+0x71d>
 8048d5c:	8d 81 05 da ff ff    	lea    -0x25fb(%ecx),%eax
 8048d62:	e9 95 02 00 00       	jmp    8048ffc <strerror+0x71d>
 8048d67:	8d 81 0e da ff ff    	lea    -0x25f2(%ecx),%eax
 8048d6d:	e9 8a 02 00 00       	jmp    8048ffc <strerror+0x71d>
 8048d72:	8d 81 23 da ff ff    	lea    -0x25dd(%ecx),%eax
 8048d78:	e9 7f 02 00 00       	jmp    8048ffc <strerror+0x71d>
 8048d7d:	8d 81 30 da ff ff    	lea    -0x25d0(%ecx),%eax
 8048d83:	e9 74 02 00 00       	jmp    8048ffc <strerror+0x71d>
 8048d88:	8d 81 42 da ff ff    	lea    -0x25be(%ecx),%eax
 8048d8e:	e9 69 02 00 00       	jmp    8048ffc <strerror+0x71d>
 8048d93:	8d 81 5d da ff ff    	lea    -0x25a3(%ecx),%eax
 8048d99:	e9 5e 02 00 00       	jmp    8048ffc <strerror+0x71d>
 8048d9e:	8d 81 75 da ff ff    	lea    -0x258b(%ecx),%eax
 8048da4:	e9 53 02 00 00       	jmp    8048ffc <strerror+0x71d>
 8048da9:	8d 81 89 da ff ff    	lea    -0x2577(%ecx),%eax
 8048daf:	e9 48 02 00 00       	jmp    8048ffc <strerror+0x71d>
 8048db4:	8d 81 a3 da ff ff    	lea    -0x255d(%ecx),%eax
 8048dba:	e9 3d 02 00 00       	jmp    8048ffc <strerror+0x71d>
 8048dbf:	8d 81 b1 da ff ff    	lea    -0x254f(%ecx),%eax
 8048dc5:	e9 32 02 00 00       	jmp    8048ffc <strerror+0x71d>
 8048dca:	8d 81 ca da ff ff    	lea    -0x2536(%ecx),%eax
 8048dd0:	e9 27 02 00 00       	jmp    8048ffc <strerror+0x71d>
 8048dd5:	8d 81 e8 da ff ff    	lea    -0x2518(%ecx),%eax
 8048ddb:	e9 1c 02 00 00       	jmp    8048ffc <strerror+0x71d>
 8048de0:	8d 81 fe da ff ff    	lea    -0x2502(%ecx),%eax
 8048de6:	e9 11 02 00 00       	jmp    8048ffc <strerror+0x71d>
 8048deb:	8d 81 13 db ff ff    	lea    -0x24ed(%ecx),%eax
 8048df1:	e9 06 02 00 00       	jmp    8048ffc <strerror+0x71d>
 8048df6:	8d 81 2d db ff ff    	lea    -0x24d3(%ecx),%eax
 8048dfc:	e9 fb 01 00 00       	jmp    8048ffc <strerror+0x71d>
 8048e01:	8d 81 3d db ff ff    	lea    -0x24c3(%ecx),%eax
 8048e07:	e9 f0 01 00 00       	jmp    8048ffc <strerror+0x71d>
 8048e0c:	8d 81 4b db ff ff    	lea    -0x24b5(%ecx),%eax
 8048e12:	e9 e5 01 00 00       	jmp    8048ffc <strerror+0x71d>
 8048e17:	8d 81 67 db ff ff    	lea    -0x2499(%ecx),%eax
 8048e1d:	e9 da 01 00 00       	jmp    8048ffc <strerror+0x71d>
 8048e22:	8d 81 76 db ff ff    	lea    -0x248a(%ecx),%eax
 8048e28:	e9 cf 01 00 00       	jmp    8048ffc <strerror+0x71d>
 8048e2d:	8d 81 8c db ff ff    	lea    -0x2474(%ecx),%eax
 8048e33:	e9 c4 01 00 00       	jmp    8048ffc <strerror+0x71d>
 8048e38:	8d 81 ae db ff ff    	lea    -0x2452(%ecx),%eax
 8048e3e:	e9 b9 01 00 00       	jmp    8048ffc <strerror+0x71d>
 8048e43:	8d 81 c4 db ff ff    	lea    -0x243c(%ecx),%eax
 8048e49:	e9 ae 01 00 00       	jmp    8048ffc <strerror+0x71d>
 8048e4e:	8d 81 ee db ff ff    	lea    -0x2412(%ecx),%eax
 8048e54:	e9 a3 01 00 00       	jmp    8048ffc <strerror+0x71d>
 8048e59:	8d 81 0c dc ff ff    	lea    -0x23f4(%ecx),%eax
 8048e5f:	e9 98 01 00 00       	jmp    8048ffc <strerror+0x71d>
 8048e64:	8d 81 2c dc ff ff    	lea    -0x23d4(%ecx),%eax
 8048e6a:	e9 8d 01 00 00       	jmp    8048ffc <strerror+0x71d>
 8048e6f:	8d 81 44 dc ff ff    	lea    -0x23bc(%ecx),%eax
 8048e75:	e9 82 01 00 00       	jmp    8048ffc <strerror+0x71d>
 8048e7a:	8d 81 68 dc ff ff    	lea    -0x2398(%ecx),%eax
 8048e80:	e9 77 01 00 00       	jmp    8048ffc <strerror+0x71d>
 8048e85:	8d 81 8c dc ff ff    	lea    -0x2374(%ecx),%eax
 8048e8b:	e9 6c 01 00 00       	jmp    8048ffc <strerror+0x71d>
 8048e90:	8d 81 b0 dc ff ff    	lea    -0x2350(%ecx),%eax
 8048e96:	e9 61 01 00 00       	jmp    8048ffc <strerror+0x71d>
 8048e9b:	8d 81 d8 dc ff ff    	lea    -0x2328(%ecx),%eax
 8048ea1:	e9 56 01 00 00       	jmp    8048ffc <strerror+0x71d>
 8048ea6:	8d 81 fd dc ff ff    	lea    -0x2303(%ecx),%eax
 8048eac:	e9 4b 01 00 00       	jmp    8048ffc <strerror+0x71d>
 8048eb1:	8d 81 14 dd ff ff    	lea    -0x22ec(%ecx),%eax
 8048eb7:	e9 40 01 00 00       	jmp    8048ffc <strerror+0x71d>
 8048ebc:	8d 81 36 dd ff ff    	lea    -0x22ca(%ecx),%eax
 8048ec2:	e9 35 01 00 00       	jmp    8048ffc <strerror+0x71d>
 8048ec7:	8d 81 49 dd ff ff    	lea    -0x22b7(%ecx),%eax
 8048ecd:	e9 2a 01 00 00       	jmp    8048ffc <strerror+0x71d>
 8048ed2:	8d 81 64 dd ff ff    	lea    -0x229c(%ecx),%eax
 8048ed8:	e9 1f 01 00 00       	jmp    8048ffc <strerror+0x71d>
 8048edd:	8d 81 8d dd ff ff    	lea    -0x2273(%ecx),%eax
 8048ee3:	e9 14 01 00 00       	jmp    8048ffc <strerror+0x71d>
 8048ee8:	8d 81 a1 dd ff ff    	lea    -0x225f(%ecx),%eax
 8048eee:	e9 09 01 00 00       	jmp    8048ffc <strerror+0x71d>
 8048ef3:	8d 81 bc dd ff ff    	lea    -0x2244(%ecx),%eax
 8048ef9:	e9 fe 00 00 00       	jmp    8048ffc <strerror+0x71d>
 8048efe:	8d 81 db dd ff ff    	lea    -0x2225(%ecx),%eax
 8048f04:	e9 f3 00 00 00       	jmp    8048ffc <strerror+0x71d>
 8048f09:	8d 81 f8 dd ff ff    	lea    -0x2208(%ecx),%eax
 8048f0f:	e9 e8 00 00 00       	jmp    8048ffc <strerror+0x71d>
 8048f14:	8d 81 0c de ff ff    	lea    -0x21f4(%ecx),%eax
 8048f1a:	e9 dd 00 00 00       	jmp    8048ffc <strerror+0x71d>
 8048f1f:	8d 81 2b de ff ff    	lea    -0x21d5(%ecx),%eax
 8048f25:	e9 d2 00 00 00       	jmp    8048ffc <strerror+0x71d>
 8048f2a:	8d 81 42 de ff ff    	lea    -0x21be(%ecx),%eax
 8048f30:	e9 c7 00 00 00       	jmp    8048ffc <strerror+0x71d>
 8048f35:	8d 81 59 de ff ff    	lea    -0x21a7(%ecx),%eax
 8048f3b:	e9 bc 00 00 00       	jmp    8048ffc <strerror+0x71d>
 8048f40:	8d 81 73 de ff ff    	lea    -0x218d(%ecx),%eax
 8048f46:	e9 b1 00 00 00       	jmp    8048ffc <strerror+0x71d>
 8048f4b:	8d 81 94 de ff ff    	lea    -0x216c(%ecx),%eax
 8048f51:	e9 a6 00 00 00       	jmp    8048ffc <strerror+0x71d>
 8048f56:	8d 81 c4 de ff ff    	lea    -0x213c(%ecx),%eax
 8048f5c:	e9 9b 00 00 00       	jmp    8048ffc <strerror+0x71d>
 8048f61:	8d 81 dc de ff ff    	lea    -0x2124(%ecx),%eax
 8048f67:	e9 90 00 00 00       	jmp    8048ffc <strerror+0x71d>
 8048f6c:	8d 81 fb de ff ff    	lea    -0x2105(%ecx),%eax
 8048f72:	e9 85 00 00 00       	jmp    8048ffc <strerror+0x71d>
 8048f77:	8d 81 0b df ff ff    	lea    -0x20f5(%ecx),%eax
 8048f7d:	eb 7d                	jmp    8048ffc <strerror+0x71d>
 8048f7f:	8d 81 24 df ff ff    	lea    -0x20dc(%ecx),%eax
 8048f85:	eb 75                	jmp    8048ffc <strerror+0x71d>
 8048f87:	8d 81 50 df ff ff    	lea    -0x20b0(%ecx),%eax
 8048f8d:	eb 6d                	jmp    8048ffc <strerror+0x71d>
 8048f8f:	8d 81 71 df ff ff    	lea    -0x208f(%ecx),%eax
 8048f95:	eb 65                	jmp    8048ffc <strerror+0x71d>
 8048f97:	8d 81 8a df ff ff    	lea    -0x2076(%ecx),%eax
 8048f9d:	eb 5d                	jmp    8048ffc <strerror+0x71d>
 8048f9f:	8d 81 a4 df ff ff    	lea    -0x205c(%ecx),%eax
 8048fa5:	eb 55                	jmp    8048ffc <strerror+0x71d>
 8048fa7:	8d 81 c0 df ff ff    	lea    -0x2040(%ecx),%eax
 8048fad:	eb 4d                	jmp    8048ffc <strerror+0x71d>
 8048faf:	8d 81 d8 df ff ff    	lea    -0x2028(%ecx),%eax
 8048fb5:	eb 45                	jmp    8048ffc <strerror+0x71d>
 8048fb7:	8d 81 fc df ff ff    	lea    -0x2004(%ecx),%eax
 8048fbd:	eb 3d                	jmp    8048ffc <strerror+0x71d>
 8048fbf:	8d 81 1e e0 ff ff    	lea    -0x1fe2(%ecx),%eax
 8048fc5:	eb 35                	jmp    8048ffc <strerror+0x71d>
 8048fc7:	8d 81 33 e0 ff ff    	lea    -0x1fcd(%ecx),%eax
 8048fcd:	eb 2d                	jmp    8048ffc <strerror+0x71d>
 8048fcf:	8d 81 46 e0 ff ff    	lea    -0x1fba(%ecx),%eax
 8048fd5:	eb 25                	jmp    8048ffc <strerror+0x71d>
 8048fd7:	8d 81 53 e0 ff ff    	lea    -0x1fad(%ecx),%eax
 8048fdd:	eb 1d                	jmp    8048ffc <strerror+0x71d>
 8048fdf:	8d 81 64 e0 ff ff    	lea    -0x1f9c(%ecx),%eax
 8048fe5:	eb 15                	jmp    8048ffc <strerror+0x71d>
 8048fe7:	8d 81 82 e0 ff ff    	lea    -0x1f7e(%ecx),%eax
 8048fed:	eb 0d                	jmp    8048ffc <strerror+0x71d>
 8048fef:	8d 81 9c e0 ff ff    	lea    -0x1f64(%ecx),%eax
 8048ff5:	eb 05                	jmp    8048ffc <strerror+0x71d>
 8048ff7:	b8 00 00 00 00       	mov    $0x0,%eax
 8048ffc:	5d                   	pop    %ebp
 8048ffd:	c3                   	ret    

08048ffe <__i686.get_pc_thunk.cx>:
 8048ffe:	8b 0c 24             	mov    (%esp),%ecx
 8049001:	c3                   	ret    
 8049002:	90                   	nop
 8049003:	90                   	nop

08049004 <trap>:
 8049004:	55                   	push   %ebp
 8049005:	89 e5                	mov    %esp,%ebp
 8049007:	56                   	push   %esi
 8049008:	83 ec 14             	sub    $0x14,%esp
 804900b:	e8 ee ff ff ff       	call   8048ffe <__i686.get_pc_thunk.cx>
 8049010:	81 c1 08 70 00 00    	add    $0x7008,%ecx
 8049016:	8b 45 08             	mov    0x8(%ebp),%eax
 8049019:	89 45 e8             	mov    %eax,-0x18(%ebp)
 804901c:	8b 55 0c             	mov    0xc(%ebp),%edx
 804901f:	8b 45 e8             	mov    -0x18(%ebp),%eax
 8049022:	cd 2e                	int    $0x2e
 8049024:	89 c6                	mov    %eax,%esi
 8049026:	89 75 f8             	mov    %esi,-0x8(%ebp)
 8049029:	c7 45 e8 27 00 00 00 	movl   $0x27,-0x18(%ebp)
 8049030:	8b 45 e8             	mov    -0x18(%ebp),%eax
 8049033:	cd 2e                	int    $0x2e
 8049035:	89 c2                	mov    %eax,%edx
 8049037:	8b 81 fc ff ff ff    	mov    -0x4(%ecx),%eax
 804903d:	89 10                	mov    %edx,(%eax)
 804903f:	8b 45 f8             	mov    -0x8(%ebp),%eax
 8049042:	83 c4 14             	add    $0x14,%esp
 8049045:	5e                   	pop    %esi
 8049046:	5d                   	pop    %ebp
 8049047:	c3                   	ret    

08049048 <sbrk>:
 8049048:	55                   	push   %ebp
 8049049:	89 e5                	mov    %esp,%ebp
 804904b:	56                   	push   %esi
 804904c:	53                   	push   %ebx
 804904d:	83 ec 30             	sub    $0x30,%esp
 8049050:	e8 dc f3 ff ff       	call   8048431 <__i686.get_pc_thunk.bx>
 8049055:	81 c3 c3 6f 00 00    	add    $0x6fc3,%ebx
 804905b:	8b 83 88 01 00 00    	mov    0x188(%ebx),%eax
 8049061:	85 c0                	test   %eax,%eax
 8049063:	75 51                	jne    80490b6 <sbrk+0x6e>
 8049065:	c7 45 f0 2c 00 00 00 	movl   $0x2c,-0x10(%ebp)
 804906c:	c7 45 ec 00 00 00 00 	movl   $0x0,-0x14(%ebp)
 8049073:	8b 45 f0             	mov    -0x10(%ebp),%eax
 8049076:	89 45 e4             	mov    %eax,-0x1c(%ebp)
 8049079:	8b 55 ec             	mov    -0x14(%ebp),%edx
 804907c:	8b 45 e4             	mov    -0x1c(%ebp),%eax
 804907f:	cd 2e                	int    $0x2e
 8049081:	89 c6                	mov    %eax,%esi
 8049083:	89 75 e8             	mov    %esi,-0x18(%ebp)
 8049086:	c7 45 e4 27 00 00 00 	movl   $0x27,-0x1c(%ebp)
 804908d:	8b 45 e4             	mov    -0x1c(%ebp),%eax
 8049090:	cd 2e                	int    $0x2e
 8049092:	89 c2                	mov    %eax,%edx
 8049094:	8b 83 fc ff ff ff    	mov    -0x4(%ebx),%eax
 804909a:	89 10                	mov    %edx,(%eax)
 804909c:	8b 45 e8             	mov    -0x18(%ebp),%eax
 804909f:	89 83 88 01 00 00    	mov    %eax,0x188(%ebx)
 80490a5:	8b 83 88 01 00 00    	mov    0x188(%ebx),%eax
 80490ab:	85 c0                	test   %eax,%eax
 80490ad:	79 07                	jns    80490b6 <sbrk+0x6e>
 80490af:	b8 ff ff ff ff       	mov    $0xffffffff,%eax
 80490b4:	eb 5b                	jmp    8049111 <sbrk+0xc9>
 80490b6:	8b 83 88 01 00 00    	mov    0x188(%ebx),%eax
 80490bc:	89 45 f4             	mov    %eax,-0xc(%ebp)
 80490bf:	83 7d 08 00          	cmpl   $0x0,0x8(%ebp)
 80490c3:	79 2a                	jns    80490ef <sbrk+0xa7>
 80490c5:	8b 45 08             	mov    0x8(%ebp),%eax
 80490c8:	f7 d8                	neg    %eax
 80490ca:	3b 45 f4             	cmp    -0xc(%ebp),%eax
 80490cd:	76 07                	jbe    80490d6 <sbrk+0x8e>
 80490cf:	b8 ff ff ff ff       	mov    $0xffffffff,%eax
 80490d4:	eb 3b                	jmp    8049111 <sbrk+0xc9>
 80490d6:	8b 45 08             	mov    0x8(%ebp),%eax
 80490d9:	03 45 f4             	add    -0xc(%ebp),%eax
 80490dc:	89 04 24             	mov    %eax,(%esp)
 80490df:	e8 34 00 00 00       	call   8049118 <brk>
 80490e4:	85 c0                	test   %eax,%eax
 80490e6:	79 26                	jns    804910e <sbrk+0xc6>
 80490e8:	b8 ff ff ff ff       	mov    $0xffffffff,%eax
 80490ed:	eb 22                	jmp    8049111 <sbrk+0xc9>
 80490ef:	83 7d 08 00          	cmpl   $0x0,0x8(%ebp)
 80490f3:	7e 19                	jle    804910e <sbrk+0xc6>
 80490f5:	8b 45 08             	mov    0x8(%ebp),%eax
 80490f8:	03 45 f4             	add    -0xc(%ebp),%eax
 80490fb:	89 04 24             	mov    %eax,(%esp)
 80490fe:	e8 15 00 00 00       	call   8049118 <brk>
 8049103:	85 c0                	test   %eax,%eax
 8049105:	79 07                	jns    804910e <sbrk+0xc6>
 8049107:	b8 ff ff ff ff       	mov    $0xffffffff,%eax
 804910c:	eb 03                	jmp    8049111 <sbrk+0xc9>
 804910e:	8b 45 f4             	mov    -0xc(%ebp),%eax
 8049111:	83 c4 30             	add    $0x30,%esp
 8049114:	5b                   	pop    %ebx
 8049115:	5e                   	pop    %esi
 8049116:	5d                   	pop    %ebp
 8049117:	c3                   	ret    

08049118 <brk>:
 8049118:	55                   	push   %ebp
 8049119:	89 e5                	mov    %esp,%ebp
 804911b:	56                   	push   %esi
 804911c:	83 ec 14             	sub    $0x14,%esp
 804911f:	e8 da fe ff ff       	call   8048ffe <__i686.get_pc_thunk.cx>
 8049124:	81 c1 f4 6e 00 00    	add    $0x6ef4,%ecx
 804912a:	83 7d 08 00          	cmpl   $0x0,0x8(%ebp)
 804912e:	75 07                	jne    8049137 <brk+0x1f>
 8049130:	b8 ff ff ff ff       	mov    $0xffffffff,%eax
 8049135:	eb 57                	jmp    804918e <brk+0x76>
 8049137:	8b 45 08             	mov    0x8(%ebp),%eax
 804913a:	c7 45 f4 2c 00 00 00 	movl   $0x2c,-0xc(%ebp)
 8049141:	89 45 f0             	mov    %eax,-0x10(%ebp)
 8049144:	8b 45 f4             	mov    -0xc(%ebp),%eax
 8049147:	89 45 e8             	mov    %eax,-0x18(%ebp)
 804914a:	8b 55 f0             	mov    -0x10(%ebp),%edx
 804914d:	8b 45 e8             	mov    -0x18(%ebp),%eax
 8049150:	cd 2e                	int    $0x2e
 8049152:	89 c6                	mov    %eax,%esi
 8049154:	89 75 ec             	mov    %esi,-0x14(%ebp)
 8049157:	c7 45 e8 27 00 00 00 	movl   $0x27,-0x18(%ebp)
 804915e:	8b 45 e8             	mov    -0x18(%ebp),%eax
 8049161:	cd 2e                	int    $0x2e
 8049163:	89 c2                	mov    %eax,%edx
 8049165:	8b 81 fc ff ff ff    	mov    -0x4(%ecx),%eax
 804916b:	89 10                	mov    %edx,(%eax)
 804916d:	8b 45 ec             	mov    -0x14(%ebp),%eax
 8049170:	89 45 f8             	mov    %eax,-0x8(%ebp)
 8049173:	83 7d f8 ff          	cmpl   $0xffffffff,-0x8(%ebp)
 8049177:	75 07                	jne    8049180 <brk+0x68>
 8049179:	b8 ff ff ff ff       	mov    $0xffffffff,%eax
 804917e:	eb 0e                	jmp    804918e <brk+0x76>
 8049180:	8b 45 f8             	mov    -0x8(%ebp),%eax
 8049183:	89 81 88 01 00 00    	mov    %eax,0x188(%ecx)
 8049189:	b8 00 00 00 00       	mov    $0x0,%eax
 804918e:	83 c4 14             	add    $0x14,%esp
 8049191:	5e                   	pop    %esi
 8049192:	5d                   	pop    %ebp
 8049193:	c3                   	ret    

08049194 <fork>:
 8049194:	55                   	push   %ebp
 8049195:	89 e5                	mov    %esp,%ebp
 8049197:	56                   	push   %esi
 8049198:	83 ec 14             	sub    $0x14,%esp
 804919b:	e8 5e fe ff ff       	call   8048ffe <__i686.get_pc_thunk.cx>
 80491a0:	81 c1 78 6e 00 00    	add    $0x6e78,%ecx
 80491a6:	c7 45 f8 02 00 00 00 	movl   $0x2,-0x8(%ebp)
 80491ad:	c7 45 f4 00 00 00 00 	movl   $0x0,-0xc(%ebp)
 80491b4:	8b 45 f8             	mov    -0x8(%ebp),%eax
 80491b7:	89 45 e8             	mov    %eax,-0x18(%ebp)
 80491ba:	8b 55 f4             	mov    -0xc(%ebp),%edx
 80491bd:	8b 45 e8             	mov    -0x18(%ebp),%eax
 80491c0:	cd 2e                	int    $0x2e
 80491c2:	89 c6                	mov    %eax,%esi
 80491c4:	89 75 f0             	mov    %esi,-0x10(%ebp)
 80491c7:	c7 45 e8 27 00 00 00 	movl   $0x27,-0x18(%ebp)
 80491ce:	8b 45 e8             	mov    -0x18(%ebp),%eax
 80491d1:	cd 2e                	int    $0x2e
 80491d3:	89 c2                	mov    %eax,%edx
 80491d5:	8b 81 fc ff ff ff    	mov    -0x4(%ecx),%eax
 80491db:	89 10                	mov    %edx,(%eax)
 80491dd:	8b 45 f0             	mov    -0x10(%ebp),%eax
 80491e0:	83 c4 14             	add    $0x14,%esp
 80491e3:	5e                   	pop    %esi
 80491e4:	5d                   	pop    %ebp
 80491e5:	c3                   	ret    

080491e6 <atexit>:
 80491e6:	55                   	push   %ebp
 80491e7:	89 e5                	mov    %esp,%ebp
 80491e9:	e8 10 fe ff ff       	call   8048ffe <__i686.get_pc_thunk.cx>
 80491ee:	81 c1 2a 6e 00 00    	add    $0x6e2a,%ecx
 80491f4:	8b 81 28 02 00 00    	mov    0x228(%ecx),%eax
 80491fa:	83 f8 1f             	cmp    $0x1f,%eax
 80491fd:	7f 20                	jg     804921f <atexit+0x39>
 80491ff:	8b 81 28 02 00 00    	mov    0x228(%ecx),%eax
 8049205:	8b 55 08             	mov    0x8(%ebp),%edx
 8049208:	89 94 81 a8 01 00 00 	mov    %edx,0x1a8(%ecx,%eax,4)
 804920f:	83 c0 01             	add    $0x1,%eax
 8049212:	89 81 28 02 00 00    	mov    %eax,0x228(%ecx)
 8049218:	b8 00 00 00 00       	mov    $0x0,%eax
 804921d:	eb 05                	jmp    8049224 <atexit+0x3e>
 804921f:	b8 01 00 00 00       	mov    $0x1,%eax
 8049224:	5d                   	pop    %ebp
 8049225:	c3                   	ret    

08049226 <_exit>:
 8049226:	55                   	push   %ebp
 8049227:	89 e5                	mov    %esp,%ebp
 8049229:	56                   	push   %esi
 804922a:	83 ec 14             	sub    $0x14,%esp
 804922d:	e8 cc fd ff ff       	call   8048ffe <__i686.get_pc_thunk.cx>
 8049232:	81 c1 e6 6d 00 00    	add    $0x6de6,%ecx
 8049238:	8b 45 08             	mov    0x8(%ebp),%eax
 804923b:	c7 45 f8 01 00 00 00 	movl   $0x1,-0x8(%ebp)
 8049242:	89 45 f4             	mov    %eax,-0xc(%ebp)
 8049245:	8b 45 f8             	mov    -0x8(%ebp),%eax
 8049248:	89 45 e8             	mov    %eax,-0x18(%ebp)
 804924b:	8b 55 f4             	mov    -0xc(%ebp),%edx
 804924e:	8b 45 e8             	mov    -0x18(%ebp),%eax
 8049251:	cd 2e                	int    $0x2e
 8049253:	89 c6                	mov    %eax,%esi
 8049255:	89 75 f0             	mov    %esi,-0x10(%ebp)
 8049258:	c7 45 e8 27 00 00 00 	movl   $0x27,-0x18(%ebp)
 804925f:	8b 45 e8             	mov    -0x18(%ebp),%eax
 8049262:	cd 2e                	int    $0x2e
 8049264:	89 c2                	mov    %eax,%edx
 8049266:	8b 81 fc ff ff ff    	mov    -0x4(%ecx),%eax
 804926c:	89 10                	mov    %edx,(%eax)
 804926e:	eb fe                	jmp    804926e <_exit+0x48>

08049270 <exit>:
 8049270:	55                   	push   %ebp
 8049271:	89 e5                	mov    %esp,%ebp
 8049273:	53                   	push   %ebx
 8049274:	83 ec 14             	sub    $0x14,%esp
 8049277:	e8 b5 f1 ff ff       	call   8048431 <__i686.get_pc_thunk.bx>
 804927c:	81 c3 9c 6d 00 00    	add    $0x6d9c,%ebx
 8049282:	eb 0f                	jmp    8049293 <exit+0x23>
 8049284:	8b 83 28 02 00 00    	mov    0x228(%ebx),%eax
 804928a:	8b 84 83 a8 01 00 00 	mov    0x1a8(%ebx,%eax,4),%eax
 8049291:	ff d0                	call   *%eax
 8049293:	8b 83 28 02 00 00    	mov    0x228(%ebx),%eax
 8049299:	85 c0                	test   %eax,%eax
 804929b:	0f 95 c2             	setne  %dl
 804929e:	83 e8 01             	sub    $0x1,%eax
 80492a1:	89 83 28 02 00 00    	mov    %eax,0x228(%ebx)
 80492a7:	84 d2                	test   %dl,%dl
 80492a9:	75 d9                	jne    8049284 <exit+0x14>
 80492ab:	8b 45 08             	mov    0x8(%ebp),%eax
 80492ae:	89 04 24             	mov    %eax,(%esp)
 80492b1:	e8 70 ff ff ff       	call   8049226 <_exit>
 80492b6:	8b 45 08             	mov    0x8(%ebp),%eax
 80492b9:	89 04 24             	mov    %eax,(%esp)
 80492bc:	e8 af ff ff ff       	call   8049270 <exit>
 80492c1:	83 c4 14             	add    $0x14,%esp
 80492c4:	5b                   	pop    %ebx
 80492c5:	5d                   	pop    %ebp
 80492c6:	c3                   	ret    

080492c7 <yield>:
 80492c7:	55                   	push   %ebp
 80492c8:	89 e5                	mov    %esp,%ebp
 80492ca:	53                   	push   %ebx
 80492cb:	83 ec 14             	sub    $0x14,%esp
 80492ce:	e8 5e f1 ff ff       	call   8048431 <__i686.get_pc_thunk.bx>
 80492d3:	81 c3 45 6d 00 00    	add    $0x6d45,%ebx
 80492d9:	e8 b6 fe ff ff       	call   8049194 <fork>
 80492de:	85 c0                	test   %eax,%eax
 80492e0:	74 0e                	je     80492f0 <yield+0x29>
 80492e2:	c7 04 24 00 00 00 00 	movl   $0x0,(%esp)
 80492e9:	e8 14 00 00 00       	call   8049302 <wait>
 80492ee:	eb 0c                	jmp    80492fc <yield+0x35>
 80492f0:	c7 04 24 00 00 00 00 	movl   $0x0,(%esp)
 80492f7:	e8 74 ff ff ff       	call   8049270 <exit>
 80492fc:	83 c4 14             	add    $0x14,%esp
 80492ff:	5b                   	pop    %ebx
 8049300:	5d                   	pop    %ebp
 8049301:	c3                   	ret    

08049302 <wait>:
 8049302:	55                   	push   %ebp
 8049303:	89 e5                	mov    %esp,%ebp
 8049305:	56                   	push   %esi
 8049306:	83 ec 24             	sub    $0x24,%esp
 8049309:	e8 f0 fc ff ff       	call   8048ffe <__i686.get_pc_thunk.cx>
 804930e:	81 c1 0a 6d 00 00    	add    $0x6d0a,%ecx
 8049314:	c7 45 e4 ff ff ff ff 	movl   $0xffffffff,-0x1c(%ebp)
 804931b:	c7 45 e8 00 00 00 00 	movl   $0x0,-0x18(%ebp)
 8049322:	8b 45 08             	mov    0x8(%ebp),%eax
 8049325:	89 45 ec             	mov    %eax,-0x14(%ebp)
 8049328:	8d 45 e4             	lea    -0x1c(%ebp),%eax
 804932b:	c7 45 f8 07 00 00 00 	movl   $0x7,-0x8(%ebp)
 8049332:	89 45 f4             	mov    %eax,-0xc(%ebp)
 8049335:	8b 45 f8             	mov    -0x8(%ebp),%eax
 8049338:	89 45 d8             	mov    %eax,-0x28(%ebp)
 804933b:	8b 55 f4             	mov    -0xc(%ebp),%edx
 804933e:	8b 45 d8             	mov    -0x28(%ebp),%eax
 8049341:	cd 2e                	int    $0x2e
 8049343:	89 c6                	mov    %eax,%esi
 8049345:	89 75 f0             	mov    %esi,-0x10(%ebp)
 8049348:	c7 45 d8 27 00 00 00 	movl   $0x27,-0x28(%ebp)
 804934f:	8b 45 d8             	mov    -0x28(%ebp),%eax
 8049352:	cd 2e                	int    $0x2e
 8049354:	89 c2                	mov    %eax,%edx
 8049356:	8b 81 fc ff ff ff    	mov    -0x4(%ecx),%eax
 804935c:	89 10                	mov    %edx,(%eax)
 804935e:	8b 45 f0             	mov    -0x10(%ebp),%eax
 8049361:	83 c4 24             	add    $0x24,%esp
 8049364:	5e                   	pop    %esi
 8049365:	5d                   	pop    %ebp
 8049366:	c3                   	ret    

08049367 <waitpid>:
 8049367:	55                   	push   %ebp
 8049368:	89 e5                	mov    %esp,%ebp
 804936a:	56                   	push   %esi
 804936b:	83 ec 24             	sub    $0x24,%esp
 804936e:	e8 8b fc ff ff       	call   8048ffe <__i686.get_pc_thunk.cx>
 8049373:	81 c1 a5 6c 00 00    	add    $0x6ca5,%ecx
 8049379:	8b 45 08             	mov    0x8(%ebp),%eax
 804937c:	89 45 e4             	mov    %eax,-0x1c(%ebp)
 804937f:	8b 45 0c             	mov    0xc(%ebp),%eax
 8049382:	89 45 e8             	mov    %eax,-0x18(%ebp)
 8049385:	8b 45 10             	mov    0x10(%ebp),%eax
 8049388:	89 45 ec             	mov    %eax,-0x14(%ebp)
 804938b:	8d 45 e4             	lea    -0x1c(%ebp),%eax
 804938e:	c7 45 f8 07 00 00 00 	movl   $0x7,-0x8(%ebp)
 8049395:	89 45 f4             	mov    %eax,-0xc(%ebp)
 8049398:	8b 45 f8             	mov    -0x8(%ebp),%eax
 804939b:	89 45 d8             	mov    %eax,-0x28(%ebp)
 804939e:	8b 55 f4             	mov    -0xc(%ebp),%edx
 80493a1:	8b 45 d8             	mov    -0x28(%ebp),%eax
 80493a4:	cd 2e                	int    $0x2e
 80493a6:	89 c6                	mov    %eax,%esi
 80493a8:	89 75 f0             	mov    %esi,-0x10(%ebp)
 80493ab:	c7 45 d8 27 00 00 00 	movl   $0x27,-0x28(%ebp)
 80493b2:	8b 45 d8             	mov    -0x28(%ebp),%eax
 80493b5:	cd 2e                	int    $0x2e
 80493b7:	89 c2                	mov    %eax,%edx
 80493b9:	8b 81 fc ff ff ff    	mov    -0x4(%ecx),%eax
 80493bf:	89 10                	mov    %edx,(%eax)
 80493c1:	8b 45 f0             	mov    -0x10(%ebp),%eax
 80493c4:	83 c4 24             	add    $0x24,%esp
 80493c7:	5e                   	pop    %esi
 80493c8:	5d                   	pop    %ebp
 80493c9:	c3                   	ret    

080493ca <thr_exit>:
 80493ca:	55                   	push   %ebp
 80493cb:	89 e5                	mov    %esp,%ebp
 80493cd:	56                   	push   %esi
 80493ce:	83 ec 14             	sub    $0x14,%esp
 80493d1:	e8 28 fc ff ff       	call   8048ffe <__i686.get_pc_thunk.cx>
 80493d6:	81 c1 42 6c 00 00    	add    $0x6c42,%ecx
 80493dc:	8b 45 08             	mov    0x8(%ebp),%eax
 80493df:	c7 45 f8 1f 00 00 00 	movl   $0x1f,-0x8(%ebp)
 80493e6:	89 45 f4             	mov    %eax,-0xc(%ebp)
 80493e9:	8b 45 f8             	mov    -0x8(%ebp),%eax
 80493ec:	89 45 e8             	mov    %eax,-0x18(%ebp)
 80493ef:	8b 55 f4             	mov    -0xc(%ebp),%edx
 80493f2:	8b 45 e8             	mov    -0x18(%ebp),%eax
 80493f5:	cd 2e                	int    $0x2e
 80493f7:	89 c6                	mov    %eax,%esi
 80493f9:	89 75 f0             	mov    %esi,-0x10(%ebp)
 80493fc:	c7 45 e8 27 00 00 00 	movl   $0x27,-0x18(%ebp)
 8049403:	8b 45 e8             	mov    -0x18(%ebp),%eax
 8049406:	cd 2e                	int    $0x2e
 8049408:	89 c2                	mov    %eax,%edx
 804940a:	8b 81 fc ff ff ff    	mov    -0x4(%ecx),%eax
 8049410:	89 10                	mov    %edx,(%eax)
 8049412:	83 c4 14             	add    $0x14,%esp
 8049415:	5e                   	pop    %esi
 8049416:	5d                   	pop    %ebp
 8049417:	c3                   	ret    

08049418 <getpid>:
 8049418:	55                   	push   %ebp
 8049419:	89 e5                	mov    %esp,%ebp
 804941b:	56                   	push   %esi
 804941c:	83 ec 14             	sub    $0x14,%esp
 804941f:	e8 da fb ff ff       	call   8048ffe <__i686.get_pc_thunk.cx>
 8049424:	81 c1 f4 6b 00 00    	add    $0x6bf4,%ecx
 804942a:	c7 45 f8 23 00 00 00 	movl   $0x23,-0x8(%ebp)
 8049431:	c7 45 f4 00 00 00 00 	movl   $0x0,-0xc(%ebp)
 8049438:	8b 45 f8             	mov    -0x8(%ebp),%eax
 804943b:	89 45 e8             	mov    %eax,-0x18(%ebp)
 804943e:	8b 55 f4             	mov    -0xc(%ebp),%edx
 8049441:	8b 45 e8             	mov    -0x18(%ebp),%eax
 8049444:	cd 2e                	int    $0x2e
 8049446:	89 c6                	mov    %eax,%esi
 8049448:	89 75 f0             	mov    %esi,-0x10(%ebp)
 804944b:	c7 45 e8 27 00 00 00 	movl   $0x27,-0x18(%ebp)
 8049452:	8b 45 e8             	mov    -0x18(%ebp),%eax
 8049455:	cd 2e                	int    $0x2e
 8049457:	89 c2                	mov    %eax,%edx
 8049459:	8b 81 fc ff ff ff    	mov    -0x4(%ecx),%eax
 804945f:	89 10                	mov    %edx,(%eax)
 8049461:	8b 45 f0             	mov    -0x10(%ebp),%eax
 8049464:	83 c4 14             	add    $0x14,%esp
 8049467:	5e                   	pop    %esi
 8049468:	5d                   	pop    %ebp
 8049469:	c3                   	ret    

0804946a <halt>:
 804946a:	55                   	push   %ebp
 804946b:	89 e5                	mov    %esp,%ebp
 804946d:	56                   	push   %esi
 804946e:	83 ec 14             	sub    $0x14,%esp
 8049471:	e8 88 fb ff ff       	call   8048ffe <__i686.get_pc_thunk.cx>
 8049476:	81 c1 a2 6b 00 00    	add    $0x6ba2,%ecx
 804947c:	c7 45 f8 28 00 00 00 	movl   $0x28,-0x8(%ebp)
 8049483:	c7 45 f4 00 00 00 00 	movl   $0x0,-0xc(%ebp)
 804948a:	8b 45 f8             	mov    -0x8(%ebp),%eax
 804948d:	89 45 e8             	mov    %eax,-0x18(%ebp)
 8049490:	8b 55 f4             	mov    -0xc(%ebp),%edx
 8049493:	8b 45 e8             	mov    -0x18(%ebp),%eax
 8049496:	cd 2e                	int    $0x2e
 8049498:	89 c6                	mov    %eax,%esi
 804949a:	89 75 f0             	mov    %esi,-0x10(%ebp)
 804949d:	c7 45 e8 27 00 00 00 	movl   $0x27,-0x18(%ebp)
 80494a4:	8b 45 e8             	mov    -0x18(%ebp),%eax
 80494a7:	cd 2e                	int    $0x2e
 80494a9:	89 c2                	mov    %eax,%edx
 80494ab:	8b 81 fc ff ff ff    	mov    -0x4(%ecx),%eax
 80494b1:	89 10                	mov    %edx,(%eax)
 80494b3:	8b 45 f0             	mov    -0x10(%ebp),%eax
 80494b6:	83 c4 14             	add    $0x14,%esp
 80494b9:	5e                   	pop    %esi
 80494ba:	5d                   	pop    %ebp
 80494bb:	c3                   	ret    

080494bc <mmap>:
 80494bc:	55                   	push   %ebp
 80494bd:	89 e5                	mov    %esp,%ebp
 80494bf:	56                   	push   %esi
 80494c0:	83 ec 34             	sub    $0x34,%esp
 80494c3:	e8 36 fb ff ff       	call   8048ffe <__i686.get_pc_thunk.cx>
 80494c8:	81 c1 50 6b 00 00    	add    $0x6b50,%ecx
 80494ce:	8b 45 08             	mov    0x8(%ebp),%eax
 80494d1:	89 45 d8             	mov    %eax,-0x28(%ebp)
 80494d4:	8b 45 0c             	mov    0xc(%ebp),%eax
 80494d7:	89 45 dc             	mov    %eax,-0x24(%ebp)
 80494da:	8b 45 10             	mov    0x10(%ebp),%eax
 80494dd:	89 45 e0             	mov    %eax,-0x20(%ebp)
 80494e0:	8b 45 14             	mov    0x14(%ebp),%eax
 80494e3:	89 45 e4             	mov    %eax,-0x1c(%ebp)
 80494e6:	8b 45 18             	mov    0x18(%ebp),%eax
 80494e9:	89 45 e8             	mov    %eax,-0x18(%ebp)
 80494ec:	8b 45 1c             	mov    0x1c(%ebp),%eax
 80494ef:	89 45 ec             	mov    %eax,-0x14(%ebp)
 80494f2:	8d 45 d8             	lea    -0x28(%ebp),%eax
 80494f5:	c7 45 f8 18 00 00 00 	movl   $0x18,-0x8(%ebp)
 80494fc:	89 45 f4             	mov    %eax,-0xc(%ebp)
 80494ff:	8b 45 f8             	mov    -0x8(%ebp),%eax
 8049502:	89 45 c8             	mov    %eax,-0x38(%ebp)
 8049505:	8b 55 f4             	mov    -0xc(%ebp),%edx
 8049508:	8b 45 c8             	mov    -0x38(%ebp),%eax
 804950b:	cd 2e                	int    $0x2e
 804950d:	89 c6                	mov    %eax,%esi
 804950f:	89 75 f0             	mov    %esi,-0x10(%ebp)
 8049512:	c7 45 c8 27 00 00 00 	movl   $0x27,-0x38(%ebp)
 8049519:	8b 45 c8             	mov    -0x38(%ebp),%eax
 804951c:	cd 2e                	int    $0x2e
 804951e:	89 c2                	mov    %eax,%edx
 8049520:	8b 81 fc ff ff ff    	mov    -0x4(%ecx),%eax
 8049526:	89 10                	mov    %edx,(%eax)
 8049528:	8b 45 f0             	mov    -0x10(%ebp),%eax
 804952b:	83 c4 34             	add    $0x34,%esp
 804952e:	5e                   	pop    %esi
 804952f:	5d                   	pop    %ebp
 8049530:	c3                   	ret    

08049531 <munmap>:
 8049531:	55                   	push   %ebp
 8049532:	89 e5                	mov    %esp,%ebp
 8049534:	56                   	push   %esi
 8049535:	83 ec 24             	sub    $0x24,%esp
 8049538:	e8 c1 fa ff ff       	call   8048ffe <__i686.get_pc_thunk.cx>
 804953d:	81 c1 db 6a 00 00    	add    $0x6adb,%ecx
 8049543:	8b 45 08             	mov    0x8(%ebp),%eax
 8049546:	89 45 e8             	mov    %eax,-0x18(%ebp)
 8049549:	8b 45 0c             	mov    0xc(%ebp),%eax
 804954c:	89 45 ec             	mov    %eax,-0x14(%ebp)
 804954f:	8d 45 e8             	lea    -0x18(%ebp),%eax
 8049552:	c7 45 f8 1a 00 00 00 	movl   $0x1a,-0x8(%ebp)
 8049559:	89 45 f4             	mov    %eax,-0xc(%ebp)
 804955c:	8b 45 f8             	mov    -0x8(%ebp),%eax
 804955f:	89 45 d8             	mov    %eax,-0x28(%ebp)
 8049562:	8b 55 f4             	mov    -0xc(%ebp),%edx
 8049565:	8b 45 d8             	mov    -0x28(%ebp),%eax
 8049568:	cd 2e                	int    $0x2e
 804956a:	89 c6                	mov    %eax,%esi
 804956c:	89 75 f0             	mov    %esi,-0x10(%ebp)
 804956f:	c7 45 d8 27 00 00 00 	movl   $0x27,-0x28(%ebp)
 8049576:	8b 45 d8             	mov    -0x28(%ebp),%eax
 8049579:	cd 2e                	int    $0x2e
 804957b:	89 c2                	mov    %eax,%edx
 804957d:	8b 81 fc ff ff ff    	mov    -0x4(%ecx),%eax
 8049583:	89 10                	mov    %edx,(%eax)
 8049585:	8b 45 f0             	mov    -0x10(%ebp),%eax
 8049588:	83 c4 24             	add    $0x24,%esp
 804958b:	5e                   	pop    %esi
 804958c:	5d                   	pop    %ebp
 804958d:	c3                   	ret    

0804958e <sync>:
 804958e:	55                   	push   %ebp
 804958f:	89 e5                	mov    %esp,%ebp
 8049591:	56                   	push   %esi
 8049592:	83 ec 14             	sub    $0x14,%esp
 8049595:	e8 64 fa ff ff       	call   8048ffe <__i686.get_pc_thunk.cx>
 804959a:	81 c1 7e 6a 00 00    	add    $0x6a7e,%ecx
 80495a0:	c7 45 f8 0f 00 00 00 	movl   $0xf,-0x8(%ebp)
 80495a7:	c7 45 f4 00 00 00 00 	movl   $0x0,-0xc(%ebp)
 80495ae:	8b 45 f8             	mov    -0x8(%ebp),%eax
 80495b1:	89 45 e8             	mov    %eax,-0x18(%ebp)
 80495b4:	8b 55 f4             	mov    -0xc(%ebp),%edx
 80495b7:	8b 45 e8             	mov    -0x18(%ebp),%eax
 80495ba:	cd 2e                	int    $0x2e
 80495bc:	89 c6                	mov    %eax,%esi
 80495be:	89 75 f0             	mov    %esi,-0x10(%ebp)
 80495c1:	c7 45 e8 27 00 00 00 	movl   $0x27,-0x18(%ebp)
 80495c8:	8b 45 e8             	mov    -0x18(%ebp),%eax
 80495cb:	cd 2e                	int    $0x2e
 80495cd:	89 c2                	mov    %eax,%edx
 80495cf:	8b 81 fc ff ff ff    	mov    -0x4(%ecx),%eax
 80495d5:	89 10                	mov    %edx,(%eax)
 80495d7:	83 c4 14             	add    $0x14,%esp
 80495da:	5e                   	pop    %esi
 80495db:	5d                   	pop    %ebp
 80495dc:	c3                   	ret    

080495dd <open>:
 80495dd:	55                   	push   %ebp
 80495de:	89 e5                	mov    %esp,%ebp
 80495e0:	56                   	push   %esi
 80495e1:	53                   	push   %ebx
 80495e2:	83 ec 40             	sub    $0x40,%esp
 80495e5:	e8 47 ee ff ff       	call   8048431 <__i686.get_pc_thunk.bx>
 80495ea:	81 c3 2e 6a 00 00    	add    $0x6a2e,%ebx
 80495f0:	8b 45 08             	mov    0x8(%ebp),%eax
 80495f3:	89 04 24             	mov    %eax,(%esp)
 80495f6:	e8 86 f0 ff ff       	call   8048681 <strlen>
 80495fb:	89 45 e0             	mov    %eax,-0x20(%ebp)
 80495fe:	8b 45 08             	mov    0x8(%ebp),%eax
 8049601:	89 45 dc             	mov    %eax,-0x24(%ebp)
 8049604:	8b 45 0c             	mov    0xc(%ebp),%eax
 8049607:	89 45 e4             	mov    %eax,-0x1c(%ebp)
 804960a:	8b 45 10             	mov    0x10(%ebp),%eax
 804960d:	89 45 e8             	mov    %eax,-0x18(%ebp)
 8049610:	8d 45 dc             	lea    -0x24(%ebp),%eax
 8049613:	c7 45 f4 05 00 00 00 	movl   $0x5,-0xc(%ebp)
 804961a:	89 45 f0             	mov    %eax,-0x10(%ebp)
 804961d:	8b 45 f4             	mov    -0xc(%ebp),%eax
 8049620:	89 45 d4             	mov    %eax,-0x2c(%ebp)
 8049623:	8b 55 f0             	mov    -0x10(%ebp),%edx
 8049626:	8b 45 d4             	mov    -0x2c(%ebp),%eax
 8049629:	cd 2e                	int    $0x2e
 804962b:	89 c6                	mov    %eax,%esi
 804962d:	89 75 ec             	mov    %esi,-0x14(%ebp)
 8049630:	c7 45 d4 27 00 00 00 	movl   $0x27,-0x2c(%ebp)
 8049637:	8b 45 d4             	mov    -0x2c(%ebp),%eax
 804963a:	cd 2e                	int    $0x2e
 804963c:	89 c2                	mov    %eax,%edx
 804963e:	8b 83 fc ff ff ff    	mov    -0x4(%ebx),%eax
 8049644:	89 10                	mov    %edx,(%eax)
 8049646:	8b 45 ec             	mov    -0x14(%ebp),%eax
 8049649:	83 c4 40             	add    $0x40,%esp
 804964c:	5b                   	pop    %ebx
 804964d:	5e                   	pop    %esi
 804964e:	5d                   	pop    %ebp
 804964f:	c3                   	ret    

08049650 <lseek>:
 8049650:	55                   	push   %ebp
 8049651:	89 e5                	mov    %esp,%ebp
 8049653:	56                   	push   %esi
 8049654:	83 ec 24             	sub    $0x24,%esp
 8049657:	e8 a2 f9 ff ff       	call   8048ffe <__i686.get_pc_thunk.cx>
 804965c:	81 c1 bc 69 00 00    	add    $0x69bc,%ecx
 8049662:	8b 45 08             	mov    0x8(%ebp),%eax
 8049665:	89 45 e4             	mov    %eax,-0x1c(%ebp)
 8049668:	8b 45 0c             	mov    0xc(%ebp),%eax
 804966b:	89 45 e8             	mov    %eax,-0x18(%ebp)
 804966e:	8b 45 10             	mov    0x10(%ebp),%eax
 8049671:	89 45 ec             	mov    %eax,-0x14(%ebp)
 8049674:	8d 45 e4             	lea    -0x1c(%ebp),%eax
 8049677:	c7 45 f8 0e 00 00 00 	movl   $0xe,-0x8(%ebp)
 804967e:	89 45 f4             	mov    %eax,-0xc(%ebp)
 8049681:	8b 45 f8             	mov    -0x8(%ebp),%eax
 8049684:	89 45 d8             	mov    %eax,-0x28(%ebp)
 8049687:	8b 55 f4             	mov    -0xc(%ebp),%edx
 804968a:	8b 45 d8             	mov    -0x28(%ebp),%eax
 804968d:	cd 2e                	int    $0x2e
 804968f:	89 c6                	mov    %eax,%esi
 8049691:	89 75 f0             	mov    %esi,-0x10(%ebp)
 8049694:	c7 45 d8 27 00 00 00 	movl   $0x27,-0x28(%ebp)
 804969b:	8b 45 d8             	mov    -0x28(%ebp),%eax
 804969e:	cd 2e                	int    $0x2e
 80496a0:	89 c2                	mov    %eax,%edx
 80496a2:	8b 81 fc ff ff ff    	mov    -0x4(%ecx),%eax
 80496a8:	89 10                	mov    %edx,(%eax)
 80496aa:	8b 45 f0             	mov    -0x10(%ebp),%eax
 80496ad:	83 c4 24             	add    $0x24,%esp
 80496b0:	5e                   	pop    %esi
 80496b1:	5d                   	pop    %ebp
 80496b2:	c3                   	ret    

080496b3 <read>:
 80496b3:	55                   	push   %ebp
 80496b4:	89 e5                	mov    %esp,%ebp
 80496b6:	56                   	push   %esi
 80496b7:	83 ec 24             	sub    $0x24,%esp
 80496ba:	e8 3f f9 ff ff       	call   8048ffe <__i686.get_pc_thunk.cx>
 80496bf:	81 c1 59 69 00 00    	add    $0x6959,%ecx
 80496c5:	8b 45 08             	mov    0x8(%ebp),%eax
 80496c8:	89 45 e4             	mov    %eax,-0x1c(%ebp)
 80496cb:	8b 45 0c             	mov    0xc(%ebp),%eax
 80496ce:	89 45 e8             	mov    %eax,-0x18(%ebp)
 80496d1:	8b 45 10             	mov    0x10(%ebp),%eax
 80496d4:	89 45 ec             	mov    %eax,-0x14(%ebp)
 80496d7:	8d 45 e4             	lea    -0x1c(%ebp),%eax
 80496da:	c7 45 f8 03 00 00 00 	movl   $0x3,-0x8(%ebp)
 80496e1:	89 45 f4             	mov    %eax,-0xc(%ebp)
 80496e4:	8b 45 f8             	mov    -0x8(%ebp),%eax
 80496e7:	89 45 d8             	mov    %eax,-0x28(%ebp)
 80496ea:	8b 55 f4             	mov    -0xc(%ebp),%edx
 80496ed:	8b 45 d8             	mov    -0x28(%ebp),%eax
 80496f0:	cd 2e                	int    $0x2e
 80496f2:	89 c6                	mov    %eax,%esi
 80496f4:	89 75 f0             	mov    %esi,-0x10(%ebp)
 80496f7:	c7 45 d8 27 00 00 00 	movl   $0x27,-0x28(%ebp)
 80496fe:	8b 45 d8             	mov    -0x28(%ebp),%eax
 8049701:	cd 2e                	int    $0x2e
 8049703:	89 c2                	mov    %eax,%edx
 8049705:	8b 81 fc ff ff ff    	mov    -0x4(%ecx),%eax
 804970b:	89 10                	mov    %edx,(%eax)
 804970d:	8b 45 f0             	mov    -0x10(%ebp),%eax
 8049710:	83 c4 24             	add    $0x24,%esp
 8049713:	5e                   	pop    %esi
 8049714:	5d                   	pop    %ebp
 8049715:	c3                   	ret    

08049716 <write>:
 8049716:	55                   	push   %ebp
 8049717:	89 e5                	mov    %esp,%ebp
 8049719:	56                   	push   %esi
 804971a:	83 ec 24             	sub    $0x24,%esp
 804971d:	e8 dc f8 ff ff       	call   8048ffe <__i686.get_pc_thunk.cx>
 8049722:	81 c1 f6 68 00 00    	add    $0x68f6,%ecx
 8049728:	8b 45 08             	mov    0x8(%ebp),%eax
 804972b:	89 45 e4             	mov    %eax,-0x1c(%ebp)
 804972e:	8b 45 0c             	mov    0xc(%ebp),%eax
 8049731:	89 45 e8             	mov    %eax,-0x18(%ebp)
 8049734:	8b 45 10             	mov    0x10(%ebp),%eax
 8049737:	89 45 ec             	mov    %eax,-0x14(%ebp)
 804973a:	8d 45 e4             	lea    -0x1c(%ebp),%eax
 804973d:	c7 45 f8 04 00 00 00 	movl   $0x4,-0x8(%ebp)
 8049744:	89 45 f4             	mov    %eax,-0xc(%ebp)
 8049747:	8b 45 f8             	mov    -0x8(%ebp),%eax
 804974a:	89 45 d8             	mov    %eax,-0x28(%ebp)
 804974d:	8b 55 f4             	mov    -0xc(%ebp),%edx
 8049750:	8b 45 d8             	mov    -0x28(%ebp),%eax
 8049753:	cd 2e                	int    $0x2e
 8049755:	89 c6                	mov    %eax,%esi
 8049757:	89 75 f0             	mov    %esi,-0x10(%ebp)
 804975a:	c7 45 d8 27 00 00 00 	movl   $0x27,-0x28(%ebp)
 8049761:	8b 45 d8             	mov    -0x28(%ebp),%eax
 8049764:	cd 2e                	int    $0x2e
 8049766:	89 c2                	mov    %eax,%edx
 8049768:	8b 81 fc ff ff ff    	mov    -0x4(%ecx),%eax
 804976e:	89 10                	mov    %edx,(%eax)
 8049770:	8b 45 f0             	mov    -0x10(%ebp),%eax
 8049773:	83 c4 24             	add    $0x24,%esp
 8049776:	5e                   	pop    %esi
 8049777:	5d                   	pop    %ebp
 8049778:	c3                   	ret    

08049779 <close>:
 8049779:	55                   	push   %ebp
 804977a:	89 e5                	mov    %esp,%ebp
 804977c:	56                   	push   %esi
 804977d:	83 ec 14             	sub    $0x14,%esp
 8049780:	e8 79 f8 ff ff       	call   8048ffe <__i686.get_pc_thunk.cx>
 8049785:	81 c1 93 68 00 00    	add    $0x6893,%ecx
 804978b:	8b 45 08             	mov    0x8(%ebp),%eax
 804978e:	c7 45 f8 06 00 00 00 	movl   $0x6,-0x8(%ebp)
 8049795:	89 45 f4             	mov    %eax,-0xc(%ebp)
 8049798:	8b 45 f8             	mov    -0x8(%ebp),%eax
 804979b:	89 45 e8             	mov    %eax,-0x18(%ebp)
 804979e:	8b 55 f4             	mov    -0xc(%ebp),%edx
 80497a1:	8b 45 e8             	mov    -0x18(%ebp),%eax
 80497a4:	cd 2e                	int    $0x2e
 80497a6:	89 c6                	mov    %eax,%esi
 80497a8:	89 75 f0             	mov    %esi,-0x10(%ebp)
 80497ab:	c7 45 e8 27 00 00 00 	movl   $0x27,-0x18(%ebp)
 80497b2:	8b 45 e8             	mov    -0x18(%ebp),%eax
 80497b5:	cd 2e                	int    $0x2e
 80497b7:	89 c2                	mov    %eax,%edx
 80497b9:	8b 81 fc ff ff ff    	mov    -0x4(%ecx),%eax
 80497bf:	89 10                	mov    %edx,(%eax)
 80497c1:	8b 45 f0             	mov    -0x10(%ebp),%eax
 80497c4:	83 c4 14             	add    $0x14,%esp
 80497c7:	5e                   	pop    %esi
 80497c8:	5d                   	pop    %ebp
 80497c9:	c3                   	ret    

080497ca <dup>:
 80497ca:	55                   	push   %ebp
 80497cb:	89 e5                	mov    %esp,%ebp
 80497cd:	56                   	push   %esi
 80497ce:	83 ec 14             	sub    $0x14,%esp
 80497d1:	e8 28 f8 ff ff       	call   8048ffe <__i686.get_pc_thunk.cx>
 80497d6:	81 c1 42 68 00 00    	add    $0x6842,%ecx
 80497dc:	8b 45 08             	mov    0x8(%ebp),%eax
 80497df:	c7 45 f8 11 00 00 00 	movl   $0x11,-0x8(%ebp)
 80497e6:	89 45 f4             	mov    %eax,-0xc(%ebp)
 80497e9:	8b 45 f8             	mov    -0x8(%ebp),%eax
 80497ec:	89 45 e8             	mov    %eax,-0x18(%ebp)
 80497ef:	8b 55 f4             	mov    -0xc(%ebp),%edx
 80497f2:	8b 45 e8             	mov    -0x18(%ebp),%eax
 80497f5:	cd 2e                	int    $0x2e
 80497f7:	89 c6                	mov    %eax,%esi
 80497f9:	89 75 f0             	mov    %esi,-0x10(%ebp)
 80497fc:	c7 45 e8 27 00 00 00 	movl   $0x27,-0x18(%ebp)
 8049803:	8b 45 e8             	mov    -0x18(%ebp),%eax
 8049806:	cd 2e                	int    $0x2e
 8049808:	89 c2                	mov    %eax,%edx
 804980a:	8b 81 fc ff ff ff    	mov    -0x4(%ecx),%eax
 8049810:	89 10                	mov    %edx,(%eax)
 8049812:	8b 45 f0             	mov    -0x10(%ebp),%eax
 8049815:	83 c4 14             	add    $0x14,%esp
 8049818:	5e                   	pop    %esi
 8049819:	5d                   	pop    %ebp
 804981a:	c3                   	ret    

0804981b <dup2>:
 804981b:	55                   	push   %ebp
 804981c:	89 e5                	mov    %esp,%ebp
 804981e:	56                   	push   %esi
 804981f:	83 ec 24             	sub    $0x24,%esp
 8049822:	e8 d7 f7 ff ff       	call   8048ffe <__i686.get_pc_thunk.cx>
 8049827:	81 c1 f1 67 00 00    	add    $0x67f1,%ecx
 804982d:	8b 45 08             	mov    0x8(%ebp),%eax
 8049830:	89 45 e8             	mov    %eax,-0x18(%ebp)
 8049833:	8b 45 0c             	mov    0xc(%ebp),%eax
 8049836:	89 45 ec             	mov    %eax,-0x14(%ebp)
 8049839:	8d 45 e8             	lea    -0x18(%ebp),%eax
 804983c:	c7 45 f8 2b 00 00 00 	movl   $0x2b,-0x8(%ebp)
 8049843:	89 45 f4             	mov    %eax,-0xc(%ebp)
 8049846:	8b 45 f8             	mov    -0x8(%ebp),%eax
 8049849:	89 45 d8             	mov    %eax,-0x28(%ebp)
 804984c:	8b 55 f4             	mov    -0xc(%ebp),%edx
 804984f:	8b 45 d8             	mov    -0x28(%ebp),%eax
 8049852:	cd 2e                	int    $0x2e
 8049854:	89 c6                	mov    %eax,%esi
 8049856:	89 75 f0             	mov    %esi,-0x10(%ebp)
 8049859:	c7 45 d8 27 00 00 00 	movl   $0x27,-0x28(%ebp)
 8049860:	8b 45 d8             	mov    -0x28(%ebp),%eax
 8049863:	cd 2e                	int    $0x2e
 8049865:	89 c2                	mov    %eax,%edx
 8049867:	8b 81 fc ff ff ff    	mov    -0x4(%ecx),%eax
 804986d:	89 10                	mov    %edx,(%eax)
 804986f:	8b 45 f0             	mov    -0x10(%ebp),%eax
 8049872:	83 c4 24             	add    $0x24,%esp
 8049875:	5e                   	pop    %esi
 8049876:	5d                   	pop    %ebp
 8049877:	c3                   	ret    

08049878 <mkdir>:
 8049878:	55                   	push   %ebp
 8049879:	89 e5                	mov    %esp,%ebp
 804987b:	56                   	push   %esi
 804987c:	53                   	push   %ebx
 804987d:	83 ec 40             	sub    $0x40,%esp
 8049880:	e8 ac eb ff ff       	call   8048431 <__i686.get_pc_thunk.bx>
 8049885:	81 c3 93 67 00 00    	add    $0x6793,%ebx
 804988b:	8b 45 08             	mov    0x8(%ebp),%eax
 804988e:	89 04 24             	mov    %eax,(%esp)
 8049891:	e8 eb ed ff ff       	call   8048681 <strlen>
 8049896:	89 45 e4             	mov    %eax,-0x1c(%ebp)
 8049899:	8b 45 08             	mov    0x8(%ebp),%eax
 804989c:	89 45 e0             	mov    %eax,-0x20(%ebp)
 804989f:	8b 45 0c             	mov    0xc(%ebp),%eax
 80498a2:	89 45 e8             	mov    %eax,-0x18(%ebp)
 80498a5:	8d 45 e0             	lea    -0x20(%ebp),%eax
 80498a8:	c7 45 f4 16 00 00 00 	movl   $0x16,-0xc(%ebp)
 80498af:	89 45 f0             	mov    %eax,-0x10(%ebp)
 80498b2:	8b 45 f4             	mov    -0xc(%ebp),%eax
 80498b5:	89 45 d4             	mov    %eax,-0x2c(%ebp)
 80498b8:	8b 55 f0             	mov    -0x10(%ebp),%edx
 80498bb:	8b 45 d4             	mov    -0x2c(%ebp),%eax
 80498be:	cd 2e                	int    $0x2e
 80498c0:	89 c6                	mov    %eax,%esi
 80498c2:	89 75 ec             	mov    %esi,-0x14(%ebp)
 80498c5:	c7 45 d4 27 00 00 00 	movl   $0x27,-0x2c(%ebp)
 80498cc:	8b 45 d4             	mov    -0x2c(%ebp),%eax
 80498cf:	cd 2e                	int    $0x2e
 80498d1:	89 c2                	mov    %eax,%edx
 80498d3:	8b 83 fc ff ff ff    	mov    -0x4(%ebx),%eax
 80498d9:	89 10                	mov    %edx,(%eax)
 80498db:	8b 45 ec             	mov    -0x14(%ebp),%eax
 80498de:	83 c4 40             	add    $0x40,%esp
 80498e1:	5b                   	pop    %ebx
 80498e2:	5e                   	pop    %esi
 80498e3:	5d                   	pop    %ebp
 80498e4:	c3                   	ret    

080498e5 <rmdir>:
 80498e5:	55                   	push   %ebp
 80498e6:	89 e5                	mov    %esp,%ebp
 80498e8:	56                   	push   %esi
 80498e9:	53                   	push   %ebx
 80498ea:	83 ec 40             	sub    $0x40,%esp
 80498ed:	e8 3f eb ff ff       	call   8048431 <__i686.get_pc_thunk.bx>
 80498f2:	81 c3 26 67 00 00    	add    $0x6726,%ebx
 80498f8:	8b 45 08             	mov    0x8(%ebp),%eax
 80498fb:	89 04 24             	mov    %eax,(%esp)
 80498fe:	e8 7e ed ff ff       	call   8048681 <strlen>
 8049903:	89 45 e8             	mov    %eax,-0x18(%ebp)
 8049906:	8b 45 08             	mov    0x8(%ebp),%eax
 8049909:	89 45 e4             	mov    %eax,-0x1c(%ebp)
 804990c:	8d 45 e4             	lea    -0x1c(%ebp),%eax
 804990f:	c7 45 f4 15 00 00 00 	movl   $0x15,-0xc(%ebp)
 8049916:	89 45 f0             	mov    %eax,-0x10(%ebp)
 8049919:	8b 45 f4             	mov    -0xc(%ebp),%eax
 804991c:	89 45 d4             	mov    %eax,-0x2c(%ebp)
 804991f:	8b 55 f0             	mov    -0x10(%ebp),%edx
 8049922:	8b 45 d4             	mov    -0x2c(%ebp),%eax
 8049925:	cd 2e                	int    $0x2e
 8049927:	89 c6                	mov    %eax,%esi
 8049929:	89 75 ec             	mov    %esi,-0x14(%ebp)
 804992c:	c7 45 d4 27 00 00 00 	movl   $0x27,-0x2c(%ebp)
 8049933:	8b 45 d4             	mov    -0x2c(%ebp),%eax
 8049936:	cd 2e                	int    $0x2e
 8049938:	89 c2                	mov    %eax,%edx
 804993a:	8b 83 fc ff ff ff    	mov    -0x4(%ebx),%eax
 8049940:	89 10                	mov    %edx,(%eax)
 8049942:	8b 45 ec             	mov    -0x14(%ebp),%eax
 8049945:	83 c4 40             	add    $0x40,%esp
 8049948:	5b                   	pop    %ebx
 8049949:	5e                   	pop    %esi
 804994a:	5d                   	pop    %ebp
 804994b:	c3                   	ret    

0804994c <unlink>:
 804994c:	55                   	push   %ebp
 804994d:	89 e5                	mov    %esp,%ebp
 804994f:	56                   	push   %esi
 8049950:	53                   	push   %ebx
 8049951:	83 ec 40             	sub    $0x40,%esp
 8049954:	e8 d8 ea ff ff       	call   8048431 <__i686.get_pc_thunk.bx>
 8049959:	81 c3 bf 66 00 00    	add    $0x66bf,%ebx
 804995f:	8b 45 08             	mov    0x8(%ebp),%eax
 8049962:	89 04 24             	mov    %eax,(%esp)
 8049965:	e8 17 ed ff ff       	call   8048681 <strlen>
 804996a:	89 45 e8             	mov    %eax,-0x18(%ebp)
 804996d:	8b 45 08             	mov    0x8(%ebp),%eax
 8049970:	89 45 e4             	mov    %eax,-0x1c(%ebp)
 8049973:	8d 45 e4             	lea    -0x1c(%ebp),%eax
 8049976:	c7 45 f4 09 00 00 00 	movl   $0x9,-0xc(%ebp)
 804997d:	89 45 f0             	mov    %eax,-0x10(%ebp)
 8049980:	8b 45 f4             	mov    -0xc(%ebp),%eax
 8049983:	89 45 d4             	mov    %eax,-0x2c(%ebp)
 8049986:	8b 55 f0             	mov    -0x10(%ebp),%edx
 8049989:	8b 45 d4             	mov    -0x2c(%ebp),%eax
 804998c:	cd 2e                	int    $0x2e
 804998e:	89 c6                	mov    %eax,%esi
 8049990:	89 75 ec             	mov    %esi,-0x14(%ebp)
 8049993:	c7 45 d4 27 00 00 00 	movl   $0x27,-0x2c(%ebp)
 804999a:	8b 45 d4             	mov    -0x2c(%ebp),%eax
 804999d:	cd 2e                	int    $0x2e
 804999f:	89 c2                	mov    %eax,%edx
 80499a1:	8b 83 fc ff ff ff    	mov    -0x4(%ebx),%eax
 80499a7:	89 10                	mov    %edx,(%eax)
 80499a9:	8b 45 ec             	mov    -0x14(%ebp),%eax
 80499ac:	83 c4 40             	add    $0x40,%esp
 80499af:	5b                   	pop    %ebx
 80499b0:	5e                   	pop    %esi
 80499b1:	5d                   	pop    %ebp
 80499b2:	c3                   	ret    

080499b3 <link>:
 80499b3:	55                   	push   %ebp
 80499b4:	89 e5                	mov    %esp,%ebp
 80499b6:	56                   	push   %esi
 80499b7:	53                   	push   %ebx
 80499b8:	83 ec 40             	sub    $0x40,%esp
 80499bb:	e8 71 ea ff ff       	call   8048431 <__i686.get_pc_thunk.bx>
 80499c0:	81 c3 58 66 00 00    	add    $0x6658,%ebx
 80499c6:	8b 45 08             	mov    0x8(%ebp),%eax
 80499c9:	89 04 24             	mov    %eax,(%esp)
 80499cc:	e8 b0 ec ff ff       	call   8048681 <strlen>
 80499d1:	89 45 e8             	mov    %eax,-0x18(%ebp)
 80499d4:	8b 45 08             	mov    0x8(%ebp),%eax
 80499d7:	89 45 e4             	mov    %eax,-0x1c(%ebp)
 80499da:	8b 45 0c             	mov    0xc(%ebp),%eax
 80499dd:	89 04 24             	mov    %eax,(%esp)
 80499e0:	e8 9c ec ff ff       	call   8048681 <strlen>
 80499e5:	89 45 e0             	mov    %eax,-0x20(%ebp)
 80499e8:	8b 45 0c             	mov    0xc(%ebp),%eax
 80499eb:	89 45 dc             	mov    %eax,-0x24(%ebp)
 80499ee:	8d 45 dc             	lea    -0x24(%ebp),%eax
 80499f1:	c7 45 f4 08 00 00 00 	movl   $0x8,-0xc(%ebp)
 80499f8:	89 45 f0             	mov    %eax,-0x10(%ebp)
 80499fb:	8b 45 f4             	mov    -0xc(%ebp),%eax
 80499fe:	89 45 d4             	mov    %eax,-0x2c(%ebp)
 8049a01:	8b 55 f0             	mov    -0x10(%ebp),%edx
 8049a04:	8b 45 d4             	mov    -0x2c(%ebp),%eax
 8049a07:	cd 2e                	int    $0x2e
 8049a09:	89 c6                	mov    %eax,%esi
 8049a0b:	89 75 ec             	mov    %esi,-0x14(%ebp)
 8049a0e:	c7 45 d4 27 00 00 00 	movl   $0x27,-0x2c(%ebp)
 8049a15:	8b 45 d4             	mov    -0x2c(%ebp),%eax
 8049a18:	cd 2e                	int    $0x2e
 8049a1a:	89 c2                	mov    %eax,%edx
 8049a1c:	8b 83 fc ff ff ff    	mov    -0x4(%ebx),%eax
 8049a22:	89 10                	mov    %edx,(%eax)
 8049a24:	8b 45 ec             	mov    -0x14(%ebp),%eax
 8049a27:	83 c4 40             	add    $0x40,%esp
 8049a2a:	5b                   	pop    %ebx
 8049a2b:	5e                   	pop    %esi
 8049a2c:	5d                   	pop    %ebp
 8049a2d:	c3                   	ret    

08049a2e <rename>:
 8049a2e:	55                   	push   %ebp
 8049a2f:	89 e5                	mov    %esp,%ebp
 8049a31:	56                   	push   %esi
 8049a32:	53                   	push   %ebx
 8049a33:	83 ec 40             	sub    $0x40,%esp
 8049a36:	e8 f6 e9 ff ff       	call   8048431 <__i686.get_pc_thunk.bx>
 8049a3b:	81 c3 dd 65 00 00    	add    $0x65dd,%ebx
 8049a41:	8b 45 08             	mov    0x8(%ebp),%eax
 8049a44:	89 04 24             	mov    %eax,(%esp)
 8049a47:	e8 35 ec ff ff       	call   8048681 <strlen>
 8049a4c:	89 45 e0             	mov    %eax,-0x20(%ebp)
 8049a4f:	8b 45 08             	mov    0x8(%ebp),%eax
 8049a52:	89 45 dc             	mov    %eax,-0x24(%ebp)
 8049a55:	8b 45 0c             	mov    0xc(%ebp),%eax
 8049a58:	89 04 24             	mov    %eax,(%esp)
 8049a5b:	e8 21 ec ff ff       	call   8048681 <strlen>
 8049a60:	89 45 e8             	mov    %eax,-0x18(%ebp)
 8049a63:	8b 45 0c             	mov    0xc(%ebp),%eax
 8049a66:	89 45 e4             	mov    %eax,-0x1c(%ebp)
 8049a69:	8d 45 dc             	lea    -0x24(%ebp),%eax
 8049a6c:	c7 45 f4 1b 00 00 00 	movl   $0x1b,-0xc(%ebp)
 8049a73:	89 45 f0             	mov    %eax,-0x10(%ebp)
 8049a76:	8b 45 f4             	mov    -0xc(%ebp),%eax
 8049a79:	89 45 d4             	mov    %eax,-0x2c(%ebp)
 8049a7c:	8b 55 f0             	mov    -0x10(%ebp),%edx
 8049a7f:	8b 45 d4             	mov    -0x2c(%ebp),%eax
 8049a82:	cd 2e                	int    $0x2e
 8049a84:	89 c6                	mov    %eax,%esi
 8049a86:	89 75 ec             	mov    %esi,-0x14(%ebp)
 8049a89:	c7 45 d4 27 00 00 00 	movl   $0x27,-0x2c(%ebp)
 8049a90:	8b 45 d4             	mov    -0x2c(%ebp),%eax
 8049a93:	cd 2e                	int    $0x2e
 8049a95:	89 c2                	mov    %eax,%edx
 8049a97:	8b 83 fc ff ff ff    	mov    -0x4(%ebx),%eax
 8049a9d:	89 10                	mov    %edx,(%eax)
 8049a9f:	8b 45 ec             	mov    -0x14(%ebp),%eax
 8049aa2:	83 c4 40             	add    $0x40,%esp
 8049aa5:	5b                   	pop    %ebx
 8049aa6:	5e                   	pop    %esi
 8049aa7:	5d                   	pop    %ebp
 8049aa8:	c3                   	ret    

08049aa9 <chdir>:
 8049aa9:	55                   	push   %ebp
 8049aaa:	89 e5                	mov    %esp,%ebp
 8049aac:	56                   	push   %esi
 8049aad:	53                   	push   %ebx
 8049aae:	83 ec 40             	sub    $0x40,%esp
 8049ab1:	e8 7b e9 ff ff       	call   8048431 <__i686.get_pc_thunk.bx>
 8049ab6:	81 c3 62 65 00 00    	add    $0x6562,%ebx
 8049abc:	8b 45 08             	mov    0x8(%ebp),%eax
 8049abf:	89 04 24             	mov    %eax,(%esp)
 8049ac2:	e8 ba eb ff ff       	call   8048681 <strlen>
 8049ac7:	89 45 e8             	mov    %eax,-0x18(%ebp)
 8049aca:	8b 45 08             	mov    0x8(%ebp),%eax
 8049acd:	89 45 e4             	mov    %eax,-0x1c(%ebp)
 8049ad0:	8d 45 e4             	lea    -0x1c(%ebp),%eax
 8049ad3:	c7 45 f4 0b 00 00 00 	movl   $0xb,-0xc(%ebp)
 8049ada:	89 45 f0             	mov    %eax,-0x10(%ebp)
 8049add:	8b 45 f4             	mov    -0xc(%ebp),%eax
 8049ae0:	89 45 d4             	mov    %eax,-0x2c(%ebp)
 8049ae3:	8b 55 f0             	mov    -0x10(%ebp),%edx
 8049ae6:	8b 45 d4             	mov    -0x2c(%ebp),%eax
 8049ae9:	cd 2e                	int    $0x2e
 8049aeb:	89 c6                	mov    %eax,%esi
 8049aed:	89 75 ec             	mov    %esi,-0x14(%ebp)
 8049af0:	c7 45 d4 27 00 00 00 	movl   $0x27,-0x2c(%ebp)
 8049af7:	8b 45 d4             	mov    -0x2c(%ebp),%eax
 8049afa:	cd 2e                	int    $0x2e
 8049afc:	89 c2                	mov    %eax,%edx
 8049afe:	8b 83 fc ff ff ff    	mov    -0x4(%ebx),%eax
 8049b04:	89 10                	mov    %edx,(%eax)
 8049b06:	8b 45 ec             	mov    -0x14(%ebp),%eax
 8049b09:	83 c4 40             	add    $0x40,%esp
 8049b0c:	5b                   	pop    %ebx
 8049b0d:	5e                   	pop    %esi
 8049b0e:	5d                   	pop    %ebp
 8049b0f:	c3                   	ret    

08049b10 <get_free_mem>:
 8049b10:	55                   	push   %ebp
 8049b11:	89 e5                	mov    %esp,%ebp
 8049b13:	56                   	push   %esi
 8049b14:	83 ec 14             	sub    $0x14,%esp
 8049b17:	e8 e2 f4 ff ff       	call   8048ffe <__i686.get_pc_thunk.cx>
 8049b1c:	81 c1 fc 64 00 00    	add    $0x64fc,%ecx
 8049b22:	c7 45 f8 29 00 00 00 	movl   $0x29,-0x8(%ebp)
 8049b29:	c7 45 f4 00 00 00 00 	movl   $0x0,-0xc(%ebp)
 8049b30:	8b 45 f8             	mov    -0x8(%ebp),%eax
 8049b33:	89 45 e8             	mov    %eax,-0x18(%ebp)
 8049b36:	8b 55 f4             	mov    -0xc(%ebp),%edx
 8049b39:	8b 45 e8             	mov    -0x18(%ebp),%eax
 8049b3c:	cd 2e                	int    $0x2e
 8049b3e:	89 c6                	mov    %eax,%esi
 8049b40:	89 75 f0             	mov    %esi,-0x10(%ebp)
 8049b43:	c7 45 e8 27 00 00 00 	movl   $0x27,-0x18(%ebp)
 8049b4a:	8b 45 e8             	mov    -0x18(%ebp),%eax
 8049b4d:	cd 2e                	int    $0x2e
 8049b4f:	89 c2                	mov    %eax,%edx
 8049b51:	8b 81 fc ff ff ff    	mov    -0x4(%ecx),%eax
 8049b57:	89 10                	mov    %edx,(%eax)
 8049b59:	8b 45 f0             	mov    -0x10(%ebp),%eax
 8049b5c:	83 c4 14             	add    $0x14,%esp
 8049b5f:	5e                   	pop    %esi
 8049b60:	5d                   	pop    %ebp
 8049b61:	c3                   	ret    

08049b62 <execve>:
 8049b62:	55                   	push   %ebp
 8049b63:	89 e5                	mov    %esp,%ebp
 8049b65:	56                   	push   %esi
 8049b66:	53                   	push   %ebx
 8049b67:	83 ec 50             	sub    $0x50,%esp
 8049b6a:	e8 c2 e8 ff ff       	call   8048431 <__i686.get_pc_thunk.bx>
 8049b6f:	81 c3 a9 64 00 00    	add    $0x64a9,%ebx
 8049b75:	8b 45 08             	mov    0x8(%ebp),%eax
 8049b78:	89 04 24             	mov    %eax,(%esp)
 8049b7b:	e8 01 eb ff ff       	call   8048681 <strlen>
 8049b80:	89 45 d4             	mov    %eax,-0x2c(%ebp)
 8049b83:	8b 45 08             	mov    0x8(%ebp),%eax
 8049b86:	89 45 d0             	mov    %eax,-0x30(%ebp)
 8049b89:	c7 45 f4 00 00 00 00 	movl   $0x0,-0xc(%ebp)
 8049b90:	eb 04                	jmp    8049b96 <execve+0x34>
 8049b92:	83 45 f4 01          	addl   $0x1,-0xc(%ebp)
 8049b96:	8b 45 f4             	mov    -0xc(%ebp),%eax
 8049b99:	c1 e0 02             	shl    $0x2,%eax
 8049b9c:	03 45 0c             	add    0xc(%ebp),%eax
 8049b9f:	8b 00                	mov    (%eax),%eax
 8049ba1:	85 c0                	test   %eax,%eax
 8049ba3:	75 ed                	jne    8049b92 <execve+0x30>
 8049ba5:	8b 45 f4             	mov    -0xc(%ebp),%eax
 8049ba8:	89 45 dc             	mov    %eax,-0x24(%ebp)
 8049bab:	8b 45 dc             	mov    -0x24(%ebp),%eax
 8049bae:	83 c0 01             	add    $0x1,%eax
 8049bb1:	c1 e0 03             	shl    $0x3,%eax
 8049bb4:	89 04 24             	mov    %eax,(%esp)
 8049bb7:	e8 dc 2e 00 00       	call   804ca98 <malloc>
 8049bbc:	89 45 d8             	mov    %eax,-0x28(%ebp)
 8049bbf:	c7 45 f4 00 00 00 00 	movl   $0x0,-0xc(%ebp)
 8049bc6:	eb 3e                	jmp    8049c06 <execve+0xa4>
 8049bc8:	8b 45 d8             	mov    -0x28(%ebp),%eax
 8049bcb:	8b 55 f4             	mov    -0xc(%ebp),%edx
 8049bce:	c1 e2 03             	shl    $0x3,%edx
 8049bd1:	8d 34 10             	lea    (%eax,%edx,1),%esi
 8049bd4:	8b 45 f4             	mov    -0xc(%ebp),%eax
 8049bd7:	c1 e0 02             	shl    $0x2,%eax
 8049bda:	03 45 0c             	add    0xc(%ebp),%eax
 8049bdd:	8b 00                	mov    (%eax),%eax
 8049bdf:	89 04 24             	mov    %eax,(%esp)
 8049be2:	e8 9a ea ff ff       	call   8048681 <strlen>
 8049be7:	89 46 04             	mov    %eax,0x4(%esi)
 8049bea:	8b 45 d8             	mov    -0x28(%ebp),%eax
 8049bed:	8b 55 f4             	mov    -0xc(%ebp),%edx
 8049bf0:	c1 e2 03             	shl    $0x3,%edx
 8049bf3:	01 c2                	add    %eax,%edx
 8049bf5:	8b 45 f4             	mov    -0xc(%ebp),%eax
 8049bf8:	c1 e0 02             	shl    $0x2,%eax
 8049bfb:	03 45 0c             	add    0xc(%ebp),%eax
 8049bfe:	8b 00                	mov    (%eax),%eax
 8049c00:	89 02                	mov    %eax,(%edx)
 8049c02:	83 45 f4 01          	addl   $0x1,-0xc(%ebp)
 8049c06:	8b 45 f4             	mov    -0xc(%ebp),%eax
 8049c09:	c1 e0 02             	shl    $0x2,%eax
 8049c0c:	03 45 0c             	add    0xc(%ebp),%eax
 8049c0f:	8b 00                	mov    (%eax),%eax
 8049c11:	85 c0                	test   %eax,%eax
 8049c13:	75 b3                	jne    8049bc8 <execve+0x66>
 8049c15:	8b 45 d8             	mov    -0x28(%ebp),%eax
 8049c18:	8b 55 f4             	mov    -0xc(%ebp),%edx
 8049c1b:	c1 e2 03             	shl    $0x3,%edx
 8049c1e:	01 d0                	add    %edx,%eax
 8049c20:	c7 40 04 00 00 00 00 	movl   $0x0,0x4(%eax)
 8049c27:	8b 45 d8             	mov    -0x28(%ebp),%eax
 8049c2a:	8b 55 f4             	mov    -0xc(%ebp),%edx
 8049c2d:	c1 e2 03             	shl    $0x3,%edx
 8049c30:	01 d0                	add    %edx,%eax
 8049c32:	c7 00 00 00 00 00    	movl   $0x0,(%eax)
 8049c38:	c7 45 f4 00 00 00 00 	movl   $0x0,-0xc(%ebp)
 8049c3f:	eb 04                	jmp    8049c45 <execve+0xe3>
 8049c41:	83 45 f4 01          	addl   $0x1,-0xc(%ebp)
 8049c45:	8b 45 f4             	mov    -0xc(%ebp),%eax
 8049c48:	c1 e0 02             	shl    $0x2,%eax
 8049c4b:	03 45 10             	add    0x10(%ebp),%eax
 8049c4e:	8b 00                	mov    (%eax),%eax
 8049c50:	85 c0                	test   %eax,%eax
 8049c52:	75 ed                	jne    8049c41 <execve+0xdf>
 8049c54:	8b 45 f4             	mov    -0xc(%ebp),%eax
 8049c57:	89 45 e4             	mov    %eax,-0x1c(%ebp)
 8049c5a:	8b 45 e4             	mov    -0x1c(%ebp),%eax
 8049c5d:	83 c0 01             	add    $0x1,%eax
 8049c60:	c1 e0 03             	shl    $0x3,%eax
 8049c63:	89 04 24             	mov    %eax,(%esp)
 8049c66:	e8 2d 2e 00 00       	call   804ca98 <malloc>
 8049c6b:	89 45 e0             	mov    %eax,-0x20(%ebp)
 8049c6e:	c7 45 f4 00 00 00 00 	movl   $0x0,-0xc(%ebp)
 8049c75:	eb 3e                	jmp    8049cb5 <execve+0x153>
 8049c77:	8b 45 e0             	mov    -0x20(%ebp),%eax
 8049c7a:	8b 55 f4             	mov    -0xc(%ebp),%edx
 8049c7d:	c1 e2 03             	shl    $0x3,%edx
 8049c80:	8d 34 10             	lea    (%eax,%edx,1),%esi
 8049c83:	8b 45 f4             	mov    -0xc(%ebp),%eax
 8049c86:	c1 e0 02             	shl    $0x2,%eax
 8049c89:	03 45 10             	add    0x10(%ebp),%eax
 8049c8c:	8b 00                	mov    (%eax),%eax
 8049c8e:	89 04 24             	mov    %eax,(%esp)
 8049c91:	e8 eb e9 ff ff       	call   8048681 <strlen>
 8049c96:	89 46 04             	mov    %eax,0x4(%esi)
 8049c99:	8b 45 e0             	mov    -0x20(%ebp),%eax
 8049c9c:	8b 55 f4             	mov    -0xc(%ebp),%edx
 8049c9f:	c1 e2 03             	shl    $0x3,%edx
 8049ca2:	01 c2                	add    %eax,%edx
 8049ca4:	8b 45 f4             	mov    -0xc(%ebp),%eax
 8049ca7:	c1 e0 02             	shl    $0x2,%eax
 8049caa:	03 45 10             	add    0x10(%ebp),%eax
 8049cad:	8b 00                	mov    (%eax),%eax
 8049caf:	89 02                	mov    %eax,(%edx)
 8049cb1:	83 45 f4 01          	addl   $0x1,-0xc(%ebp)
 8049cb5:	8b 45 f4             	mov    -0xc(%ebp),%eax
 8049cb8:	c1 e0 02             	shl    $0x2,%eax
 8049cbb:	03 45 10             	add    0x10(%ebp),%eax
 8049cbe:	8b 00                	mov    (%eax),%eax
 8049cc0:	85 c0                	test   %eax,%eax
 8049cc2:	75 b3                	jne    8049c77 <execve+0x115>
 8049cc4:	8b 45 e0             	mov    -0x20(%ebp),%eax
 8049cc7:	8b 55 f4             	mov    -0xc(%ebp),%edx
 8049cca:	c1 e2 03             	shl    $0x3,%edx
 8049ccd:	01 d0                	add    %edx,%eax
 8049ccf:	c7 40 04 00 00 00 00 	movl   $0x0,0x4(%eax)
 8049cd6:	8b 45 e0             	mov    -0x20(%ebp),%eax
 8049cd9:	8b 55 f4             	mov    -0xc(%ebp),%edx
 8049cdc:	c1 e2 03             	shl    $0x3,%edx
 8049cdf:	01 d0                	add    %edx,%eax
 8049ce1:	c7 00 00 00 00 00    	movl   $0x0,(%eax)
 8049ce7:	8d 45 d0             	lea    -0x30(%ebp),%eax
 8049cea:	c7 45 f0 0a 00 00 00 	movl   $0xa,-0x10(%ebp)
 8049cf1:	89 45 ec             	mov    %eax,-0x14(%ebp)
 8049cf4:	8b 45 f0             	mov    -0x10(%ebp),%eax
 8049cf7:	89 45 c4             	mov    %eax,-0x3c(%ebp)
 8049cfa:	8b 55 ec             	mov    -0x14(%ebp),%edx
 8049cfd:	8b 45 c4             	mov    -0x3c(%ebp),%eax
 8049d00:	cd 2e                	int    $0x2e
 8049d02:	89 c6                	mov    %eax,%esi
 8049d04:	89 75 e8             	mov    %esi,-0x18(%ebp)
 8049d07:	c7 45 c4 27 00 00 00 	movl   $0x27,-0x3c(%ebp)
 8049d0e:	8b 45 c4             	mov    -0x3c(%ebp),%eax
 8049d11:	cd 2e                	int    $0x2e
 8049d13:	89 c2                	mov    %eax,%edx
 8049d15:	8b 83 fc ff ff ff    	mov    -0x4(%ebx),%eax
 8049d1b:	89 10                	mov    %edx,(%eax)
 8049d1d:	8b 45 e8             	mov    -0x18(%ebp),%eax
 8049d20:	83 c4 50             	add    $0x50,%esp
 8049d23:	5b                   	pop    %ebx
 8049d24:	5e                   	pop    %esi
 8049d25:	5d                   	pop    %ebp
 8049d26:	c3                   	ret    

08049d27 <thr_set_errno>:
 8049d27:	55                   	push   %ebp
 8049d28:	89 e5                	mov    %esp,%ebp
 8049d2a:	56                   	push   %esi
 8049d2b:	83 ec 14             	sub    $0x14,%esp
 8049d2e:	e8 cb f2 ff ff       	call   8048ffe <__i686.get_pc_thunk.cx>
 8049d33:	81 c1 e5 62 00 00    	add    $0x62e5,%ecx
 8049d39:	8b 45 08             	mov    0x8(%ebp),%eax
 8049d3c:	c7 45 f8 2a 00 00 00 	movl   $0x2a,-0x8(%ebp)
 8049d43:	89 45 f4             	mov    %eax,-0xc(%ebp)
 8049d46:	8b 45 f8             	mov    -0x8(%ebp),%eax
 8049d49:	89 45 e8             	mov    %eax,-0x18(%ebp)
 8049d4c:	8b 55 f4             	mov    -0xc(%ebp),%edx
 8049d4f:	8b 45 e8             	mov    -0x18(%ebp),%eax
 8049d52:	cd 2e                	int    $0x2e
 8049d54:	89 c6                	mov    %eax,%esi
 8049d56:	89 75 f0             	mov    %esi,-0x10(%ebp)
 8049d59:	c7 45 e8 27 00 00 00 	movl   $0x27,-0x18(%ebp)
 8049d60:	8b 45 e8             	mov    -0x18(%ebp),%eax
 8049d63:	cd 2e                	int    $0x2e
 8049d65:	89 c2                	mov    %eax,%edx
 8049d67:	8b 81 fc ff ff ff    	mov    -0x4(%ecx),%eax
 8049d6d:	89 10                	mov    %edx,(%eax)
 8049d6f:	83 c4 14             	add    $0x14,%esp
 8049d72:	5e                   	pop    %esi
 8049d73:	5d                   	pop    %ebp
 8049d74:	c3                   	ret    

08049d75 <thr_errno>:
 8049d75:	55                   	push   %ebp
 8049d76:	89 e5                	mov    %esp,%ebp
 8049d78:	56                   	push   %esi
 8049d79:	83 ec 14             	sub    $0x14,%esp
 8049d7c:	e8 7d f2 ff ff       	call   8048ffe <__i686.get_pc_thunk.cx>
 8049d81:	81 c1 97 62 00 00    	add    $0x6297,%ecx
 8049d87:	c7 45 f8 27 00 00 00 	movl   $0x27,-0x8(%ebp)
 8049d8e:	c7 45 f4 00 00 00 00 	movl   $0x0,-0xc(%ebp)
 8049d95:	8b 45 f8             	mov    -0x8(%ebp),%eax
 8049d98:	89 45 e8             	mov    %eax,-0x18(%ebp)
 8049d9b:	8b 55 f4             	mov    -0xc(%ebp),%edx
 8049d9e:	8b 45 e8             	mov    -0x18(%ebp),%eax
 8049da1:	cd 2e                	int    $0x2e
 8049da3:	89 c6                	mov    %eax,%esi
 8049da5:	89 75 f0             	mov    %esi,-0x10(%ebp)
 8049da8:	c7 45 e8 27 00 00 00 	movl   $0x27,-0x18(%ebp)
 8049daf:	8b 45 e8             	mov    -0x18(%ebp),%eax
 8049db2:	cd 2e                	int    $0x2e
 8049db4:	89 c2                	mov    %eax,%edx
 8049db6:	8b 81 fc ff ff ff    	mov    -0x4(%ecx),%eax
 8049dbc:	89 10                	mov    %edx,(%eax)
 8049dbe:	8b 45 f0             	mov    -0x10(%ebp),%eax
 8049dc1:	83 c4 14             	add    $0x14,%esp
 8049dc4:	5e                   	pop    %esi
 8049dc5:	5d                   	pop    %ebp
 8049dc6:	c3                   	ret    

08049dc7 <getdents>:
 8049dc7:	55                   	push   %ebp
 8049dc8:	89 e5                	mov    %esp,%ebp
 8049dca:	56                   	push   %esi
 8049dcb:	83 ec 24             	sub    $0x24,%esp
 8049dce:	e8 2b f2 ff ff       	call   8048ffe <__i686.get_pc_thunk.cx>
 8049dd3:	81 c1 45 62 00 00    	add    $0x6245,%ecx
 8049dd9:	8b 45 08             	mov    0x8(%ebp),%eax
 8049ddc:	89 45 e4             	mov    %eax,-0x1c(%ebp)
 8049ddf:	8b 45 0c             	mov    0xc(%ebp),%eax
 8049de2:	89 45 e8             	mov    %eax,-0x18(%ebp)
 8049de5:	8b 45 10             	mov    0x10(%ebp),%eax
 8049de8:	89 45 ec             	mov    %eax,-0x14(%ebp)
 8049deb:	8d 45 e4             	lea    -0x1c(%ebp),%eax
 8049dee:	c7 45 f8 17 00 00 00 	movl   $0x17,-0x8(%ebp)
 8049df5:	89 45 f4             	mov    %eax,-0xc(%ebp)
 8049df8:	8b 45 f8             	mov    -0x8(%ebp),%eax
 8049dfb:	89 45 d8             	mov    %eax,-0x28(%ebp)
 8049dfe:	8b 55 f4             	mov    -0xc(%ebp),%edx
 8049e01:	8b 45 d8             	mov    -0x28(%ebp),%eax
 8049e04:	cd 2e                	int    $0x2e
 8049e06:	89 c6                	mov    %eax,%esi
 8049e08:	89 75 f0             	mov    %esi,-0x10(%ebp)
 8049e0b:	c7 45 d8 27 00 00 00 	movl   $0x27,-0x28(%ebp)
 8049e12:	8b 45 d8             	mov    -0x28(%ebp),%eax
 8049e15:	cd 2e                	int    $0x2e
 8049e17:	89 c2                	mov    %eax,%edx
 8049e19:	8b 81 fc ff ff ff    	mov    -0x4(%ecx),%eax
 8049e1f:	89 10                	mov    %edx,(%eax)
 8049e21:	8b 45 f0             	mov    -0x10(%ebp),%eax
 8049e24:	83 c4 24             	add    $0x24,%esp
 8049e27:	5e                   	pop    %esi
 8049e28:	5d                   	pop    %ebp
 8049e29:	c3                   	ret    

08049e2a <stat>:
 8049e2a:	55                   	push   %ebp
 8049e2b:	89 e5                	mov    %esp,%ebp
 8049e2d:	56                   	push   %esi
 8049e2e:	53                   	push   %ebx
 8049e2f:	83 ec 40             	sub    $0x40,%esp
 8049e32:	e8 fa e5 ff ff       	call   8048431 <__i686.get_pc_thunk.bx>
 8049e37:	81 c3 e1 61 00 00    	add    $0x61e1,%ebx
 8049e3d:	8b 45 08             	mov    0x8(%ebp),%eax
 8049e40:	89 04 24             	mov    %eax,(%esp)
 8049e43:	e8 39 e8 ff ff       	call   8048681 <strlen>
 8049e48:	89 45 e4             	mov    %eax,-0x1c(%ebp)
 8049e4b:	8b 45 08             	mov    0x8(%ebp),%eax
 8049e4e:	89 45 e0             	mov    %eax,-0x20(%ebp)
 8049e51:	8b 45 0c             	mov    0xc(%ebp),%eax
 8049e54:	89 45 e8             	mov    %eax,-0x18(%ebp)
 8049e57:	8d 45 e0             	lea    -0x20(%ebp),%eax
 8049e5a:	c7 45 f4 2f 00 00 00 	movl   $0x2f,-0xc(%ebp)
 8049e61:	89 45 f0             	mov    %eax,-0x10(%ebp)
 8049e64:	8b 45 f4             	mov    -0xc(%ebp),%eax
 8049e67:	89 45 d4             	mov    %eax,-0x2c(%ebp)
 8049e6a:	8b 55 f0             	mov    -0x10(%ebp),%edx
 8049e6d:	8b 45 d4             	mov    -0x2c(%ebp),%eax
 8049e70:	cd 2e                	int    $0x2e
 8049e72:	89 c6                	mov    %eax,%esi
 8049e74:	89 75 ec             	mov    %esi,-0x14(%ebp)
 8049e77:	c7 45 d4 27 00 00 00 	movl   $0x27,-0x2c(%ebp)
 8049e7e:	8b 45 d4             	mov    -0x2c(%ebp),%eax
 8049e81:	cd 2e                	int    $0x2e
 8049e83:	89 c2                	mov    %eax,%edx
 8049e85:	8b 83 fc ff ff ff    	mov    -0x4(%ebx),%eax
 8049e8b:	89 10                	mov    %edx,(%eax)
 8049e8d:	8b 45 ec             	mov    -0x14(%ebp),%eax
 8049e90:	83 c4 40             	add    $0x40,%esp
 8049e93:	5b                   	pop    %ebx
 8049e94:	5e                   	pop    %esi
 8049e95:	5d                   	pop    %ebp
 8049e96:	c3                   	ret    

08049e97 <uname>:
 8049e97:	55                   	push   %ebp
 8049e98:	89 e5                	mov    %esp,%ebp
 8049e9a:	56                   	push   %esi
 8049e9b:	83 ec 14             	sub    $0x14,%esp
 8049e9e:	e8 5b f1 ff ff       	call   8048ffe <__i686.get_pc_thunk.cx>
 8049ea3:	81 c1 75 61 00 00    	add    $0x6175,%ecx
 8049ea9:	8b 45 08             	mov    0x8(%ebp),%eax
 8049eac:	c7 45 f8 1c 00 00 00 	movl   $0x1c,-0x8(%ebp)
 8049eb3:	89 45 f4             	mov    %eax,-0xc(%ebp)
 8049eb6:	8b 45 f8             	mov    -0x8(%ebp),%eax
 8049eb9:	89 45 e8             	mov    %eax,-0x18(%ebp)
 8049ebc:	8b 55 f4             	mov    -0xc(%ebp),%edx
 8049ebf:	8b 45 e8             	mov    -0x18(%ebp),%eax
 8049ec2:	cd 2e                	int    $0x2e
 8049ec4:	89 c6                	mov    %eax,%esi
 8049ec6:	89 75 f0             	mov    %esi,-0x10(%ebp)
 8049ec9:	c7 45 e8 27 00 00 00 	movl   $0x27,-0x18(%ebp)
 8049ed0:	8b 45 e8             	mov    -0x18(%ebp),%eax
 8049ed3:	cd 2e                	int    $0x2e
 8049ed5:	89 c2                	mov    %eax,%edx
 8049ed7:	8b 81 fc ff ff ff    	mov    -0x4(%ecx),%eax
 8049edd:	89 10                	mov    %edx,(%eax)
 8049edf:	8b 45 f0             	mov    -0x10(%ebp),%eax
 8049ee2:	83 c4 14             	add    $0x14,%esp
 8049ee5:	5e                   	pop    %esi
 8049ee6:	5d                   	pop    %ebp
 8049ee7:	c3                   	ret    

08049ee8 <debug>:
 8049ee8:	55                   	push   %ebp
 8049ee9:	89 e5                	mov    %esp,%ebp
 8049eeb:	56                   	push   %esi
 8049eec:	53                   	push   %ebx
 8049eed:	83 ec 40             	sub    $0x40,%esp
 8049ef0:	e8 3c e5 ff ff       	call   8048431 <__i686.get_pc_thunk.bx>
 8049ef5:	81 c3 23 61 00 00    	add    $0x6123,%ebx
 8049efb:	8b 45 08             	mov    0x8(%ebp),%eax
 8049efe:	89 04 24             	mov    %eax,(%esp)
 8049f01:	e8 7b e7 ff ff       	call   8048681 <strlen>
 8049f06:	89 45 e8             	mov    %eax,-0x18(%ebp)
 8049f09:	8b 45 08             	mov    0x8(%ebp),%eax
 8049f0c:	89 45 e4             	mov    %eax,-0x1c(%ebp)
 8049f0f:	8d 45 e4             	lea    -0x1c(%ebp),%eax
 8049f12:	c7 45 f4 29 23 00 00 	movl   $0x2329,-0xc(%ebp)
 8049f19:	89 45 f0             	mov    %eax,-0x10(%ebp)
 8049f1c:	8b 45 f4             	mov    -0xc(%ebp),%eax
 8049f1f:	89 45 d4             	mov    %eax,-0x2c(%ebp)
 8049f22:	8b 55 f0             	mov    -0x10(%ebp),%edx
 8049f25:	8b 45 d4             	mov    -0x2c(%ebp),%eax
 8049f28:	cd 2e                	int    $0x2e
 8049f2a:	89 c6                	mov    %eax,%esi
 8049f2c:	89 75 ec             	mov    %esi,-0x14(%ebp)
 8049f2f:	c7 45 d4 27 00 00 00 	movl   $0x27,-0x2c(%ebp)
 8049f36:	8b 45 d4             	mov    -0x2c(%ebp),%eax
 8049f39:	cd 2e                	int    $0x2e
 8049f3b:	89 c2                	mov    %eax,%edx
 8049f3d:	8b 83 fc ff ff ff    	mov    -0x4(%ebx),%eax
 8049f43:	89 10                	mov    %edx,(%eax)
 8049f45:	8b 45 ec             	mov    -0x14(%ebp),%eax
 8049f48:	83 c4 40             	add    $0x40,%esp
 8049f4b:	5b                   	pop    %ebx
 8049f4c:	5e                   	pop    %esi
 8049f4d:	5d                   	pop    %ebp
 8049f4e:	c3                   	ret    
 8049f4f:	90                   	nop

08049f50 <__tolower>:
 8049f50:	55                   	push   %ebp
 8049f51:	89 e5                	mov    %esp,%ebp
 8049f53:	83 ec 04             	sub    $0x4,%esp
 8049f56:	e8 a3 f0 ff ff       	call   8048ffe <__i686.get_pc_thunk.cx>
 8049f5b:	81 c1 bd 60 00 00    	add    $0x60bd,%ecx
 8049f61:	8b 45 08             	mov    0x8(%ebp),%eax
 8049f64:	88 45 fc             	mov    %al,-0x4(%ebp)
 8049f67:	0f b6 45 fc          	movzbl -0x4(%ebp),%eax
 8049f6b:	0f b6 84 01 48 00 00 	movzbl 0x48(%ecx,%eax,1),%eax
 8049f72:	00 
 8049f73:	0f b6 c0             	movzbl %al,%eax
 8049f76:	83 e0 01             	and    $0x1,%eax
 8049f79:	84 c0                	test   %al,%al
 8049f7b:	74 04                	je     8049f81 <__tolower+0x31>
 8049f7d:	80 45 fc 20          	addb   $0x20,-0x4(%ebp)
 8049f81:	0f b6 45 fc          	movzbl -0x4(%ebp),%eax
 8049f85:	c9                   	leave  
 8049f86:	c3                   	ret    

08049f87 <__toupper>:
 8049f87:	55                   	push   %ebp
 8049f88:	89 e5                	mov    %esp,%ebp
 8049f8a:	83 ec 04             	sub    $0x4,%esp
 8049f8d:	e8 6c f0 ff ff       	call   8048ffe <__i686.get_pc_thunk.cx>
 8049f92:	81 c1 86 60 00 00    	add    $0x6086,%ecx
 8049f98:	8b 45 08             	mov    0x8(%ebp),%eax
 8049f9b:	88 45 fc             	mov    %al,-0x4(%ebp)
 8049f9e:	0f b6 45 fc          	movzbl -0x4(%ebp),%eax
 8049fa2:	0f b6 84 01 48 00 00 	movzbl 0x48(%ecx,%eax,1),%eax
 8049fa9:	00 
 8049faa:	0f b6 c0             	movzbl %al,%eax
 8049fad:	83 e0 02             	and    $0x2,%eax
 8049fb0:	85 c0                	test   %eax,%eax
 8049fb2:	74 04                	je     8049fb8 <__toupper+0x31>
 8049fb4:	80 6d fc 20          	subb   $0x20,-0x4(%ebp)
 8049fb8:	0f b6 45 fc          	movzbl -0x4(%ebp),%eax
 8049fbc:	c9                   	leave  
 8049fbd:	c3                   	ret    

08049fbe <skip_atoi>:
 8049fbe:	55                   	push   %ebp
 8049fbf:	89 e5                	mov    %esp,%ebp
 8049fc1:	53                   	push   %ebx
 8049fc2:	83 ec 10             	sub    $0x10,%esp
 8049fc5:	e8 67 e4 ff ff       	call   8048431 <__i686.get_pc_thunk.bx>
 8049fca:	81 c3 4e 60 00 00    	add    $0x604e,%ebx
 8049fd0:	c7 45 f8 00 00 00 00 	movl   $0x0,-0x8(%ebp)
 8049fd7:	eb 29                	jmp    804a002 <skip_atoi+0x44>
 8049fd9:	8b 55 f8             	mov    -0x8(%ebp),%edx
 8049fdc:	89 d0                	mov    %edx,%eax
 8049fde:	c1 e0 02             	shl    $0x2,%eax
 8049fe1:	01 d0                	add    %edx,%eax
 8049fe3:	01 c0                	add    %eax,%eax
 8049fe5:	89 c1                	mov    %eax,%ecx
 8049fe7:	8b 45 08             	mov    0x8(%ebp),%eax
 8049fea:	8b 00                	mov    (%eax),%eax
 8049fec:	0f b6 10             	movzbl (%eax),%edx
 8049fef:	0f be d2             	movsbl %dl,%edx
 8049ff2:	01 ca                	add    %ecx,%edx
 8049ff4:	83 ea 30             	sub    $0x30,%edx
 8049ff7:	89 55 f8             	mov    %edx,-0x8(%ebp)
 8049ffa:	8d 50 01             	lea    0x1(%eax),%edx
 8049ffd:	8b 45 08             	mov    0x8(%ebp),%eax
 804a000:	89 10                	mov    %edx,(%eax)
 804a002:	8b 45 08             	mov    0x8(%ebp),%eax
 804a005:	8b 00                	mov    (%eax),%eax
 804a007:	0f b6 00             	movzbl (%eax),%eax
 804a00a:	0f b6 c0             	movzbl %al,%eax
 804a00d:	0f b6 84 03 48 00 00 	movzbl 0x48(%ebx,%eax,1),%eax
 804a014:	00 
 804a015:	0f b6 c0             	movzbl %al,%eax
 804a018:	83 e0 04             	and    $0x4,%eax
 804a01b:	85 c0                	test   %eax,%eax
 804a01d:	75 ba                	jne    8049fd9 <skip_atoi+0x1b>
 804a01f:	8b 45 f8             	mov    -0x8(%ebp),%eax
 804a022:	83 c4 10             	add    $0x10,%esp
 804a025:	5b                   	pop    %ebx
 804a026:	5d                   	pop    %ebp
 804a027:	c3                   	ret    

0804a028 <number>:
 804a028:	55                   	push   %ebp
 804a029:	89 e5                	mov    %esp,%ebp
 804a02b:	57                   	push   %edi
 804a02c:	56                   	push   %esi
 804a02d:	53                   	push   %ebx
 804a02e:	81 ec dc 00 00 00    	sub    $0xdc,%esp
 804a034:	e8 f8 e3 ff ff       	call   8048431 <__i686.get_pc_thunk.bx>
 804a039:	81 c3 df 5f 00 00    	add    $0x5fdf,%ebx
 804a03f:	8b 45 10             	mov    0x10(%ebp),%eax
 804a042:	89 85 30 ff ff ff    	mov    %eax,-0xd0(%ebp)
 804a048:	8b 45 14             	mov    0x14(%ebp),%eax
 804a04b:	89 85 34 ff ff ff    	mov    %eax,-0xcc(%ebp)
 804a051:	c7 85 65 ff ff ff 30 	movl   $0x33323130,-0x9b(%ebp)
 804a058:	31 32 33 
 804a05b:	c7 85 69 ff ff ff 34 	movl   $0x37363534,-0x97(%ebp)
 804a062:	35 36 37 
 804a065:	c7 85 6d ff ff ff 38 	movl   $0x62613938,-0x93(%ebp)
 804a06c:	39 61 62 
 804a06f:	c7 85 71 ff ff ff 63 	movl   $0x66656463,-0x8f(%ebp)
 804a076:	64 65 66 
 804a079:	c7 85 75 ff ff ff 67 	movl   $0x6a696867,-0x8b(%ebp)
 804a080:	68 69 6a 
 804a083:	c7 85 79 ff ff ff 6b 	movl   $0x6e6d6c6b,-0x87(%ebp)
 804a08a:	6c 6d 6e 
 804a08d:	c7 85 7d ff ff ff 6f 	movl   $0x7271706f,-0x83(%ebp)
 804a094:	70 71 72 
 804a097:	c7 45 81 73 74 75 76 	movl   $0x76757473,-0x7f(%ebp)
 804a09e:	c7 45 85 77 78 79 7a 	movl   $0x7a797877,-0x7b(%ebp)
 804a0a5:	c6 45 89 00          	movb   $0x0,-0x77(%ebp)
 804a0a9:	c7 85 40 ff ff ff 30 	movl   $0x33323130,-0xc0(%ebp)
 804a0b0:	31 32 33 
 804a0b3:	c7 85 44 ff ff ff 34 	movl   $0x37363534,-0xbc(%ebp)
 804a0ba:	35 36 37 
 804a0bd:	c7 85 48 ff ff ff 38 	movl   $0x42413938,-0xb8(%ebp)
 804a0c4:	39 41 42 
 804a0c7:	c7 85 4c ff ff ff 43 	movl   $0x46454443,-0xb4(%ebp)
 804a0ce:	44 45 46 
 804a0d1:	c7 85 50 ff ff ff 47 	movl   $0x4a494847,-0xb0(%ebp)
 804a0d8:	48 49 4a 
 804a0db:	c7 85 54 ff ff ff 4b 	movl   $0x4e4d4c4b,-0xac(%ebp)
 804a0e2:	4c 4d 4e 
 804a0e5:	c7 85 58 ff ff ff 4f 	movl   $0x5251504f,-0xa8(%ebp)
 804a0ec:	50 51 52 
 804a0ef:	c7 85 5c ff ff ff 53 	movl   $0x56555453,-0xa4(%ebp)
 804a0f6:	54 55 56 
 804a0f9:	c7 85 60 ff ff ff 57 	movl   $0x5a595857,-0xa0(%ebp)
 804a100:	58 59 5a 
 804a103:	c6 85 64 ff ff ff 00 	movb   $0x0,-0x9c(%ebp)
 804a10a:	8b 45 24             	mov    0x24(%ebp),%eax
 804a10d:	83 e0 40             	and    $0x40,%eax
 804a110:	85 c0                	test   %eax,%eax
 804a112:	74 08                	je     804a11c <number+0xf4>
 804a114:	8d 85 40 ff ff ff    	lea    -0xc0(%ebp),%eax
 804a11a:	eb 06                	jmp    804a122 <number+0xfa>
 804a11c:	8d 85 65 ff ff ff    	lea    -0x9b(%ebp),%eax
 804a122:	89 45 d4             	mov    %eax,-0x2c(%ebp)
 804a125:	8b 45 24             	mov    0x24(%ebp),%eax
 804a128:	83 e0 10             	and    $0x10,%eax
 804a12b:	85 c0                	test   %eax,%eax
 804a12d:	74 04                	je     804a133 <number+0x10b>
 804a12f:	83 65 24 fe          	andl   $0xfffffffe,0x24(%ebp)
 804a133:	83 7d 18 01          	cmpl   $0x1,0x18(%ebp)
 804a137:	7e 06                	jle    804a13f <number+0x117>
 804a139:	83 7d 18 24          	cmpl   $0x24,0x18(%ebp)
 804a13d:	7e 08                	jle    804a147 <number+0x11f>
 804a13f:	8b 45 08             	mov    0x8(%ebp),%eax
 804a142:	e9 99 02 00 00       	jmp    804a3e0 <number+0x3b8>
 804a147:	8b 45 24             	mov    0x24(%ebp),%eax
 804a14a:	83 e0 01             	and    $0x1,%eax
 804a14d:	84 c0                	test   %al,%al
 804a14f:	74 07                	je     804a158 <number+0x130>
 804a151:	b8 30 00 00 00       	mov    $0x30,%eax
 804a156:	eb 05                	jmp    804a15d <number+0x135>
 804a158:	b8 20 00 00 00       	mov    $0x20,%eax
 804a15d:	88 45 d3             	mov    %al,-0x2d(%ebp)
 804a160:	c6 45 e7 00          	movb   $0x0,-0x19(%ebp)
 804a164:	8b 45 24             	mov    0x24(%ebp),%eax
 804a167:	83 e0 02             	and    $0x2,%eax
 804a16a:	85 c0                	test   %eax,%eax
 804a16c:	74 4c                	je     804a1ba <number+0x192>
 804a16e:	83 bd 34 ff ff ff 00 	cmpl   $0x0,-0xcc(%ebp)
 804a175:	79 1d                	jns    804a194 <number+0x16c>
 804a177:	c6 45 e7 2d          	movb   $0x2d,-0x19(%ebp)
 804a17b:	f7 9d 30 ff ff ff    	negl   -0xd0(%ebp)
 804a181:	83 95 34 ff ff ff 00 	adcl   $0x0,-0xcc(%ebp)
 804a188:	f7 9d 34 ff ff ff    	negl   -0xcc(%ebp)
 804a18e:	83 6d 1c 01          	subl   $0x1,0x1c(%ebp)
 804a192:	eb 26                	jmp    804a1ba <number+0x192>
 804a194:	8b 45 24             	mov    0x24(%ebp),%eax
 804a197:	83 e0 04             	and    $0x4,%eax
 804a19a:	85 c0                	test   %eax,%eax
 804a19c:	74 0a                	je     804a1a8 <number+0x180>
 804a19e:	c6 45 e7 2b          	movb   $0x2b,-0x19(%ebp)
 804a1a2:	83 6d 1c 01          	subl   $0x1,0x1c(%ebp)
 804a1a6:	eb 12                	jmp    804a1ba <number+0x192>
 804a1a8:	8b 45 24             	mov    0x24(%ebp),%eax
 804a1ab:	83 e0 08             	and    $0x8,%eax
 804a1ae:	85 c0                	test   %eax,%eax
 804a1b0:	74 08                	je     804a1ba <number+0x192>
 804a1b2:	c6 45 e7 20          	movb   $0x20,-0x19(%ebp)
 804a1b6:	83 6d 1c 01          	subl   $0x1,0x1c(%ebp)
 804a1ba:	8b 45 24             	mov    0x24(%ebp),%eax
 804a1bd:	83 e0 20             	and    $0x20,%eax
 804a1c0:	85 c0                	test   %eax,%eax
 804a1c2:	74 16                	je     804a1da <number+0x1b2>
 804a1c4:	83 7d 18 10          	cmpl   $0x10,0x18(%ebp)
 804a1c8:	75 06                	jne    804a1d0 <number+0x1a8>
 804a1ca:	83 6d 1c 02          	subl   $0x2,0x1c(%ebp)
 804a1ce:	eb 0a                	jmp    804a1da <number+0x1b2>
 804a1d0:	83 7d 18 08          	cmpl   $0x8,0x18(%ebp)
 804a1d4:	75 04                	jne    804a1da <number+0x1b2>
 804a1d6:	83 6d 1c 01          	subl   $0x1,0x1c(%ebp)
 804a1da:	c7 45 e0 00 00 00 00 	movl   $0x0,-0x20(%ebp)
 804a1e1:	8b 85 30 ff ff ff    	mov    -0xd0(%ebp),%eax
 804a1e7:	8b 95 34 ff ff ff    	mov    -0xcc(%ebp),%edx
 804a1ed:	09 d0                	or     %edx,%eax
 804a1ef:	85 c0                	test   %eax,%eax
 804a1f1:	75 12                	jne    804a205 <number+0x1dd>
 804a1f3:	8d 45 8a             	lea    -0x76(%ebp),%eax
 804a1f6:	03 45 e0             	add    -0x20(%ebp),%eax
 804a1f9:	c6 00 30             	movb   $0x30,(%eax)
 804a1fc:	83 45 e0 01          	addl   $0x1,-0x20(%ebp)
 804a200:	e9 82 00 00 00       	jmp    804a287 <number+0x25f>
 804a205:	8b 85 30 ff ff ff    	mov    -0xd0(%ebp),%eax
 804a20b:	8b 95 34 ff ff ff    	mov    -0xcc(%ebp),%edx
 804a211:	89 45 d8             	mov    %eax,-0x28(%ebp)
 804a214:	89 55 dc             	mov    %edx,-0x24(%ebp)
 804a217:	8b 45 18             	mov    0x18(%ebp),%eax
 804a21a:	89 45 cc             	mov    %eax,-0x34(%ebp)
 804a21d:	eb 5c                	jmp    804a27b <number+0x253>
 804a21f:	8b 75 cc             	mov    -0x34(%ebp),%esi
 804a222:	bf 00 00 00 00       	mov    $0x0,%edi
 804a227:	8b 45 d8             	mov    -0x28(%ebp),%eax
 804a22a:	8b 55 dc             	mov    -0x24(%ebp),%edx
 804a22d:	89 74 24 08          	mov    %esi,0x8(%esp)
 804a231:	89 7c 24 0c          	mov    %edi,0xc(%esp)
 804a235:	89 04 24             	mov    %eax,(%esp)
 804a238:	89 54 24 04          	mov    %edx,0x4(%esp)
 804a23c:	e8 1d 33 00 00       	call   804d55e <__umoddi3>
 804a241:	03 45 d4             	add    -0x2c(%ebp),%eax
 804a244:	0f b6 10             	movzbl (%eax),%edx
 804a247:	8d 45 8a             	lea    -0x76(%ebp),%eax
 804a24a:	03 45 e0             	add    -0x20(%ebp),%eax
 804a24d:	88 10                	mov    %dl,(%eax)
 804a24f:	83 45 e0 01          	addl   $0x1,-0x20(%ebp)
 804a253:	8b 45 cc             	mov    -0x34(%ebp),%eax
 804a256:	ba 00 00 00 00       	mov    $0x0,%edx
 804a25b:	89 44 24 08          	mov    %eax,0x8(%esp)
 804a25f:	89 54 24 0c          	mov    %edx,0xc(%esp)
 804a263:	8b 45 d8             	mov    -0x28(%ebp),%eax
 804a266:	8b 55 dc             	mov    -0x24(%ebp),%edx
 804a269:	89 04 24             	mov    %eax,(%esp)
 804a26c:	89 54 24 04          	mov    %edx,0x4(%esp)
 804a270:	e8 91 32 00 00       	call   804d506 <__udivdi3>
 804a275:	89 45 d8             	mov    %eax,-0x28(%ebp)
 804a278:	89 55 dc             	mov    %edx,-0x24(%ebp)
 804a27b:	8b 45 d8             	mov    -0x28(%ebp),%eax
 804a27e:	8b 55 dc             	mov    -0x24(%ebp),%edx
 804a281:	09 d0                	or     %edx,%eax
 804a283:	85 c0                	test   %eax,%eax
 804a285:	75 98                	jne    804a21f <number+0x1f7>
 804a287:	8b 45 e0             	mov    -0x20(%ebp),%eax
 804a28a:	3b 45 20             	cmp    0x20(%ebp),%eax
 804a28d:	7e 06                	jle    804a295 <number+0x26d>
 804a28f:	8b 45 e0             	mov    -0x20(%ebp),%eax
 804a292:	89 45 20             	mov    %eax,0x20(%ebp)
 804a295:	8b 45 20             	mov    0x20(%ebp),%eax
 804a298:	29 45 1c             	sub    %eax,0x1c(%ebp)
 804a29b:	8b 45 24             	mov    0x24(%ebp),%eax
 804a29e:	83 e0 11             	and    $0x11,%eax
 804a2a1:	85 c0                	test   %eax,%eax
 804a2a3:	75 23                	jne    804a2c8 <number+0x2a0>
 804a2a5:	eb 12                	jmp    804a2b9 <number+0x291>
 804a2a7:	8b 45 08             	mov    0x8(%ebp),%eax
 804a2aa:	3b 45 0c             	cmp    0xc(%ebp),%eax
 804a2ad:	77 06                	ja     804a2b5 <number+0x28d>
 804a2af:	8b 45 08             	mov    0x8(%ebp),%eax
 804a2b2:	c6 00 20             	movb   $0x20,(%eax)
 804a2b5:	83 45 08 01          	addl   $0x1,0x8(%ebp)
 804a2b9:	83 7d 1c 00          	cmpl   $0x0,0x1c(%ebp)
 804a2bd:	0f 9f c0             	setg   %al
 804a2c0:	83 6d 1c 01          	subl   $0x1,0x1c(%ebp)
 804a2c4:	84 c0                	test   %al,%al
 804a2c6:	75 df                	jne    804a2a7 <number+0x27f>
 804a2c8:	80 7d e7 00          	cmpb   $0x0,-0x19(%ebp)
 804a2cc:	74 15                	je     804a2e3 <number+0x2bb>
 804a2ce:	8b 45 08             	mov    0x8(%ebp),%eax
 804a2d1:	3b 45 0c             	cmp    0xc(%ebp),%eax
 804a2d4:	77 09                	ja     804a2df <number+0x2b7>
 804a2d6:	8b 45 08             	mov    0x8(%ebp),%eax
 804a2d9:	0f b6 55 e7          	movzbl -0x19(%ebp),%edx
 804a2dd:	88 10                	mov    %dl,(%eax)
 804a2df:	83 45 08 01          	addl   $0x1,0x8(%ebp)
 804a2e3:	8b 45 24             	mov    0x24(%ebp),%eax
 804a2e6:	83 e0 20             	and    $0x20,%eax
 804a2e9:	85 c0                	test   %eax,%eax
 804a2eb:	74 4a                	je     804a337 <number+0x30f>
 804a2ed:	83 7d 18 08          	cmpl   $0x8,0x18(%ebp)
 804a2f1:	75 14                	jne    804a307 <number+0x2df>
 804a2f3:	8b 45 08             	mov    0x8(%ebp),%eax
 804a2f6:	3b 45 0c             	cmp    0xc(%ebp),%eax
 804a2f9:	77 06                	ja     804a301 <number+0x2d9>
 804a2fb:	8b 45 08             	mov    0x8(%ebp),%eax
 804a2fe:	c6 00 30             	movb   $0x30,(%eax)
 804a301:	83 45 08 01          	addl   $0x1,0x8(%ebp)
 804a305:	eb 30                	jmp    804a337 <number+0x30f>
 804a307:	83 7d 18 10          	cmpl   $0x10,0x18(%ebp)
 804a30b:	75 2a                	jne    804a337 <number+0x30f>
 804a30d:	8b 45 08             	mov    0x8(%ebp),%eax
 804a310:	3b 45 0c             	cmp    0xc(%ebp),%eax
 804a313:	77 06                	ja     804a31b <number+0x2f3>
 804a315:	8b 45 08             	mov    0x8(%ebp),%eax
 804a318:	c6 00 30             	movb   $0x30,(%eax)
 804a31b:	83 45 08 01          	addl   $0x1,0x8(%ebp)
 804a31f:	8b 45 08             	mov    0x8(%ebp),%eax
 804a322:	3b 45 0c             	cmp    0xc(%ebp),%eax
 804a325:	77 0c                	ja     804a333 <number+0x30b>
 804a327:	8b 45 d4             	mov    -0x2c(%ebp),%eax
 804a32a:	0f b6 50 21          	movzbl 0x21(%eax),%edx
 804a32e:	8b 45 08             	mov    0x8(%ebp),%eax
 804a331:	88 10                	mov    %dl,(%eax)
 804a333:	83 45 08 01          	addl   $0x1,0x8(%ebp)
 804a337:	8b 45 24             	mov    0x24(%ebp),%eax
 804a33a:	83 e0 10             	and    $0x10,%eax
 804a33d:	85 c0                	test   %eax,%eax
 804a33f:	75 3c                	jne    804a37d <number+0x355>
 804a341:	eb 15                	jmp    804a358 <number+0x330>
 804a343:	8b 45 08             	mov    0x8(%ebp),%eax
 804a346:	3b 45 0c             	cmp    0xc(%ebp),%eax
 804a349:	77 09                	ja     804a354 <number+0x32c>
 804a34b:	8b 45 08             	mov    0x8(%ebp),%eax
 804a34e:	0f b6 55 d3          	movzbl -0x2d(%ebp),%edx
 804a352:	88 10                	mov    %dl,(%eax)
 804a354:	83 45 08 01          	addl   $0x1,0x8(%ebp)
 804a358:	83 7d 1c 00          	cmpl   $0x0,0x1c(%ebp)
 804a35c:	0f 9f c0             	setg   %al
 804a35f:	83 6d 1c 01          	subl   $0x1,0x1c(%ebp)
 804a363:	84 c0                	test   %al,%al
 804a365:	75 dc                	jne    804a343 <number+0x31b>
 804a367:	eb 14                	jmp    804a37d <number+0x355>
 804a369:	8b 45 08             	mov    0x8(%ebp),%eax
 804a36c:	3b 45 0c             	cmp    0xc(%ebp),%eax
 804a36f:	77 06                	ja     804a377 <number+0x34f>
 804a371:	8b 45 08             	mov    0x8(%ebp),%eax
 804a374:	c6 00 30             	movb   $0x30,(%eax)
 804a377:	83 45 08 01          	addl   $0x1,0x8(%ebp)
 804a37b:	eb 01                	jmp    804a37e <number+0x356>
 804a37d:	90                   	nop
 804a37e:	8b 45 20             	mov    0x20(%ebp),%eax
 804a381:	3b 45 e0             	cmp    -0x20(%ebp),%eax
 804a384:	0f 9f c0             	setg   %al
 804a387:	83 6d 20 01          	subl   $0x1,0x20(%ebp)
 804a38b:	84 c0                	test   %al,%al
 804a38d:	75 da                	jne    804a369 <number+0x341>
 804a38f:	eb 1a                	jmp    804a3ab <number+0x383>
 804a391:	8b 45 08             	mov    0x8(%ebp),%eax
 804a394:	3b 45 0c             	cmp    0xc(%ebp),%eax
 804a397:	77 0e                	ja     804a3a7 <number+0x37f>
 804a399:	8d 45 8a             	lea    -0x76(%ebp),%eax
 804a39c:	03 45 e0             	add    -0x20(%ebp),%eax
 804a39f:	0f b6 10             	movzbl (%eax),%edx
 804a3a2:	8b 45 08             	mov    0x8(%ebp),%eax
 804a3a5:	88 10                	mov    %dl,(%eax)
 804a3a7:	83 45 08 01          	addl   $0x1,0x8(%ebp)
 804a3ab:	83 7d e0 00          	cmpl   $0x0,-0x20(%ebp)
 804a3af:	0f 9f c0             	setg   %al
 804a3b2:	83 6d e0 01          	subl   $0x1,-0x20(%ebp)
 804a3b6:	84 c0                	test   %al,%al
 804a3b8:	75 d7                	jne    804a391 <number+0x369>
 804a3ba:	eb 12                	jmp    804a3ce <number+0x3a6>
 804a3bc:	8b 45 08             	mov    0x8(%ebp),%eax
 804a3bf:	3b 45 0c             	cmp    0xc(%ebp),%eax
 804a3c2:	77 06                	ja     804a3ca <number+0x3a2>
 804a3c4:	8b 45 08             	mov    0x8(%ebp),%eax
 804a3c7:	c6 00 20             	movb   $0x20,(%eax)
 804a3ca:	83 45 08 01          	addl   $0x1,0x8(%ebp)
 804a3ce:	83 7d 1c 00          	cmpl   $0x0,0x1c(%ebp)
 804a3d2:	0f 9f c0             	setg   %al
 804a3d5:	83 6d 1c 01          	subl   $0x1,0x1c(%ebp)
 804a3d9:	84 c0                	test   %al,%al
 804a3db:	75 df                	jne    804a3bc <number+0x394>
 804a3dd:	8b 45 08             	mov    0x8(%ebp),%eax
 804a3e0:	81 c4 dc 00 00 00    	add    $0xdc,%esp
 804a3e6:	5b                   	pop    %ebx
 804a3e7:	5e                   	pop    %esi
 804a3e8:	5f                   	pop    %edi
 804a3e9:	5d                   	pop    %ebp
 804a3ea:	c3                   	ret    

0804a3eb <vsnprintf>:
 804a3eb:	55                   	push   %ebp
 804a3ec:	89 e5                	mov    %esp,%ebp
 804a3ee:	53                   	push   %ebx
 804a3ef:	83 ec 64             	sub    $0x64,%esp
 804a3f2:	e8 3a e0 ff ff       	call   8048431 <__i686.get_pc_thunk.bx>
 804a3f7:	81 c3 21 5c 00 00    	add    $0x5c21,%ebx
 804a3fd:	8b 45 08             	mov    0x8(%ebp),%eax
 804a400:	89 45 e4             	mov    %eax,-0x1c(%ebp)
 804a403:	8b 45 0c             	mov    0xc(%ebp),%eax
 804a406:	83 e8 01             	sub    $0x1,%eax
 804a409:	03 45 08             	add    0x8(%ebp),%eax
 804a40c:	89 45 e0             	mov    %eax,-0x20(%ebp)
 804a40f:	8b 45 08             	mov    0x8(%ebp),%eax
 804a412:	83 e8 01             	sub    $0x1,%eax
 804a415:	3b 45 e0             	cmp    -0x20(%ebp),%eax
 804a418:	0f 86 65 07 00 00    	jbe    804ab83 <vsnprintf+0x798>
 804a41e:	c7 45 e0 ff ff ff ff 	movl   $0xffffffff,-0x20(%ebp)
 804a425:	8b 55 e0             	mov    -0x20(%ebp),%edx
 804a428:	8b 45 08             	mov    0x8(%ebp),%eax
 804a42b:	89 d1                	mov    %edx,%ecx
 804a42d:	29 c1                	sub    %eax,%ecx
 804a42f:	89 c8                	mov    %ecx,%eax
 804a431:	83 c0 01             	add    $0x1,%eax
 804a434:	89 45 0c             	mov    %eax,0xc(%ebp)
 804a437:	e9 47 07 00 00       	jmp    804ab83 <vsnprintf+0x798>
 804a43c:	8b 45 10             	mov    0x10(%ebp),%eax
 804a43f:	0f b6 00             	movzbl (%eax),%eax
 804a442:	3c 25                	cmp    $0x25,%al
 804a444:	74 1c                	je     804a462 <vsnprintf+0x77>
 804a446:	8b 45 e4             	mov    -0x1c(%ebp),%eax
 804a449:	3b 45 e0             	cmp    -0x20(%ebp),%eax
 804a44c:	77 0b                	ja     804a459 <vsnprintf+0x6e>
 804a44e:	8b 45 10             	mov    0x10(%ebp),%eax
 804a451:	0f b6 10             	movzbl (%eax),%edx
 804a454:	8b 45 e4             	mov    -0x1c(%ebp),%eax
 804a457:	88 10                	mov    %dl,(%eax)
 804a459:	83 45 e4 01          	addl   $0x1,-0x1c(%ebp)
 804a45d:	e9 16 07 00 00       	jmp    804ab78 <vsnprintf+0x78d>
 804a462:	c7 45 d8 00 00 00 00 	movl   $0x0,-0x28(%ebp)
 804a469:	8b 45 10             	mov    0x10(%ebp),%eax
 804a46c:	83 c0 01             	add    $0x1,%eax
 804a46f:	89 45 10             	mov    %eax,0x10(%ebp)
 804a472:	8b 45 10             	mov    0x10(%ebp),%eax
 804a475:	0f b6 00             	movzbl (%eax),%eax
 804a478:	0f be c0             	movsbl %al,%eax
 804a47b:	83 e8 20             	sub    $0x20,%eax
 804a47e:	83 f8 10             	cmp    $0x10,%eax
 804a481:	0f 87 83 00 00 00    	ja     804a50a <vsnprintf+0x11f>
 804a487:	c1 e0 02             	shl    $0x2,%eax
 804a48a:	8b 84 18 84 a4 ff ff 	mov    -0x5b7c(%eax,%ebx,1),%eax
 804a491:	89 da                	mov    %ebx,%edx
 804a493:	29 c2                	sub    %eax,%edx
 804a495:	89 d0                	mov    %edx,%eax
 804a497:	ff e0                	jmp    *%eax
 804a499:	8d 76 00             	lea    0x0(%esi),%esi
 804a49c:	29 5b 00             	sub    %ebx,0x0(%ebx)
 804a49f:	00 0e                	add    %cl,(%esi)
 804a4a1:	5b                   	pop    %ebx
 804a4a2:	00 00                	add    %al,(%eax)
 804a4a4:	0e                   	push   %cs
 804a4a5:	5b                   	pop    %ebx
 804a4a6:	00 00                	add    %al,(%eax)
 804a4a8:	20 5b 00             	and    %bl,0x0(%ebx)
 804a4ab:	00 0e                	add    %cl,(%esi)
 804a4ad:	5b                   	pop    %ebx
 804a4ae:	00 00                	add    %al,(%eax)
 804a4b0:	0e                   	push   %cs
 804a4b1:	5b                   	pop    %ebx
 804a4b2:	00 00                	add    %al,(%eax)
 804a4b4:	0e                   	push   %cs
 804a4b5:	5b                   	pop    %ebx
 804a4b6:	00 00                	add    %al,(%eax)
 804a4b8:	0e                   	push   %cs
 804a4b9:	5b                   	pop    %ebx
 804a4ba:	00 00                	add    %al,(%eax)
 804a4bc:	0e                   	push   %cs
 804a4bd:	5b                   	pop    %ebx
 804a4be:	00 00                	add    %al,(%eax)
 804a4c0:	0e                   	push   %cs
 804a4c1:	5b                   	pop    %ebx
 804a4c2:	00 00                	add    %al,(%eax)
 804a4c4:	0e                   	push   %cs
 804a4c5:	5b                   	pop    %ebx
 804a4c6:	00 00                	add    %al,(%eax)
 804a4c8:	32 5b 00             	xor    0x0(%ebx),%bl
 804a4cb:	00 0e                	add    %cl,(%esi)
 804a4cd:	5b                   	pop    %ebx
 804a4ce:	00 00                	add    %al,(%eax)
 804a4d0:	38 5b 00             	cmp    %bl,0x0(%ebx)
 804a4d3:	00 0e                	add    %cl,(%esi)
 804a4d5:	5b                   	pop    %ebx
 804a4d6:	00 00                	add    %al,(%eax)
 804a4d8:	0e                   	push   %cs
 804a4d9:	5b                   	pop    %ebx
 804a4da:	00 00                	add    %al,(%eax)
 804a4dc:	17                   	pop    %ss
 804a4dd:	5b                   	pop    %ebx
 804a4de:	00 00                	add    %al,(%eax)
 804a4e0:	83 4d d8 10          	orl    $0x10,-0x28(%ebp)
 804a4e4:	eb 83                	jmp    804a469 <vsnprintf+0x7e>
 804a4e6:	83 4d d8 04          	orl    $0x4,-0x28(%ebp)
 804a4ea:	e9 7a ff ff ff       	jmp    804a469 <vsnprintf+0x7e>
 804a4ef:	83 4d d8 08          	orl    $0x8,-0x28(%ebp)
 804a4f3:	e9 71 ff ff ff       	jmp    804a469 <vsnprintf+0x7e>
 804a4f8:	83 4d d8 20          	orl    $0x20,-0x28(%ebp)
 804a4fc:	e9 68 ff ff ff       	jmp    804a469 <vsnprintf+0x7e>
 804a501:	83 4d d8 01          	orl    $0x1,-0x28(%ebp)
 804a505:	e9 5f ff ff ff       	jmp    804a469 <vsnprintf+0x7e>
 804a50a:	c7 45 d4 ff ff ff ff 	movl   $0xffffffff,-0x2c(%ebp)
 804a511:	8b 45 10             	mov    0x10(%ebp),%eax
 804a514:	0f b6 00             	movzbl (%eax),%eax
 804a517:	0f b6 c0             	movzbl %al,%eax
 804a51a:	0f b6 84 03 48 00 00 	movzbl 0x48(%ebx,%eax,1),%eax
 804a521:	00 
 804a522:	0f b6 c0             	movzbl %al,%eax
 804a525:	83 e0 04             	and    $0x4,%eax
 804a528:	85 c0                	test   %eax,%eax
 804a52a:	74 10                	je     804a53c <vsnprintf+0x151>
 804a52c:	8d 45 10             	lea    0x10(%ebp),%eax
 804a52f:	89 04 24             	mov    %eax,(%esp)
 804a532:	e8 87 fa ff ff       	call   8049fbe <skip_atoi>
 804a537:	89 45 d4             	mov    %eax,-0x2c(%ebp)
 804a53a:	eb 2e                	jmp    804a56a <vsnprintf+0x17f>
 804a53c:	8b 45 10             	mov    0x10(%ebp),%eax
 804a53f:	0f b6 00             	movzbl (%eax),%eax
 804a542:	3c 2a                	cmp    $0x2a,%al
 804a544:	75 24                	jne    804a56a <vsnprintf+0x17f>
 804a546:	8b 45 10             	mov    0x10(%ebp),%eax
 804a549:	83 c0 01             	add    $0x1,%eax
 804a54c:	89 45 10             	mov    %eax,0x10(%ebp)
 804a54f:	8b 45 14             	mov    0x14(%ebp),%eax
 804a552:	8d 50 04             	lea    0x4(%eax),%edx
 804a555:	89 55 14             	mov    %edx,0x14(%ebp)
 804a558:	8b 00                	mov    (%eax),%eax
 804a55a:	89 45 d4             	mov    %eax,-0x2c(%ebp)
 804a55d:	83 7d d4 00          	cmpl   $0x0,-0x2c(%ebp)
 804a561:	79 07                	jns    804a56a <vsnprintf+0x17f>
 804a563:	f7 5d d4             	negl   -0x2c(%ebp)
 804a566:	83 4d d8 10          	orl    $0x10,-0x28(%ebp)
 804a56a:	c7 45 d0 ff ff ff ff 	movl   $0xffffffff,-0x30(%ebp)
 804a571:	8b 45 10             	mov    0x10(%ebp),%eax
 804a574:	0f b6 00             	movzbl (%eax),%eax
 804a577:	3c 2e                	cmp    $0x2e,%al
 804a579:	75 62                	jne    804a5dd <vsnprintf+0x1f2>
 804a57b:	8b 45 10             	mov    0x10(%ebp),%eax
 804a57e:	83 c0 01             	add    $0x1,%eax
 804a581:	89 45 10             	mov    %eax,0x10(%ebp)
 804a584:	8b 45 10             	mov    0x10(%ebp),%eax
 804a587:	0f b6 00             	movzbl (%eax),%eax
 804a58a:	0f b6 c0             	movzbl %al,%eax
 804a58d:	0f b6 84 03 48 00 00 	movzbl 0x48(%ebx,%eax,1),%eax
 804a594:	00 
 804a595:	0f b6 c0             	movzbl %al,%eax
 804a598:	83 e0 04             	and    $0x4,%eax
 804a59b:	85 c0                	test   %eax,%eax
 804a59d:	74 10                	je     804a5af <vsnprintf+0x1c4>
 804a59f:	8d 45 10             	lea    0x10(%ebp),%eax
 804a5a2:	89 04 24             	mov    %eax,(%esp)
 804a5a5:	e8 14 fa ff ff       	call   8049fbe <skip_atoi>
 804a5aa:	89 45 d0             	mov    %eax,-0x30(%ebp)
 804a5ad:	eb 21                	jmp    804a5d0 <vsnprintf+0x1e5>
 804a5af:	8b 45 10             	mov    0x10(%ebp),%eax
 804a5b2:	0f b6 00             	movzbl (%eax),%eax
 804a5b5:	3c 2a                	cmp    $0x2a,%al
 804a5b7:	75 17                	jne    804a5d0 <vsnprintf+0x1e5>
 804a5b9:	8b 45 10             	mov    0x10(%ebp),%eax
 804a5bc:	83 c0 01             	add    $0x1,%eax
 804a5bf:	89 45 10             	mov    %eax,0x10(%ebp)
 804a5c2:	8b 45 14             	mov    0x14(%ebp),%eax
 804a5c5:	8d 50 04             	lea    0x4(%eax),%edx
 804a5c8:	89 55 14             	mov    %edx,0x14(%ebp)
 804a5cb:	8b 00                	mov    (%eax),%eax
 804a5cd:	89 45 d0             	mov    %eax,-0x30(%ebp)
 804a5d0:	83 7d d0 00          	cmpl   $0x0,-0x30(%ebp)
 804a5d4:	79 07                	jns    804a5dd <vsnprintf+0x1f2>
 804a5d6:	c7 45 d0 00 00 00 00 	movl   $0x0,-0x30(%ebp)
 804a5dd:	c7 45 cc ff ff ff ff 	movl   $0xffffffff,-0x34(%ebp)
 804a5e4:	8b 45 10             	mov    0x10(%ebp),%eax
 804a5e7:	0f b6 00             	movzbl (%eax),%eax
 804a5ea:	3c 68                	cmp    $0x68,%al
 804a5ec:	74 1e                	je     804a60c <vsnprintf+0x221>
 804a5ee:	8b 45 10             	mov    0x10(%ebp),%eax
 804a5f1:	0f b6 00             	movzbl (%eax),%eax
 804a5f4:	3c 6c                	cmp    $0x6c,%al
 804a5f6:	74 14                	je     804a60c <vsnprintf+0x221>
 804a5f8:	8b 45 10             	mov    0x10(%ebp),%eax
 804a5fb:	0f b6 00             	movzbl (%eax),%eax
 804a5fe:	3c 4c                	cmp    $0x4c,%al
 804a600:	74 0a                	je     804a60c <vsnprintf+0x221>
 804a602:	8b 45 10             	mov    0x10(%ebp),%eax
 804a605:	0f b6 00             	movzbl (%eax),%eax
 804a608:	3c 5a                	cmp    $0x5a,%al
 804a60a:	75 35                	jne    804a641 <vsnprintf+0x256>
 804a60c:	8b 45 10             	mov    0x10(%ebp),%eax
 804a60f:	0f b6 00             	movzbl (%eax),%eax
 804a612:	0f be c0             	movsbl %al,%eax
 804a615:	89 45 cc             	mov    %eax,-0x34(%ebp)
 804a618:	8b 45 10             	mov    0x10(%ebp),%eax
 804a61b:	83 c0 01             	add    $0x1,%eax
 804a61e:	89 45 10             	mov    %eax,0x10(%ebp)
 804a621:	83 7d cc 6c          	cmpl   $0x6c,-0x34(%ebp)
 804a625:	75 1a                	jne    804a641 <vsnprintf+0x256>
 804a627:	8b 45 10             	mov    0x10(%ebp),%eax
 804a62a:	0f b6 00             	movzbl (%eax),%eax
 804a62d:	3c 6c                	cmp    $0x6c,%al
 804a62f:	75 10                	jne    804a641 <vsnprintf+0x256>
 804a631:	c7 45 cc 4c 00 00 00 	movl   $0x4c,-0x34(%ebp)
 804a638:	8b 45 10             	mov    0x10(%ebp),%eax
 804a63b:	83 c0 01             	add    $0x1,%eax
 804a63e:	89 45 10             	mov    %eax,0x10(%ebp)
 804a641:	8b 45 10             	mov    0x10(%ebp),%eax
 804a644:	0f b6 00             	movzbl (%eax),%eax
 804a647:	3c 71                	cmp    $0x71,%al
 804a649:	75 10                	jne    804a65b <vsnprintf+0x270>
 804a64b:	c7 45 cc 4c 00 00 00 	movl   $0x4c,-0x34(%ebp)
 804a652:	8b 45 10             	mov    0x10(%ebp),%eax
 804a655:	83 c0 01             	add    $0x1,%eax
 804a658:	89 45 10             	mov    %eax,0x10(%ebp)
 804a65b:	c7 45 e8 0a 00 00 00 	movl   $0xa,-0x18(%ebp)
 804a662:	8b 45 10             	mov    0x10(%ebp),%eax
 804a665:	0f b6 00             	movzbl (%eax),%eax
 804a668:	0f be c0             	movsbl %al,%eax
 804a66b:	83 e8 25             	sub    $0x25,%eax
 804a66e:	83 f8 53             	cmp    $0x53,%eax
 804a671:	0f 87 9d 03 00 00    	ja     804aa14 <vsnprintf+0x629>
 804a677:	c1 e0 02             	shl    $0x2,%eax
 804a67a:	8b 84 18 74 a6 ff ff 	mov    -0x598c(%eax,%ebx,1),%eax
 804a681:	89 d9                	mov    %ebx,%ecx
 804a683:	29 c1                	sub    %eax,%ecx
 804a685:	89 c8                	mov    %ecx,%eax
 804a687:	ff e0                	jmp    *%eax
 804a689:	8d 76 00             	lea    0x0(%esi),%esi
 804a68c:	41                   	inc    %ecx
 804a68d:	56                   	push   %esi
 804a68e:	00 00                	add    %al,(%eax)
 804a690:	04 56                	add    $0x56,%al
 804a692:	00 00                	add    %al,(%eax)
 804a694:	04 56                	add    $0x56,%al
 804a696:	00 00                	add    %al,(%eax)
 804a698:	04 56                	add    $0x56,%al
 804a69a:	00 00                	add    %al,(%eax)
 804a69c:	04 56                	add    $0x56,%al
 804a69e:	00 00                	add    %al,(%eax)
 804a6a0:	04 56                	add    $0x56,%al
 804a6a2:	00 00                	add    %al,(%eax)
 804a6a4:	04 56                	add    $0x56,%al
 804a6a6:	00 00                	add    %al,(%eax)
 804a6a8:	04 56                	add    $0x56,%al
 804a6aa:	00 00                	add    %al,(%eax)
 804a6ac:	04 56                	add    $0x56,%al
 804a6ae:	00 00                	add    %al,(%eax)
 804a6b0:	04 56                	add    $0x56,%al
 804a6b2:	00 00                	add    %al,(%eax)
 804a6b4:	04 56                	add    $0x56,%al
 804a6b6:	00 00                	add    %al,(%eax)
 804a6b8:	04 56                	add    $0x56,%al
 804a6ba:	00 00                	add    %al,(%eax)
 804a6bc:	04 56                	add    $0x56,%al
 804a6be:	00 00                	add    %al,(%eax)
 804a6c0:	04 56                	add    $0x56,%al
 804a6c2:	00 00                	add    %al,(%eax)
 804a6c4:	04 56                	add    $0x56,%al
 804a6c6:	00 00                	add    %al,(%eax)
 804a6c8:	04 56                	add    $0x56,%al
 804a6ca:	00 00                	add    %al,(%eax)
 804a6cc:	04 56                	add    $0x56,%al
 804a6ce:	00 00                	add    %al,(%eax)
 804a6d0:	04 56                	add    $0x56,%al
 804a6d2:	00 00                	add    %al,(%eax)
 804a6d4:	04 56                	add    $0x56,%al
 804a6d6:	00 00                	add    %al,(%eax)
 804a6d8:	04 56                	add    $0x56,%al
 804a6da:	00 00                	add    %al,(%eax)
 804a6dc:	04 56                	add    $0x56,%al
 804a6de:	00 00                	add    %al,(%eax)
 804a6e0:	04 56                	add    $0x56,%al
 804a6e2:	00 00                	add    %al,(%eax)
 804a6e4:	04 56                	add    $0x56,%al
 804a6e6:	00 00                	add    %al,(%eax)
 804a6e8:	04 56                	add    $0x56,%al
 804a6ea:	00 00                	add    %al,(%eax)
 804a6ec:	04 56                	add    $0x56,%al
 804a6ee:	00 00                	add    %al,(%eax)
 804a6f0:	04 56                	add    $0x56,%al
 804a6f2:	00 00                	add    %al,(%eax)
 804a6f4:	04 56                	add    $0x56,%al
 804a6f6:	00 00                	add    %al,(%eax)
 804a6f8:	04 56                	add    $0x56,%al
 804a6fa:	00 00                	add    %al,(%eax)
 804a6fc:	04 56                	add    $0x56,%al
 804a6fe:	00 00                	add    %al,(%eax)
 804a700:	04 56                	add    $0x56,%al
 804a702:	00 00                	add    %al,(%eax)
 804a704:	04 56                	add    $0x56,%al
 804a706:	00 00                	add    %al,(%eax)
 804a708:	04 56                	add    $0x56,%al
 804a70a:	00 00                	add    %al,(%eax)
 804a70c:	04 56                	add    $0x56,%al
 804a70e:	00 00                	add    %al,(%eax)
 804a710:	0e                   	push   %cs
 804a711:	56                   	push   %esi
 804a712:	00 00                	add    %al,(%eax)
 804a714:	0e                   	push   %cs
 804a715:	56                   	push   %esi
 804a716:	00 00                	add    %al,(%eax)
 804a718:	04 56                	add    $0x56,%al
 804a71a:	00 00                	add    %al,(%eax)
 804a71c:	04 56                	add    $0x56,%al
 804a71e:	00 00                	add    %al,(%eax)
 804a720:	04 56                	add    $0x56,%al
 804a722:	00 00                	add    %al,(%eax)
 804a724:	04 56                	add    $0x56,%al
 804a726:	00 00                	add    %al,(%eax)
 804a728:	04 56                	add    $0x56,%al
 804a72a:	00 00                	add    %al,(%eax)
 804a72c:	04 56                	add    $0x56,%al
 804a72e:	00 00                	add    %al,(%eax)
 804a730:	04 56                	add    $0x56,%al
 804a732:	00 00                	add    %al,(%eax)
 804a734:	04 56                	add    $0x56,%al
 804a736:	00 00                	add    %al,(%eax)
 804a738:	04 56                	add    $0x56,%al
 804a73a:	00 00                	add    %al,(%eax)
 804a73c:	04 56                	add    $0x56,%al
 804a73e:	00 00                	add    %al,(%eax)
 804a740:	04 56                	add    $0x56,%al
 804a742:	00 00                	add    %al,(%eax)
 804a744:	04 56                	add    $0x56,%al
 804a746:	00 00                	add    %al,(%eax)
 804a748:	04 56                	add    $0x56,%al
 804a74a:	00 00                	add    %al,(%eax)
 804a74c:	04 56                	add    $0x56,%al
 804a74e:	00 00                	add    %al,(%eax)
 804a750:	04 56                	add    $0x56,%al
 804a752:	00 00                	add    %al,(%eax)
 804a754:	04 56                	add    $0x56,%al
 804a756:	00 00                	add    %al,(%eax)
 804a758:	21 56 00             	and    %edx,0x0(%esi)
 804a75b:	00 04 56             	add    %al,(%esi,%edx,2)
 804a75e:	00 00                	add    %al,(%eax)
 804a760:	04 56                	add    $0x56,%al
 804a762:	00 00                	add    %al,(%eax)
 804a764:	04 56                	add    $0x56,%al
 804a766:	00 00                	add    %al,(%eax)
 804a768:	04 56                	add    $0x56,%al
 804a76a:	00 00                	add    %al,(%eax)
 804a76c:	04 56                	add    $0x56,%al
 804a76e:	00 00                	add    %al,(%eax)
 804a770:	04 56                	add    $0x56,%al
 804a772:	00 00                	add    %al,(%eax)
 804a774:	04 56                	add    $0x56,%al
 804a776:	00 00                	add    %al,(%eax)
 804a778:	04 56                	add    $0x56,%al
 804a77a:	00 00                	add    %al,(%eax)
 804a77c:	04 56                	add    $0x56,%al
 804a77e:	00 00                	add    %al,(%eax)
 804a780:	04 56                	add    $0x56,%al
 804a782:	00 00                	add    %al,(%eax)
 804a784:	3c 58                	cmp    $0x58,%al
 804a786:	00 00                	add    %al,(%eax)
 804a788:	14 56                	adc    $0x56,%al
 804a78a:	00 00                	add    %al,(%eax)
 804a78c:	04 56                	add    $0x56,%al
 804a78e:	00 00                	add    %al,(%eax)
 804a790:	0e                   	push   %cs
 804a791:	56                   	push   %esi
 804a792:	00 00                	add    %al,(%eax)
 804a794:	0e                   	push   %cs
 804a795:	56                   	push   %esi
 804a796:	00 00                	add    %al,(%eax)
 804a798:	04 56                	add    $0x56,%al
 804a79a:	00 00                	add    %al,(%eax)
 804a79c:	14 56                	adc    $0x56,%al
 804a79e:	00 00                	add    %al,(%eax)
 804a7a0:	04 56                	add    $0x56,%al
 804a7a2:	00 00                	add    %al,(%eax)
 804a7a4:	04 56                	add    $0x56,%al
 804a7a6:	00 00                	add    %al,(%eax)
 804a7a8:	04 56                	add    $0x56,%al
 804a7aa:	00 00                	add    %al,(%eax)
 804a7ac:	04 56                	add    $0x56,%al
 804a7ae:	00 00                	add    %al,(%eax)
 804a7b0:	b3 56                	mov    $0x56,%bl
 804a7b2:	00 00                	add    %al,(%eax)
 804a7b4:	2a 56 00             	sub    0x0(%esi),%dl
 804a7b7:	00 13                	add    %dl,(%ebx)
 804a7b9:	57                   	push   %edi
 804a7ba:	00 00                	add    %al,(%eax)
 804a7bc:	04 56                	add    $0x56,%al
 804a7be:	00 00                	add    %al,(%eax)
 804a7c0:	04 56                	add    $0x56,%al
 804a7c2:	00 00                	add    %al,(%eax)
 804a7c4:	ce                   	into   
 804a7c5:	57                   	push   %edi
 804a7c6:	00 00                	add    %al,(%eax)
 804a7c8:	04 56                	add    $0x56,%al
 804a7ca:	00 00                	add    %al,(%eax)
 804a7cc:	be 55 00 00 04       	mov    $0x4000055,%esi
 804a7d1:	56                   	push   %esi
 804a7d2:	00 00                	add    %al,(%eax)
 804a7d4:	04 56                	add    $0x56,%al
 804a7d6:	00 00                	add    %al,(%eax)
 804a7d8:	1d 56 00 00 8b       	sbb    $0x8b000056,%eax
 804a7dd:	45                   	inc    %ebp
 804a7de:	d8 83 e0 10 85 c0    	fadds  -0x3f7aef20(%ebx)
 804a7e4:	75 1e                	jne    804a804 <vsnprintf+0x419>
 804a7e6:	eb 12                	jmp    804a7fa <vsnprintf+0x40f>
 804a7e8:	8b 45 e4             	mov    -0x1c(%ebp),%eax
 804a7eb:	3b 45 e0             	cmp    -0x20(%ebp),%eax
 804a7ee:	77 06                	ja     804a7f6 <vsnprintf+0x40b>
 804a7f0:	8b 45 e4             	mov    -0x1c(%ebp),%eax
 804a7f3:	c6 00 20             	movb   $0x20,(%eax)
 804a7f6:	83 45 e4 01          	addl   $0x1,-0x1c(%ebp)
 804a7fa:	83 6d d4 01          	subl   $0x1,-0x2c(%ebp)
 804a7fe:	83 7d d4 00          	cmpl   $0x0,-0x2c(%ebp)
 804a802:	7f e4                	jg     804a7e8 <vsnprintf+0x3fd>
 804a804:	8b 45 14             	mov    0x14(%ebp),%eax
 804a807:	8d 50 04             	lea    0x4(%eax),%edx
 804a80a:	89 55 14             	mov    %edx,0x14(%ebp)
 804a80d:	8b 00                	mov    (%eax),%eax
 804a80f:	88 45 cb             	mov    %al,-0x35(%ebp)
 804a812:	8b 45 e4             	mov    -0x1c(%ebp),%eax
 804a815:	3b 45 e0             	cmp    -0x20(%ebp),%eax
 804a818:	77 09                	ja     804a823 <vsnprintf+0x438>
 804a81a:	8b 45 e4             	mov    -0x1c(%ebp),%eax
 804a81d:	0f b6 55 cb          	movzbl -0x35(%ebp),%edx
 804a821:	88 10                	mov    %dl,(%eax)
 804a823:	83 45 e4 01          	addl   $0x1,-0x1c(%ebp)
 804a827:	eb 12                	jmp    804a83b <vsnprintf+0x450>
 804a829:	8b 45 e4             	mov    -0x1c(%ebp),%eax
 804a82c:	3b 45 e0             	cmp    -0x20(%ebp),%eax
 804a82f:	77 06                	ja     804a837 <vsnprintf+0x44c>
 804a831:	8b 45 e4             	mov    -0x1c(%ebp),%eax
 804a834:	c6 00 20             	movb   $0x20,(%eax)
 804a837:	83 45 e4 01          	addl   $0x1,-0x1c(%ebp)
 804a83b:	83 6d d4 01          	subl   $0x1,-0x2c(%ebp)
 804a83f:	83 7d d4 00          	cmpl   $0x0,-0x2c(%ebp)
 804a843:	7f e4                	jg     804a829 <vsnprintf+0x43e>
 804a845:	e9 2e 03 00 00       	jmp    804ab78 <vsnprintf+0x78d>
 804a84a:	8b 45 14             	mov    0x14(%ebp),%eax
 804a84d:	8d 50 04             	lea    0x4(%eax),%edx
 804a850:	89 55 14             	mov    %edx,0x14(%ebp)
 804a853:	8b 00                	mov    (%eax),%eax
 804a855:	89 45 dc             	mov    %eax,-0x24(%ebp)
 804a858:	83 7d dc 00          	cmpl   $0x0,-0x24(%ebp)
 804a85c:	75 09                	jne    804a867 <vsnprintf+0x47c>
 804a85e:	8d 83 b2 e0 ff ff    	lea    -0x1f4e(%ebx),%eax
 804a864:	89 45 dc             	mov    %eax,-0x24(%ebp)
 804a867:	8b 45 d0             	mov    -0x30(%ebp),%eax
 804a86a:	89 44 24 04          	mov    %eax,0x4(%esp)
 804a86e:	8b 45 dc             	mov    -0x24(%ebp),%eax
 804a871:	89 04 24             	mov    %eax,(%esp)
 804a874:	e8 8b dd ff ff       	call   8048604 <strnlen>
 804a879:	89 45 c4             	mov    %eax,-0x3c(%ebp)
 804a87c:	8b 45 d8             	mov    -0x28(%ebp),%eax
 804a87f:	83 e0 10             	and    $0x10,%eax
 804a882:	85 c0                	test   %eax,%eax
 804a884:	75 25                	jne    804a8ab <vsnprintf+0x4c0>
 804a886:	eb 12                	jmp    804a89a <vsnprintf+0x4af>
 804a888:	8b 45 e4             	mov    -0x1c(%ebp),%eax
 804a88b:	3b 45 e0             	cmp    -0x20(%ebp),%eax
 804a88e:	77 06                	ja     804a896 <vsnprintf+0x4ab>
 804a890:	8b 45 e4             	mov    -0x1c(%ebp),%eax
 804a893:	c6 00 20             	movb   $0x20,(%eax)
 804a896:	83 45 e4 01          	addl   $0x1,-0x1c(%ebp)
 804a89a:	8b 45 d4             	mov    -0x2c(%ebp),%eax
 804a89d:	3b 45 c4             	cmp    -0x3c(%ebp),%eax
 804a8a0:	0f 9f c0             	setg   %al
 804a8a3:	83 6d d4 01          	subl   $0x1,-0x2c(%ebp)
 804a8a7:	84 c0                	test   %al,%al
 804a8a9:	75 dd                	jne    804a888 <vsnprintf+0x49d>
 804a8ab:	c7 45 ec 00 00 00 00 	movl   $0x0,-0x14(%ebp)
 804a8b2:	eb 1f                	jmp    804a8d3 <vsnprintf+0x4e8>
 804a8b4:	8b 45 e4             	mov    -0x1c(%ebp),%eax
 804a8b7:	3b 45 e0             	cmp    -0x20(%ebp),%eax
 804a8ba:	77 0b                	ja     804a8c7 <vsnprintf+0x4dc>
 804a8bc:	8b 45 dc             	mov    -0x24(%ebp),%eax
 804a8bf:	0f b6 10             	movzbl (%eax),%edx
 804a8c2:	8b 45 e4             	mov    -0x1c(%ebp),%eax
 804a8c5:	88 10                	mov    %dl,(%eax)
 804a8c7:	83 45 e4 01          	addl   $0x1,-0x1c(%ebp)
 804a8cb:	83 45 dc 01          	addl   $0x1,-0x24(%ebp)
 804a8cf:	83 45 ec 01          	addl   $0x1,-0x14(%ebp)
 804a8d3:	8b 45 ec             	mov    -0x14(%ebp),%eax
 804a8d6:	3b 45 c4             	cmp    -0x3c(%ebp),%eax
 804a8d9:	7c d9                	jl     804a8b4 <vsnprintf+0x4c9>
 804a8db:	eb 12                	jmp    804a8ef <vsnprintf+0x504>
 804a8dd:	8b 45 e4             	mov    -0x1c(%ebp),%eax
 804a8e0:	3b 45 e0             	cmp    -0x20(%ebp),%eax
 804a8e3:	77 06                	ja     804a8eb <vsnprintf+0x500>
 804a8e5:	8b 45 e4             	mov    -0x1c(%ebp),%eax
 804a8e8:	c6 00 20             	movb   $0x20,(%eax)
 804a8eb:	83 45 e4 01          	addl   $0x1,-0x1c(%ebp)
 804a8ef:	8b 45 d4             	mov    -0x2c(%ebp),%eax
 804a8f2:	3b 45 c4             	cmp    -0x3c(%ebp),%eax
 804a8f5:	0f 9f c0             	setg   %al
 804a8f8:	83 6d d4 01          	subl   $0x1,-0x2c(%ebp)
 804a8fc:	84 c0                	test   %al,%al
 804a8fe:	75 dd                	jne    804a8dd <vsnprintf+0x4f2>
 804a900:	e9 73 02 00 00       	jmp    804ab78 <vsnprintf+0x78d>
 804a905:	83 7d d4 ff          	cmpl   $0xffffffff,-0x2c(%ebp)
 804a909:	75 0b                	jne    804a916 <vsnprintf+0x52b>
 804a90b:	c7 45 d4 08 00 00 00 	movl   $0x8,-0x2c(%ebp)
 804a912:	83 4d d8 01          	orl    $0x1,-0x28(%ebp)
 804a916:	8b 45 14             	mov    0x14(%ebp),%eax
 804a919:	8d 50 04             	lea    0x4(%eax),%edx
 804a91c:	89 55 14             	mov    %edx,0x14(%ebp)
 804a91f:	8b 00                	mov    (%eax),%eax
 804a921:	ba 00 00 00 00       	mov    $0x0,%edx
 804a926:	8b 4d d8             	mov    -0x28(%ebp),%ecx
 804a929:	89 4c 24 1c          	mov    %ecx,0x1c(%esp)
 804a92d:	8b 4d d0             	mov    -0x30(%ebp),%ecx
 804a930:	89 4c 24 18          	mov    %ecx,0x18(%esp)
 804a934:	8b 4d d4             	mov    -0x2c(%ebp),%ecx
 804a937:	89 4c 24 14          	mov    %ecx,0x14(%esp)
 804a93b:	c7 44 24 10 10 00 00 	movl   $0x10,0x10(%esp)
 804a942:	00 
 804a943:	89 44 24 08          	mov    %eax,0x8(%esp)
 804a947:	89 54 24 0c          	mov    %edx,0xc(%esp)
 804a94b:	8b 45 e0             	mov    -0x20(%ebp),%eax
 804a94e:	89 44 24 04          	mov    %eax,0x4(%esp)
 804a952:	8b 45 e4             	mov    -0x1c(%ebp),%eax
 804a955:	89 04 24             	mov    %eax,(%esp)
 804a958:	e8 cb f6 ff ff       	call   804a028 <number>
 804a95d:	89 45 e4             	mov    %eax,-0x1c(%ebp)
 804a960:	e9 13 02 00 00       	jmp    804ab78 <vsnprintf+0x78d>
 804a965:	83 7d cc 6c          	cmpl   $0x6c,-0x34(%ebp)
 804a969:	75 20                	jne    804a98b <vsnprintf+0x5a0>
 804a96b:	8b 45 14             	mov    0x14(%ebp),%eax
 804a96e:	8d 50 04             	lea    0x4(%eax),%edx
 804a971:	89 55 14             	mov    %edx,0x14(%ebp)
 804a974:	8b 00                	mov    (%eax),%eax
 804a976:	89 45 c0             	mov    %eax,-0x40(%ebp)
 804a979:	8b 55 e4             	mov    -0x1c(%ebp),%edx
 804a97c:	8b 45 08             	mov    0x8(%ebp),%eax
 804a97f:	29 c2                	sub    %eax,%edx
 804a981:	8b 45 c0             	mov    -0x40(%ebp),%eax
 804a984:	89 10                	mov    %edx,(%eax)
 804a986:	e9 ed 01 00 00       	jmp    804ab78 <vsnprintf+0x78d>
 804a98b:	83 7d cc 5a          	cmpl   $0x5a,-0x34(%ebp)
 804a98f:	75 26                	jne    804a9b7 <vsnprintf+0x5cc>
 804a991:	8b 45 14             	mov    0x14(%ebp),%eax
 804a994:	8d 50 04             	lea    0x4(%eax),%edx
 804a997:	89 55 14             	mov    %edx,0x14(%ebp)
 804a99a:	8b 00                	mov    (%eax),%eax
 804a99c:	89 45 bc             	mov    %eax,-0x44(%ebp)
 804a99f:	8b 55 e4             	mov    -0x1c(%ebp),%edx
 804a9a2:	8b 45 08             	mov    0x8(%ebp),%eax
 804a9a5:	89 d1                	mov    %edx,%ecx
 804a9a7:	29 c1                	sub    %eax,%ecx
 804a9a9:	89 c8                	mov    %ecx,%eax
 804a9ab:	89 c2                	mov    %eax,%edx
 804a9ad:	8b 45 bc             	mov    -0x44(%ebp),%eax
 804a9b0:	89 10                	mov    %edx,(%eax)
 804a9b2:	e9 c1 01 00 00       	jmp    804ab78 <vsnprintf+0x78d>
 804a9b7:	8b 45 14             	mov    0x14(%ebp),%eax
 804a9ba:	8d 50 04             	lea    0x4(%eax),%edx
 804a9bd:	89 55 14             	mov    %edx,0x14(%ebp)
 804a9c0:	8b 00                	mov    (%eax),%eax
 804a9c2:	89 45 b8             	mov    %eax,-0x48(%ebp)
 804a9c5:	8b 55 e4             	mov    -0x1c(%ebp),%edx
 804a9c8:	8b 45 08             	mov    0x8(%ebp),%eax
 804a9cb:	29 c2                	sub    %eax,%edx
 804a9cd:	8b 45 b8             	mov    -0x48(%ebp),%eax
 804a9d0:	89 10                	mov    %edx,(%eax)
 804a9d2:	e9 a1 01 00 00       	jmp    804ab78 <vsnprintf+0x78d>
 804a9d7:	8b 45 e4             	mov    -0x1c(%ebp),%eax
 804a9da:	3b 45 e0             	cmp    -0x20(%ebp),%eax
 804a9dd:	77 06                	ja     804a9e5 <vsnprintf+0x5fa>
 804a9df:	8b 45 e4             	mov    -0x1c(%ebp),%eax
 804a9e2:	c6 00 25             	movb   $0x25,(%eax)
 804a9e5:	83 45 e4 01          	addl   $0x1,-0x1c(%ebp)
 804a9e9:	e9 8a 01 00 00       	jmp    804ab78 <vsnprintf+0x78d>
 804a9ee:	c7 45 e8 08 00 00 00 	movl   $0x8,-0x18(%ebp)
 804a9f5:	eb 64                	jmp    804aa5b <vsnprintf+0x670>
 804a9f7:	83 4d d8 40          	orl    $0x40,-0x28(%ebp)
 804a9fb:	c7 45 e8 10 00 00 00 	movl   $0x10,-0x18(%ebp)
 804aa02:	eb 57                	jmp    804aa5b <vsnprintf+0x670>
 804aa04:	83 4d d8 02          	orl    $0x2,-0x28(%ebp)
 804aa08:	eb 50                	jmp    804aa5a <vsnprintf+0x66f>
 804aa0a:	b8 ff ff ff ff       	mov    $0xffffffff,%eax
 804aa0f:	e9 a6 01 00 00       	jmp    804abba <vsnprintf+0x7cf>
 804aa14:	8b 45 e4             	mov    -0x1c(%ebp),%eax
 804aa17:	3b 45 e0             	cmp    -0x20(%ebp),%eax
 804aa1a:	77 06                	ja     804aa22 <vsnprintf+0x637>
 804aa1c:	8b 45 e4             	mov    -0x1c(%ebp),%eax
 804aa1f:	c6 00 25             	movb   $0x25,(%eax)
 804aa22:	83 45 e4 01          	addl   $0x1,-0x1c(%ebp)
 804aa26:	8b 45 10             	mov    0x10(%ebp),%eax
 804aa29:	0f b6 00             	movzbl (%eax),%eax
 804aa2c:	84 c0                	test   %al,%al
 804aa2e:	74 1c                	je     804aa4c <vsnprintf+0x661>
 804aa30:	8b 45 e4             	mov    -0x1c(%ebp),%eax
 804aa33:	3b 45 e0             	cmp    -0x20(%ebp),%eax
 804aa36:	77 0b                	ja     804aa43 <vsnprintf+0x658>
 804aa38:	8b 45 10             	mov    0x10(%ebp),%eax
 804aa3b:	0f b6 10             	movzbl (%eax),%edx
 804aa3e:	8b 45 e4             	mov    -0x1c(%ebp),%eax
 804aa41:	88 10                	mov    %dl,(%eax)
 804aa43:	83 45 e4 01          	addl   $0x1,-0x1c(%ebp)
 804aa47:	e9 2c 01 00 00       	jmp    804ab78 <vsnprintf+0x78d>
 804aa4c:	8b 45 10             	mov    0x10(%ebp),%eax
 804aa4f:	83 e8 01             	sub    $0x1,%eax
 804aa52:	89 45 10             	mov    %eax,0x10(%ebp)
 804aa55:	e9 1e 01 00 00       	jmp    804ab78 <vsnprintf+0x78d>
 804aa5a:	90                   	nop
 804aa5b:	83 7d cc 4c          	cmpl   $0x4c,-0x34(%ebp)
 804aa5f:	75 19                	jne    804aa7a <vsnprintf+0x68f>
 804aa61:	8b 45 14             	mov    0x14(%ebp),%eax
 804aa64:	8d 50 08             	lea    0x8(%eax),%edx
 804aa67:	89 55 14             	mov    %edx,0x14(%ebp)
 804aa6a:	8b 50 04             	mov    0x4(%eax),%edx
 804aa6d:	8b 00                	mov    (%eax),%eax
 804aa6f:	89 45 f0             	mov    %eax,-0x10(%ebp)
 804aa72:	89 55 f4             	mov    %edx,-0xc(%ebp)
 804aa75:	e9 bf 00 00 00       	jmp    804ab39 <vsnprintf+0x74e>
 804aa7a:	83 7d cc 6c          	cmpl   $0x6c,-0x34(%ebp)
 804aa7e:	75 36                	jne    804aab6 <vsnprintf+0x6cb>
 804aa80:	8b 45 14             	mov    0x14(%ebp),%eax
 804aa83:	8d 50 04             	lea    0x4(%eax),%edx
 804aa86:	89 55 14             	mov    %edx,0x14(%ebp)
 804aa89:	8b 00                	mov    (%eax),%eax
 804aa8b:	89 45 f0             	mov    %eax,-0x10(%ebp)
 804aa8e:	c7 45 f4 00 00 00 00 	movl   $0x0,-0xc(%ebp)
 804aa95:	8b 45 d8             	mov    -0x28(%ebp),%eax
 804aa98:	83 e0 02             	and    $0x2,%eax
 804aa9b:	85 c0                	test   %eax,%eax
 804aa9d:	0f 84 96 00 00 00    	je     804ab39 <vsnprintf+0x74e>
 804aaa3:	8b 45 f0             	mov    -0x10(%ebp),%eax
 804aaa6:	89 c2                	mov    %eax,%edx
 804aaa8:	c1 fa 1f             	sar    $0x1f,%edx
 804aaab:	89 45 f0             	mov    %eax,-0x10(%ebp)
 804aaae:	89 55 f4             	mov    %edx,-0xc(%ebp)
 804aab1:	e9 83 00 00 00       	jmp    804ab39 <vsnprintf+0x74e>
 804aab6:	83 7d cc 5a          	cmpl   $0x5a,-0x34(%ebp)
 804aaba:	75 17                	jne    804aad3 <vsnprintf+0x6e8>
 804aabc:	8b 45 14             	mov    0x14(%ebp),%eax
 804aabf:	8d 50 04             	lea    0x4(%eax),%edx
 804aac2:	89 55 14             	mov    %edx,0x14(%ebp)
 804aac5:	8b 00                	mov    (%eax),%eax
 804aac7:	89 45 f0             	mov    %eax,-0x10(%ebp)
 804aaca:	c7 45 f4 00 00 00 00 	movl   $0x0,-0xc(%ebp)
 804aad1:	eb 66                	jmp    804ab39 <vsnprintf+0x74e>
 804aad3:	83 7d cc 68          	cmpl   $0x68,-0x34(%ebp)
 804aad7:	75 33                	jne    804ab0c <vsnprintf+0x721>
 804aad9:	8b 45 14             	mov    0x14(%ebp),%eax
 804aadc:	8d 50 04             	lea    0x4(%eax),%edx
 804aadf:	89 55 14             	mov    %edx,0x14(%ebp)
 804aae2:	8b 00                	mov    (%eax),%eax
 804aae4:	0f b7 c0             	movzwl %ax,%eax
 804aae7:	89 45 f0             	mov    %eax,-0x10(%ebp)
 804aaea:	c7 45 f4 00 00 00 00 	movl   $0x0,-0xc(%ebp)
 804aaf1:	8b 45 d8             	mov    -0x28(%ebp),%eax
 804aaf4:	83 e0 02             	and    $0x2,%eax
 804aaf7:	85 c0                	test   %eax,%eax
 804aaf9:	74 3e                	je     804ab39 <vsnprintf+0x74e>
 804aafb:	8b 45 f0             	mov    -0x10(%ebp),%eax
 804aafe:	98                   	cwtl   
 804aaff:	89 c2                	mov    %eax,%edx
 804ab01:	c1 fa 1f             	sar    $0x1f,%edx
 804ab04:	89 45 f0             	mov    %eax,-0x10(%ebp)
 804ab07:	89 55 f4             	mov    %edx,-0xc(%ebp)
 804ab0a:	eb 2d                	jmp    804ab39 <vsnprintf+0x74e>
 804ab0c:	8b 45 14             	mov    0x14(%ebp),%eax
 804ab0f:	8d 50 04             	lea    0x4(%eax),%edx
 804ab12:	89 55 14             	mov    %edx,0x14(%ebp)
 804ab15:	8b 00                	mov    (%eax),%eax
 804ab17:	89 45 f0             	mov    %eax,-0x10(%ebp)
 804ab1a:	c7 45 f4 00 00 00 00 	movl   $0x0,-0xc(%ebp)
 804ab21:	8b 45 d8             	mov    -0x28(%ebp),%eax
 804ab24:	83 e0 02             	and    $0x2,%eax
 804ab27:	85 c0                	test   %eax,%eax
 804ab29:	74 0e                	je     804ab39 <vsnprintf+0x74e>
 804ab2b:	8b 45 f0             	mov    -0x10(%ebp),%eax
 804ab2e:	89 c2                	mov    %eax,%edx
 804ab30:	c1 fa 1f             	sar    $0x1f,%edx
 804ab33:	89 45 f0             	mov    %eax,-0x10(%ebp)
 804ab36:	89 55 f4             	mov    %edx,-0xc(%ebp)
 804ab39:	8b 45 f0             	mov    -0x10(%ebp),%eax
 804ab3c:	8b 55 f4             	mov    -0xc(%ebp),%edx
 804ab3f:	8b 4d d8             	mov    -0x28(%ebp),%ecx
 804ab42:	89 4c 24 1c          	mov    %ecx,0x1c(%esp)
 804ab46:	8b 4d d0             	mov    -0x30(%ebp),%ecx
 804ab49:	89 4c 24 18          	mov    %ecx,0x18(%esp)
 804ab4d:	8b 4d d4             	mov    -0x2c(%ebp),%ecx
 804ab50:	89 4c 24 14          	mov    %ecx,0x14(%esp)
 804ab54:	8b 4d e8             	mov    -0x18(%ebp),%ecx
 804ab57:	89 4c 24 10          	mov    %ecx,0x10(%esp)
 804ab5b:	89 44 24 08          	mov    %eax,0x8(%esp)
 804ab5f:	89 54 24 0c          	mov    %edx,0xc(%esp)
 804ab63:	8b 45 e0             	mov    -0x20(%ebp),%eax
 804ab66:	89 44 24 04          	mov    %eax,0x4(%esp)
 804ab6a:	8b 45 e4             	mov    -0x1c(%ebp),%eax
 804ab6d:	89 04 24             	mov    %eax,(%esp)
 804ab70:	e8 b3 f4 ff ff       	call   804a028 <number>
 804ab75:	89 45 e4             	mov    %eax,-0x1c(%ebp)
 804ab78:	8b 45 10             	mov    0x10(%ebp),%eax
 804ab7b:	83 c0 01             	add    $0x1,%eax
 804ab7e:	89 45 10             	mov    %eax,0x10(%ebp)
 804ab81:	eb 01                	jmp    804ab84 <vsnprintf+0x799>
 804ab83:	90                   	nop
 804ab84:	8b 45 10             	mov    0x10(%ebp),%eax
 804ab87:	0f b6 00             	movzbl (%eax),%eax
 804ab8a:	84 c0                	test   %al,%al
 804ab8c:	0f 85 aa f8 ff ff    	jne    804a43c <vsnprintf+0x51>
 804ab92:	8b 45 e4             	mov    -0x1c(%ebp),%eax
 804ab95:	3b 45 e0             	cmp    -0x20(%ebp),%eax
 804ab98:	77 08                	ja     804aba2 <vsnprintf+0x7b7>
 804ab9a:	8b 45 e4             	mov    -0x1c(%ebp),%eax
 804ab9d:	c6 00 00             	movb   $0x0,(%eax)
 804aba0:	eb 0c                	jmp    804abae <vsnprintf+0x7c3>
 804aba2:	83 7d 0c 00          	cmpl   $0x0,0xc(%ebp)
 804aba6:	74 06                	je     804abae <vsnprintf+0x7c3>
 804aba8:	8b 45 e0             	mov    -0x20(%ebp),%eax
 804abab:	c6 00 00             	movb   $0x0,(%eax)
 804abae:	8b 55 e4             	mov    -0x1c(%ebp),%edx
 804abb1:	8b 45 08             	mov    0x8(%ebp),%eax
 804abb4:	89 d1                	mov    %edx,%ecx
 804abb6:	29 c1                	sub    %eax,%ecx
 804abb8:	89 c8                	mov    %ecx,%eax
 804abba:	83 c4 64             	add    $0x64,%esp
 804abbd:	5b                   	pop    %ebx
 804abbe:	5d                   	pop    %ebp
 804abbf:	c3                   	ret    

0804abc0 <wrterror>:
 804abc0:	55                   	push   %ebp
 804abc1:	89 e5                	mov    %esp,%ebp
 804abc3:	53                   	push   %ebx
 804abc4:	83 ec 24             	sub    $0x24,%esp
 804abc7:	e8 65 d8 ff ff       	call   8048431 <__i686.get_pc_thunk.bx>
 804abcc:	81 c3 4c 54 00 00    	add    $0x544c,%ebx
 804abd2:	8d 83 bd e0 ff ff    	lea    -0x1f43(%ebx),%eax
 804abd8:	89 45 f4             	mov    %eax,-0xc(%ebp)
 804abdb:	8b 83 4c 01 00 00    	mov    0x14c(%ebx),%eax
 804abe1:	89 04 24             	mov    %eax,(%esp)
 804abe4:	e8 98 da ff ff       	call   8048681 <strlen>
 804abe9:	8b 93 4c 01 00 00    	mov    0x14c(%ebx),%edx
 804abef:	89 44 24 08          	mov    %eax,0x8(%esp)
 804abf3:	89 54 24 04          	mov    %edx,0x4(%esp)
 804abf7:	c7 04 24 02 00 00 00 	movl   $0x2,(%esp)
 804abfe:	e8 13 eb ff ff       	call   8049716 <write>
 804ac03:	8b 83 84 02 00 00    	mov    0x284(%ebx),%eax
 804ac09:	89 04 24             	mov    %eax,(%esp)
 804ac0c:	e8 70 da ff ff       	call   8048681 <strlen>
 804ac11:	8b 93 84 02 00 00    	mov    0x284(%ebx),%edx
 804ac17:	89 44 24 08          	mov    %eax,0x8(%esp)
 804ac1b:	89 54 24 04          	mov    %edx,0x4(%esp)
 804ac1f:	c7 04 24 02 00 00 00 	movl   $0x2,(%esp)
 804ac26:	e8 eb ea ff ff       	call   8049716 <write>
 804ac2b:	8b 45 f4             	mov    -0xc(%ebp),%eax
 804ac2e:	89 04 24             	mov    %eax,(%esp)
 804ac31:	e8 4b da ff ff       	call   8048681 <strlen>
 804ac36:	89 44 24 08          	mov    %eax,0x8(%esp)
 804ac3a:	8b 45 f4             	mov    -0xc(%ebp),%eax
 804ac3d:	89 44 24 04          	mov    %eax,0x4(%esp)
 804ac41:	c7 04 24 02 00 00 00 	movl   $0x2,(%esp)
 804ac48:	e8 c9 ea ff ff       	call   8049716 <write>
 804ac4d:	8b 45 08             	mov    0x8(%ebp),%eax
 804ac50:	89 04 24             	mov    %eax,(%esp)
 804ac53:	e8 29 da ff ff       	call   8048681 <strlen>
 804ac58:	89 44 24 08          	mov    %eax,0x8(%esp)
 804ac5c:	8b 45 08             	mov    0x8(%ebp),%eax
 804ac5f:	89 44 24 04          	mov    %eax,0x4(%esp)
 804ac63:	c7 04 24 02 00 00 00 	movl   $0x2,(%esp)
 804ac6a:	e8 a7 ea ff ff       	call   8049716 <write>
 804ac6f:	c7 83 60 02 00 00 01 	movl   $0x1,0x260(%ebx)
 804ac76:	00 00 00 
 804ac79:	c7 04 24 01 00 00 00 	movl   $0x1,(%esp)
 804ac80:	e8 eb e5 ff ff       	call   8049270 <exit>
 804ac85:	83 c4 24             	add    $0x24,%esp
 804ac88:	5b                   	pop    %ebx
 804ac89:	5d                   	pop    %ebp
 804ac8a:	c3                   	ret    

0804ac8b <wrtwarning>:
 804ac8b:	55                   	push   %ebp
 804ac8c:	89 e5                	mov    %esp,%ebp
 804ac8e:	53                   	push   %ebx
 804ac8f:	83 ec 24             	sub    $0x24,%esp
 804ac92:	e8 9a d7 ff ff       	call   8048431 <__i686.get_pc_thunk.bx>
 804ac97:	81 c3 81 53 00 00    	add    $0x5381,%ebx
 804ac9d:	8d 83 c6 e0 ff ff    	lea    -0x1f3a(%ebx),%eax
 804aca3:	89 45 f4             	mov    %eax,-0xc(%ebp)
 804aca6:	8b 83 5c 02 00 00    	mov    0x25c(%ebx),%eax
 804acac:	85 c0                	test   %eax,%eax
 804acae:	74 0b                	je     804acbb <wrtwarning+0x30>
 804acb0:	8b 45 08             	mov    0x8(%ebp),%eax
 804acb3:	89 04 24             	mov    %eax,(%esp)
 804acb6:	e8 05 ff ff ff       	call   804abc0 <wrterror>
 804acbb:	8b 83 4c 01 00 00    	mov    0x14c(%ebx),%eax
 804acc1:	89 04 24             	mov    %eax,(%esp)
 804acc4:	e8 b8 d9 ff ff       	call   8048681 <strlen>
 804acc9:	8b 93 4c 01 00 00    	mov    0x14c(%ebx),%edx
 804accf:	89 44 24 08          	mov    %eax,0x8(%esp)
 804acd3:	89 54 24 04          	mov    %edx,0x4(%esp)
 804acd7:	c7 04 24 02 00 00 00 	movl   $0x2,(%esp)
 804acde:	e8 33 ea ff ff       	call   8049716 <write>
 804ace3:	8b 83 84 02 00 00    	mov    0x284(%ebx),%eax
 804ace9:	89 04 24             	mov    %eax,(%esp)
 804acec:	e8 90 d9 ff ff       	call   8048681 <strlen>
 804acf1:	8b 93 84 02 00 00    	mov    0x284(%ebx),%edx
 804acf7:	89 44 24 08          	mov    %eax,0x8(%esp)
 804acfb:	89 54 24 04          	mov    %edx,0x4(%esp)
 804acff:	c7 04 24 02 00 00 00 	movl   $0x2,(%esp)
 804ad06:	e8 0b ea ff ff       	call   8049716 <write>
 804ad0b:	8b 45 f4             	mov    -0xc(%ebp),%eax
 804ad0e:	89 04 24             	mov    %eax,(%esp)
 804ad11:	e8 6b d9 ff ff       	call   8048681 <strlen>
 804ad16:	89 44 24 08          	mov    %eax,0x8(%esp)
 804ad1a:	8b 45 f4             	mov    -0xc(%ebp),%eax
 804ad1d:	89 44 24 04          	mov    %eax,0x4(%esp)
 804ad21:	c7 04 24 02 00 00 00 	movl   $0x2,(%esp)
 804ad28:	e8 e9 e9 ff ff       	call   8049716 <write>
 804ad2d:	8b 45 08             	mov    0x8(%ebp),%eax
 804ad30:	89 04 24             	mov    %eax,(%esp)
 804ad33:	e8 49 d9 ff ff       	call   8048681 <strlen>
 804ad38:	89 44 24 08          	mov    %eax,0x8(%esp)
 804ad3c:	8b 45 08             	mov    0x8(%ebp),%eax
 804ad3f:	89 44 24 04          	mov    %eax,0x4(%esp)
 804ad43:	c7 04 24 02 00 00 00 	movl   $0x2,(%esp)
 804ad4a:	e8 c7 e9 ff ff       	call   8049716 <write>
 804ad4f:	83 c4 24             	add    $0x24,%esp
 804ad52:	5b                   	pop    %ebx
 804ad53:	5d                   	pop    %ebp
 804ad54:	c3                   	ret    

0804ad55 <map_pages>:
 804ad55:	55                   	push   %ebp
 804ad56:	89 e5                	mov    %esp,%ebp
 804ad58:	53                   	push   %ebx
 804ad59:	83 ec 24             	sub    $0x24,%esp
 804ad5c:	e8 d0 d6 ff ff       	call   8048431 <__i686.get_pc_thunk.bx>
 804ad61:	81 c3 b7 52 00 00    	add    $0x52b7,%ebx
 804ad67:	c7 04 24 00 00 00 00 	movl   $0x0,(%esp)
 804ad6e:	e8 d5 e2 ff ff       	call   8049048 <sbrk>
 804ad73:	05 ff 0f 00 00       	add    $0xfff,%eax
 804ad78:	25 00 f0 ff ff       	and    $0xfffff000,%eax
 804ad7d:	89 45 f4             	mov    %eax,-0xc(%ebp)
 804ad80:	8b 45 08             	mov    0x8(%ebp),%eax
 804ad83:	c1 e0 0c             	shl    $0xc,%eax
 804ad86:	03 45 f4             	add    -0xc(%ebp),%eax
 804ad89:	89 45 f0             	mov    %eax,-0x10(%ebp)
 804ad8c:	8b 45 f0             	mov    -0x10(%ebp),%eax
 804ad8f:	89 04 24             	mov    %eax,(%esp)
 804ad92:	e8 81 e3 ff ff       	call   8049118 <brk>
 804ad97:	85 c0                	test   %eax,%eax
 804ad99:	74 07                	je     804ada2 <map_pages+0x4d>
 804ad9b:	b8 00 00 00 00       	mov    $0x0,%eax
 804ada0:	eb 55                	jmp    804adf7 <map_pages+0xa2>
 804ada2:	8b 45 f0             	mov    -0x10(%ebp),%eax
 804ada5:	89 c2                	mov    %eax,%edx
 804ada7:	c1 ea 0c             	shr    $0xc,%edx
 804adaa:	8b 83 38 02 00 00    	mov    0x238(%ebx),%eax
 804adb0:	89 d1                	mov    %edx,%ecx
 804adb2:	29 c1                	sub    %eax,%ecx
 804adb4:	89 c8                	mov    %ecx,%eax
 804adb6:	83 e8 01             	sub    $0x1,%eax
 804adb9:	89 83 3c 02 00 00    	mov    %eax,0x23c(%ebx)
 804adbf:	8b 45 f0             	mov    -0x10(%ebp),%eax
 804adc2:	89 83 7c 02 00 00    	mov    %eax,0x27c(%ebx)
 804adc8:	8b 83 3c 02 00 00    	mov    0x23c(%ebx),%eax
 804adce:	8d 50 01             	lea    0x1(%eax),%edx
 804add1:	8b 83 44 02 00 00    	mov    0x244(%ebx),%eax
 804add7:	39 c2                	cmp    %eax,%edx
 804add9:	72 19                	jb     804adf4 <map_pages+0x9f>
 804addb:	8b 83 3c 02 00 00    	mov    0x23c(%ebx),%eax
 804ade1:	89 04 24             	mov    %eax,(%esp)
 804ade4:	e8 14 00 00 00       	call   804adfd <extend_pgdir>
 804ade9:	85 c0                	test   %eax,%eax
 804adeb:	75 07                	jne    804adf4 <map_pages+0x9f>
 804aded:	b8 00 00 00 00       	mov    $0x0,%eax
 804adf2:	eb 03                	jmp    804adf7 <map_pages+0xa2>
 804adf4:	8b 45 f4             	mov    -0xc(%ebp),%eax
 804adf7:	83 c4 24             	add    $0x24,%esp
 804adfa:	5b                   	pop    %ebx
 804adfb:	5d                   	pop    %ebp
 804adfc:	c3                   	ret    

0804adfd <extend_pgdir>:
 804adfd:	55                   	push   %ebp
 804adfe:	89 e5                	mov    %esp,%ebp
 804ae00:	53                   	push   %ebx
 804ae01:	83 ec 34             	sub    $0x34,%esp
 804ae04:	e8 28 d6 ff ff       	call   8048431 <__i686.get_pc_thunk.bx>
 804ae09:	81 c3 0f 52 00 00    	add    $0x520f,%ebx
 804ae0f:	8b 45 08             	mov    0x8(%ebp),%eax
 804ae12:	c1 e0 02             	shl    $0x2,%eax
 804ae15:	89 45 f4             	mov    %eax,-0xc(%ebp)
 804ae18:	8b 45 f4             	mov    -0xc(%ebp),%eax
 804ae1b:	c1 e8 0c             	shr    $0xc,%eax
 804ae1e:	89 45 f4             	mov    %eax,-0xc(%ebp)
 804ae21:	83 45 f4 02          	addl   $0x2,-0xc(%ebp)
 804ae25:	8b 83 44 02 00 00    	mov    0x244(%ebx),%eax
 804ae2b:	c1 e0 02             	shl    $0x2,%eax
 804ae2e:	89 45 f0             	mov    %eax,-0x10(%ebp)
 804ae31:	8b 83 2c 02 00 00    	mov    0x22c(%ebx),%eax
 804ae37:	8b 55 f4             	mov    -0xc(%ebp),%edx
 804ae3a:	c1 e2 0c             	shl    $0xc,%edx
 804ae3d:	c7 44 24 14 00 00 00 	movl   $0x0,0x14(%esp)
 804ae44:	00 
 804ae45:	89 44 24 10          	mov    %eax,0x10(%esp)
 804ae49:	c7 44 24 0c 02 00 00 	movl   $0x2,0xc(%esp)
 804ae50:	00 
 804ae51:	c7 44 24 08 03 00 00 	movl   $0x3,0x8(%esp)
 804ae58:	00 
 804ae59:	89 54 24 04          	mov    %edx,0x4(%esp)
 804ae5d:	c7 04 24 00 00 00 00 	movl   $0x0,(%esp)
 804ae64:	e8 53 e6 ff ff       	call   80494bc <mmap>
 804ae69:	89 45 ec             	mov    %eax,-0x14(%ebp)
 804ae6c:	83 7d ec ff          	cmpl   $0xffffffff,-0x14(%ebp)
 804ae70:	75 07                	jne    804ae79 <extend_pgdir+0x7c>
 804ae72:	b8 00 00 00 00       	mov    $0x0,%eax
 804ae77:	eb 5e                	jmp    804aed7 <extend_pgdir+0xda>
 804ae79:	8b 83 44 02 00 00    	mov    0x244(%ebx),%eax
 804ae7f:	8d 14 85 00 00 00 00 	lea    0x0(,%eax,4),%edx
 804ae86:	8b 83 40 02 00 00    	mov    0x240(%ebx),%eax
 804ae8c:	89 54 24 08          	mov    %edx,0x8(%esp)
 804ae90:	89 44 24 04          	mov    %eax,0x4(%esp)
 804ae94:	8b 45 ec             	mov    -0x14(%ebp),%eax
 804ae97:	89 04 24             	mov    %eax,(%esp)
 804ae9a:	e8 e7 d5 ff ff       	call   8048486 <memcpy>
 804ae9f:	8b 45 f4             	mov    -0xc(%ebp),%eax
 804aea2:	c1 e0 0c             	shl    $0xc,%eax
 804aea5:	c1 e8 02             	shr    $0x2,%eax
 804aea8:	89 83 44 02 00 00    	mov    %eax,0x244(%ebx)
 804aeae:	8b 83 40 02 00 00    	mov    0x240(%ebx),%eax
 804aeb4:	89 45 e8             	mov    %eax,-0x18(%ebp)
 804aeb7:	8b 45 ec             	mov    -0x14(%ebp),%eax
 804aeba:	89 83 40 02 00 00    	mov    %eax,0x240(%ebx)
 804aec0:	8b 45 f0             	mov    -0x10(%ebp),%eax
 804aec3:	89 44 24 04          	mov    %eax,0x4(%esp)
 804aec7:	8b 45 e8             	mov    -0x18(%ebp),%eax
 804aeca:	89 04 24             	mov    %eax,(%esp)
 804aecd:	e8 5f e6 ff ff       	call   8049531 <munmap>
 804aed2:	b8 01 00 00 00       	mov    $0x1,%eax
 804aed7:	83 c4 34             	add    $0x34,%esp
 804aeda:	5b                   	pop    %ebx
 804aedb:	5d                   	pop    %ebp
 804aedc:	c3                   	ret    

0804aedd <malloc_init>:
 804aedd:	55                   	push   %ebp
 804aede:	89 e5                	mov    %esp,%ebp
 804aee0:	53                   	push   %ebx
 804aee1:	83 ec 34             	sub    $0x34,%esp
 804aee4:	e8 48 d5 ff ff       	call   8048431 <__i686.get_pc_thunk.bx>
 804aee9:	81 c3 2f 51 00 00    	add    $0x512f,%ebx
 804aeef:	c7 44 24 08 00 00 00 	movl   $0x0,0x8(%esp)
 804aef6:	00 
 804aef7:	c7 44 24 04 02 00 00 	movl   $0x2,0x4(%esp)
 804aefe:	00 
 804aeff:	8d 83 d1 e0 ff ff    	lea    -0x1f2f(%ebx),%eax
 804af05:	89 04 24             	mov    %eax,(%esp)
 804af08:	e8 d0 e6 ff ff       	call   80495dd <open>
 804af0d:	89 83 2c 02 00 00    	mov    %eax,0x22c(%ebx)
 804af13:	8b 83 2c 02 00 00    	mov    0x22c(%ebx),%eax
 804af19:	83 f8 ff             	cmp    $0xffffffff,%eax
 804af1c:	75 0e                	jne    804af2c <malloc_init+0x4f>
 804af1e:	8d 83 db e0 ff ff    	lea    -0x1f25(%ebx),%eax
 804af24:	89 04 24             	mov    %eax,(%esp)
 804af27:	e8 94 fc ff ff       	call   804abc0 <wrterror>
 804af2c:	c7 45 f0 00 00 00 00 	movl   $0x0,-0x10(%ebp)
 804af33:	e9 7f 02 00 00       	jmp    804b1b7 <malloc_init+0x2da>
 804af38:	83 7d f0 00          	cmpl   $0x0,-0x10(%ebp)
 804af3c:	75 0c                	jne    804af4a <malloc_init+0x6d>
 804af3e:	c7 45 f4 00 00 00 00 	movl   $0x0,-0xc(%ebp)
 804af45:	e9 55 02 00 00       	jmp    804b19f <malloc_init+0x2c2>
 804af4a:	83 7d f0 01          	cmpl   $0x1,-0x10(%ebp)
 804af4e:	75 0c                	jne    804af5c <malloc_init+0x7f>
 804af50:	c7 45 f4 00 00 00 00 	movl   $0x0,-0xc(%ebp)
 804af57:	e9 43 02 00 00       	jmp    804b19f <malloc_init+0x2c2>
 804af5c:	8b 83 f8 ff ff ff    	mov    -0x8(%ebx),%eax
 804af62:	8b 00                	mov    (%eax),%eax
 804af64:	89 45 f4             	mov    %eax,-0xc(%ebp)
 804af67:	e9 33 02 00 00       	jmp    804b19f <malloc_init+0x2c2>
 804af6c:	8b 45 f4             	mov    -0xc(%ebp),%eax
 804af6f:	0f b6 00             	movzbl (%eax),%eax
 804af72:	0f be c0             	movsbl %al,%eax
 804af75:	83 e8 3c             	sub    $0x3c,%eax
 804af78:	83 f8 3e             	cmp    $0x3e,%eax
 804af7b:	0f 87 ef 01 00 00    	ja     804b170 <malloc_init+0x293>
 804af81:	c1 e0 02             	shl    $0x2,%eax
 804af84:	8b 84 18 7c af ff ff 	mov    -0x5084(%eax,%ebx,1),%eax
 804af8b:	89 da                	mov    %ebx,%edx
 804af8d:	29 c2                	sub    %eax,%edx
 804af8f:	89 d0                	mov    %edx,%eax
 804af91:	ff e0                	jmp    *%eax
 804af93:	90                   	nop
 804af94:	75 4f                	jne    804afe5 <malloc_init+0x108>
 804af96:	00 00                	add    %al,(%eax)
 804af98:	a8 4e                	test   $0x4e,%al
 804af9a:	00 00                	add    %al,(%eax)
 804af9c:	88 4f 00             	mov    %cl,0x0(%edi)
 804af9f:	00 a8 4e 00 00 a8    	add    %ch,-0x57ffffb2(%eax)
 804afa5:	4e                   	dec    %esi
 804afa6:	00 00                	add    %al,(%eax)
 804afa8:	53                   	push   %ebx
 804afa9:	4f                   	dec    %edi
 804afaa:	00 00                	add    %al,(%eax)
 804afac:	a8 4e                	test   $0x4e,%al
 804afae:	00 00                	add    %al,(%eax)
 804afb0:	a8 4e                	test   $0x4e,%al
 804afb2:	00 00                	add    %al,(%eax)
 804afb4:	a8 4e                	test   $0x4e,%al
 804afb6:	00 00                	add    %al,(%eax)
 804afb8:	a8 4e                	test   $0x4e,%al
 804afba:	00 00                	add    %al,(%eax)
 804afbc:	a8 4e                	test   $0x4e,%al
 804afbe:	00 00                	add    %al,(%eax)
 804afc0:	a8 4e                	test   $0x4e,%al
 804afc2:	00 00                	add    %al,(%eax)
 804afc4:	35 4f 00 00 a8       	xor    $0xa800004f,%eax
 804afc9:	4e                   	dec    %esi
 804afca:	00 00                	add    %al,(%eax)
 804afcc:	fc                   	cld    
 804afcd:	4e                   	dec    %esi
 804afce:	00 00                	add    %al,(%eax)
 804afd0:	a8 4e                	test   $0x4e,%al
 804afd2:	00 00                	add    %al,(%eax)
 804afd4:	a8 4e                	test   $0x4e,%al
 804afd6:	00 00                	add    %al,(%eax)
 804afd8:	a8 4e                	test   $0x4e,%al
 804afda:	00 00                	add    %al,(%eax)
 804afdc:	a8 4e                	test   $0x4e,%al
 804afde:	00 00                	add    %al,(%eax)
 804afe0:	a8 4e                	test   $0x4e,%al
 804afe2:	00 00                	add    %al,(%eax)
 804afe4:	a8 4e                	test   $0x4e,%al
 804afe6:	00 00                	add    %al,(%eax)
 804afe8:	a8 4e                	test   $0x4e,%al
 804afea:	00 00                	add    %al,(%eax)
 804afec:	17                   	pop    %ss
 804afed:	4f                   	dec    %edi
 804afee:	00 00                	add    %al,(%eax)
 804aff0:	a8 4e                	test   $0x4e,%al
 804aff2:	00 00                	add    %al,(%eax)
 804aff4:	a8 4e                	test   $0x4e,%al
 804aff6:	00 00                	add    %al,(%eax)
 804aff8:	a8 4e                	test   $0x4e,%al
 804affa:	00 00                	add    %al,(%eax)
 804affc:	e4 4e                	in     $0x4e,%al
 804affe:	00 00                	add    %al,(%eax)
 804b000:	a8 4e                	test   $0x4e,%al
 804b002:	00 00                	add    %al,(%eax)
 804b004:	cc                   	int3   
 804b005:	4e                   	dec    %esi
 804b006:	00 00                	add    %al,(%eax)
 804b008:	a8 4e                	test   $0x4e,%al
 804b00a:	00 00                	add    %al,(%eax)
 804b00c:	b4 4e                	mov    $0x4e,%ah
 804b00e:	00 00                	add    %al,(%eax)
 804b010:	a8 4e                	test   $0x4e,%al
 804b012:	00 00                	add    %al,(%eax)
 804b014:	a8 4e                	test   $0x4e,%al
 804b016:	00 00                	add    %al,(%eax)
 804b018:	a8 4e                	test   $0x4e,%al
 804b01a:	00 00                	add    %al,(%eax)
 804b01c:	a8 4e                	test   $0x4e,%al
 804b01e:	00 00                	add    %al,(%eax)
 804b020:	a8 4e                	test   $0x4e,%al
 804b022:	00 00                	add    %al,(%eax)
 804b024:	a8 4e                	test   $0x4e,%al
 804b026:	00 00                	add    %al,(%eax)
 804b028:	62 4f 00             	bound  %ecx,0x0(%edi)
 804b02b:	00 a8 4e 00 00 a8    	add    %ch,-0x57ffffb2(%eax)
 804b031:	4e                   	dec    %esi
 804b032:	00 00                	add    %al,(%eax)
 804b034:	a8 4e                	test   $0x4e,%al
 804b036:	00 00                	add    %al,(%eax)
 804b038:	a8 4e                	test   $0x4e,%al
 804b03a:	00 00                	add    %al,(%eax)
 804b03c:	a8 4e                	test   $0x4e,%al
 804b03e:	00 00                	add    %al,(%eax)
 804b040:	a8 4e                	test   $0x4e,%al
 804b042:	00 00                	add    %al,(%eax)
 804b044:	44                   	inc    %esp
 804b045:	4f                   	dec    %edi
 804b046:	00 00                	add    %al,(%eax)
 804b048:	a8 4e                	test   $0x4e,%al
 804b04a:	00 00                	add    %al,(%eax)
 804b04c:	08 4f 00             	or     %cl,0x0(%edi)
 804b04f:	00 a8 4e 00 00 a8    	add    %ch,-0x57ffffb2(%eax)
 804b055:	4e                   	dec    %esi
 804b056:	00 00                	add    %al,(%eax)
 804b058:	a8 4e                	test   $0x4e,%al
 804b05a:	00 00                	add    %al,(%eax)
 804b05c:	a8 4e                	test   $0x4e,%al
 804b05e:	00 00                	add    %al,(%eax)
 804b060:	a8 4e                	test   $0x4e,%al
 804b062:	00 00                	add    %al,(%eax)
 804b064:	a8 4e                	test   $0x4e,%al
 804b066:	00 00                	add    %al,(%eax)
 804b068:	a8 4e                	test   $0x4e,%al
 804b06a:	00 00                	add    %al,(%eax)
 804b06c:	26                   	es
 804b06d:	4f                   	dec    %edi
 804b06e:	00 00                	add    %al,(%eax)
 804b070:	a8 4e                	test   $0x4e,%al
 804b072:	00 00                	add    %al,(%eax)
 804b074:	a8 4e                	test   $0x4e,%al
 804b076:	00 00                	add    %al,(%eax)
 804b078:	a8 4e                	test   $0x4e,%al
 804b07a:	00 00                	add    %al,(%eax)
 804b07c:	f0 4e                	lock dec %esi
 804b07e:	00 00                	add    %al,(%eax)
 804b080:	a8 4e                	test   $0x4e,%al
 804b082:	00 00                	add    %al,(%eax)
 804b084:	d8 4e 00             	fmuls  0x0(%esi)
 804b087:	00 a8 4e 00 00 c0    	add    %ch,-0x3fffffb2(%eax)
 804b08d:	4e                   	dec    %esi
 804b08e:	00 00                	add    %al,(%eax)
 804b090:	8b 83 48 01 00 00    	mov    0x148(%ebx),%eax
 804b096:	01 c0                	add    %eax,%eax
 804b098:	89 83 48 01 00 00    	mov    %eax,0x148(%ebx)
 804b09e:	e9 f8 00 00 00       	jmp    804b19b <malloc_init+0x2be>
 804b0a3:	8b 83 48 01 00 00    	mov    0x148(%ebx),%eax
 804b0a9:	d1 e8                	shr    %eax
 804b0ab:	89 83 48 01 00 00    	mov    %eax,0x148(%ebx)
 804b0b1:	e9 e5 00 00 00       	jmp    804b19b <malloc_init+0x2be>
 804b0b6:	c7 83 5c 02 00 00 00 	movl   $0x0,0x25c(%ebx)
 804b0bd:	00 00 00 
 804b0c0:	e9 d6 00 00 00       	jmp    804b19b <malloc_init+0x2be>
 804b0c5:	c7 83 5c 02 00 00 01 	movl   $0x1,0x25c(%ebx)
 804b0cc:	00 00 00 
 804b0cf:	e9 c7 00 00 00       	jmp    804b19b <malloc_init+0x2be>
 804b0d4:	c7 83 68 02 00 00 00 	movl   $0x0,0x268(%ebx)
 804b0db:	00 00 00 
 804b0de:	e9 b8 00 00 00       	jmp    804b19b <malloc_init+0x2be>
 804b0e3:	c7 83 68 02 00 00 01 	movl   $0x1,0x268(%ebx)
 804b0ea:	00 00 00 
 804b0ed:	e9 a9 00 00 00       	jmp    804b19b <malloc_init+0x2be>
 804b0f2:	c7 83 64 02 00 00 00 	movl   $0x0,0x264(%ebx)
 804b0f9:	00 00 00 
 804b0fc:	e9 9a 00 00 00       	jmp    804b19b <malloc_init+0x2be>
 804b101:	c7 83 64 02 00 00 01 	movl   $0x1,0x264(%ebx)
 804b108:	00 00 00 
 804b10b:	e9 8b 00 00 00       	jmp    804b19b <malloc_init+0x2be>
 804b110:	c7 83 78 02 00 00 00 	movl   $0x0,0x278(%ebx)
 804b117:	00 00 00 
 804b11a:	eb 7f                	jmp    804b19b <malloc_init+0x2be>
 804b11c:	c7 83 78 02 00 00 01 	movl   $0x1,0x278(%ebx)
 804b123:	00 00 00 
 804b126:	eb 73                	jmp    804b19b <malloc_init+0x2be>
 804b128:	c7 83 70 02 00 00 00 	movl   $0x0,0x270(%ebx)
 804b12f:	00 00 00 
 804b132:	eb 67                	jmp    804b19b <malloc_init+0x2be>
 804b134:	c7 83 70 02 00 00 01 	movl   $0x1,0x270(%ebx)
 804b13b:	00 00 00 
 804b13e:	eb 5b                	jmp    804b19b <malloc_init+0x2be>
 804b140:	c7 83 6c 02 00 00 00 	movl   $0x0,0x26c(%ebx)
 804b147:	00 00 00 
 804b14a:	eb 4f                	jmp    804b19b <malloc_init+0x2be>
 804b14c:	c7 83 6c 02 00 00 01 	movl   $0x1,0x26c(%ebx)
 804b153:	00 00 00 
 804b156:	eb 43                	jmp    804b19b <malloc_init+0x2be>
 804b158:	c7 83 74 02 00 00 00 	movl   $0x0,0x274(%ebx)
 804b15f:	00 00 00 
 804b162:	eb 37                	jmp    804b19b <malloc_init+0x2be>
 804b164:	c7 83 74 02 00 00 01 	movl   $0x1,0x274(%ebx)
 804b16b:	00 00 00 
 804b16e:	eb 2b                	jmp    804b19b <malloc_init+0x2be>
 804b170:	8b 83 5c 02 00 00    	mov    0x25c(%ebx),%eax
 804b176:	89 45 ec             	mov    %eax,-0x14(%ebp)
 804b179:	c7 83 5c 02 00 00 00 	movl   $0x0,0x25c(%ebx)
 804b180:	00 00 00 
 804b183:	8d 83 f0 e0 ff ff    	lea    -0x1f10(%ebx),%eax
 804b189:	89 04 24             	mov    %eax,(%esp)
 804b18c:	e8 fa fa ff ff       	call   804ac8b <wrtwarning>
 804b191:	8b 45 ec             	mov    -0x14(%ebp),%eax
 804b194:	89 83 5c 02 00 00    	mov    %eax,0x25c(%ebx)
 804b19a:	90                   	nop
 804b19b:	83 45 f4 01          	addl   $0x1,-0xc(%ebp)
 804b19f:	83 7d f4 00          	cmpl   $0x0,-0xc(%ebp)
 804b1a3:	74 0e                	je     804b1b3 <malloc_init+0x2d6>
 804b1a5:	8b 45 f4             	mov    -0xc(%ebp),%eax
 804b1a8:	0f b6 00             	movzbl (%eax),%eax
 804b1ab:	84 c0                	test   %al,%al
 804b1ad:	0f 85 b9 fd ff ff    	jne    804af6c <malloc_init+0x8f>
 804b1b3:	83 45 f0 01          	addl   $0x1,-0x10(%ebp)
 804b1b7:	83 7d f0 02          	cmpl   $0x2,-0x10(%ebp)
 804b1bb:	0f 8e 77 fd ff ff    	jle    804af38 <malloc_init+0x5b>
 804b1c1:	8b 83 74 02 00 00    	mov    0x274(%ebx),%eax
 804b1c7:	85 c0                	test   %eax,%eax
 804b1c9:	74 0a                	je     804b1d5 <malloc_init+0x2f8>
 804b1cb:	c7 83 78 02 00 00 01 	movl   $0x1,0x278(%ebx)
 804b1d2:	00 00 00 
 804b1d5:	8b 83 78 02 00 00    	mov    0x278(%ebx),%eax
 804b1db:	85 c0                	test   %eax,%eax
 804b1dd:	74 0a                	je     804b1e9 <malloc_init+0x30c>
 804b1df:	c7 83 64 02 00 00 01 	movl   $0x1,0x264(%ebx)
 804b1e6:	00 00 00 
 804b1e9:	8b 83 2c 02 00 00    	mov    0x22c(%ebx),%eax
 804b1ef:	c7 44 24 14 00 00 00 	movl   $0x0,0x14(%esp)
 804b1f6:	00 
 804b1f7:	89 44 24 10          	mov    %eax,0x10(%esp)
 804b1fb:	c7 44 24 0c 02 00 00 	movl   $0x2,0xc(%esp)
 804b202:	00 
 804b203:	c7 44 24 08 03 00 00 	movl   $0x3,0x8(%esp)
 804b20a:	00 
 804b20b:	c7 44 24 04 00 10 00 	movl   $0x1000,0x4(%esp)
 804b212:	00 
 804b213:	c7 04 24 00 00 00 00 	movl   $0x0,(%esp)
 804b21a:	e8 9d e2 ff ff       	call   80494bc <mmap>
 804b21f:	89 83 40 02 00 00    	mov    %eax,0x240(%ebx)
 804b225:	8b 83 40 02 00 00    	mov    0x240(%ebx),%eax
 804b22b:	83 f8 ff             	cmp    $0xffffffff,%eax
 804b22e:	75 0e                	jne    804b23e <malloc_init+0x361>
 804b230:	8d 83 10 e1 ff ff    	lea    -0x1ef0(%ebx),%eax
 804b236:	89 04 24             	mov    %eax,(%esp)
 804b239:	e8 82 f9 ff ff       	call   804abc0 <wrterror>
 804b23e:	c7 04 24 00 00 00 00 	movl   $0x0,(%esp)
 804b245:	e8 fe dd ff ff       	call   8049048 <sbrk>
 804b24a:	05 ff 0f 00 00       	add    $0xfff,%eax
 804b24f:	c1 e8 0c             	shr    $0xc,%eax
 804b252:	89 83 38 02 00 00    	mov    %eax,0x238(%ebx)
 804b258:	8b 83 38 02 00 00    	mov    0x238(%ebx),%eax
 804b25e:	83 e8 0c             	sub    $0xc,%eax
 804b261:	89 83 38 02 00 00    	mov    %eax,0x238(%ebx)
 804b267:	c7 83 44 02 00 00 00 	movl   $0x400,0x244(%ebx)
 804b26e:	04 00 00 
 804b271:	8b 83 48 01 00 00    	mov    0x148(%ebx),%eax
 804b277:	85 c0                	test   %eax,%eax
 804b279:	75 0f                	jne    804b28a <malloc_init+0x3ad>
 804b27b:	8b 83 48 01 00 00    	mov    0x148(%ebx),%eax
 804b281:	83 c0 01             	add    $0x1,%eax
 804b284:	89 83 48 01 00 00    	mov    %eax,0x148(%ebx)
 804b28a:	8b 83 48 01 00 00    	mov    0x148(%ebx),%eax
 804b290:	c1 e0 0c             	shl    $0xc,%eax
 804b293:	89 83 48 01 00 00    	mov    %eax,0x148(%ebx)
 804b299:	c7 04 24 14 00 00 00 	movl   $0x14,(%esp)
 804b2a0:	e8 b9 07 00 00       	call   804ba5e <imalloc>
 804b2a5:	89 83 80 02 00 00    	mov    %eax,0x280(%ebx)
 804b2ab:	8b 83 30 02 00 00    	mov    0x230(%ebx),%eax
 804b2b1:	83 c0 01             	add    $0x1,%eax
 804b2b4:	89 83 30 02 00 00    	mov    %eax,0x230(%ebx)
 804b2ba:	83 c4 34             	add    $0x34,%esp
 804b2bd:	5b                   	pop    %ebx
 804b2be:	5d                   	pop    %ebp
 804b2bf:	c3                   	ret    

0804b2c0 <malloc_pages>:
 804b2c0:	55                   	push   %ebp
 804b2c1:	89 e5                	mov    %esp,%ebp
 804b2c3:	53                   	push   %ebx
 804b2c4:	83 ec 34             	sub    $0x34,%esp
 804b2c7:	e8 65 d1 ff ff       	call   8048431 <__i686.get_pc_thunk.bx>
 804b2cc:	81 c3 4c 4d 00 00    	add    $0x4d4c,%ebx
 804b2d2:	c7 45 f0 00 00 00 00 	movl   $0x0,-0x10(%ebp)
 804b2d9:	8b 45 08             	mov    0x8(%ebp),%eax
 804b2dc:	05 ff 0f 00 00       	add    $0xfff,%eax
 804b2e1:	25 00 f0 ff ff       	and    $0xfffff000,%eax
 804b2e6:	89 45 08             	mov    %eax,0x8(%ebp)
 804b2e9:	c7 45 f4 00 00 00 00 	movl   $0x0,-0xc(%ebp)
 804b2f0:	8b 83 48 02 00 00    	mov    0x248(%ebx),%eax
 804b2f6:	89 45 e8             	mov    %eax,-0x18(%ebp)
 804b2f9:	e9 82 00 00 00       	jmp    804b380 <malloc_pages+0xc0>
 804b2fe:	8b 45 e8             	mov    -0x18(%ebp),%eax
 804b301:	8b 40 10             	mov    0x10(%eax),%eax
 804b304:	3b 45 08             	cmp    0x8(%ebp),%eax
 804b307:	73 0a                	jae    804b313 <malloc_pages+0x53>
 804b309:	8b 45 e8             	mov    -0x18(%ebp),%eax
 804b30c:	8b 00                	mov    (%eax),%eax
 804b30e:	89 45 e8             	mov    %eax,-0x18(%ebp)
 804b311:	eb 6d                	jmp    804b380 <malloc_pages+0xc0>
 804b313:	8b 45 e8             	mov    -0x18(%ebp),%eax
 804b316:	8b 40 10             	mov    0x10(%eax),%eax
 804b319:	3b 45 08             	cmp    0x8(%ebp),%eax
 804b31c:	75 35                	jne    804b353 <malloc_pages+0x93>
 804b31e:	8b 45 e8             	mov    -0x18(%ebp),%eax
 804b321:	8b 40 08             	mov    0x8(%eax),%eax
 804b324:	89 45 f4             	mov    %eax,-0xc(%ebp)
 804b327:	8b 45 e8             	mov    -0x18(%ebp),%eax
 804b32a:	8b 00                	mov    (%eax),%eax
 804b32c:	85 c0                	test   %eax,%eax
 804b32e:	74 0e                	je     804b33e <malloc_pages+0x7e>
 804b330:	8b 45 e8             	mov    -0x18(%ebp),%eax
 804b333:	8b 00                	mov    (%eax),%eax
 804b335:	8b 55 e8             	mov    -0x18(%ebp),%edx
 804b338:	8b 52 04             	mov    0x4(%edx),%edx
 804b33b:	89 50 04             	mov    %edx,0x4(%eax)
 804b33e:	8b 45 e8             	mov    -0x18(%ebp),%eax
 804b341:	8b 40 04             	mov    0x4(%eax),%eax
 804b344:	8b 55 e8             	mov    -0x18(%ebp),%edx
 804b347:	8b 12                	mov    (%edx),%edx
 804b349:	89 10                	mov    %edx,(%eax)
 804b34b:	8b 45 e8             	mov    -0x18(%ebp),%eax
 804b34e:	89 45 f0             	mov    %eax,-0x10(%ebp)
 804b351:	eb 37                	jmp    804b38a <malloc_pages+0xca>
 804b353:	8b 45 e8             	mov    -0x18(%ebp),%eax
 804b356:	8b 40 08             	mov    0x8(%eax),%eax
 804b359:	89 45 f4             	mov    %eax,-0xc(%ebp)
 804b35c:	8b 45 e8             	mov    -0x18(%ebp),%eax
 804b35f:	8b 40 08             	mov    0x8(%eax),%eax
 804b362:	89 c2                	mov    %eax,%edx
 804b364:	03 55 08             	add    0x8(%ebp),%edx
 804b367:	8b 45 e8             	mov    -0x18(%ebp),%eax
 804b36a:	89 50 08             	mov    %edx,0x8(%eax)
 804b36d:	8b 45 e8             	mov    -0x18(%ebp),%eax
 804b370:	8b 40 10             	mov    0x10(%eax),%eax
 804b373:	89 c2                	mov    %eax,%edx
 804b375:	2b 55 08             	sub    0x8(%ebp),%edx
 804b378:	8b 45 e8             	mov    -0x18(%ebp),%eax
 804b37b:	89 50 10             	mov    %edx,0x10(%eax)
 804b37e:	eb 0a                	jmp    804b38a <malloc_pages+0xca>
 804b380:	83 7d e8 00          	cmpl   $0x0,-0x18(%ebp)
 804b384:	0f 85 74 ff ff ff    	jne    804b2fe <malloc_pages+0x3e>
 804b38a:	c1 6d 08 0c          	shrl   $0xc,0x8(%ebp)
 804b38e:	83 7d f4 00          	cmpl   $0x0,-0xc(%ebp)
 804b392:	75 0e                	jne    804b3a2 <malloc_pages+0xe2>
 804b394:	8b 45 08             	mov    0x8(%ebp),%eax
 804b397:	89 04 24             	mov    %eax,(%esp)
 804b39a:	e8 b6 f9 ff ff       	call   804ad55 <map_pages>
 804b39f:	89 45 f4             	mov    %eax,-0xc(%ebp)
 804b3a2:	83 7d f4 00          	cmpl   $0x0,-0xc(%ebp)
 804b3a6:	0f 84 80 00 00 00    	je     804b42c <malloc_pages+0x16c>
 804b3ac:	8b 45 f4             	mov    -0xc(%ebp),%eax
 804b3af:	89 c2                	mov    %eax,%edx
 804b3b1:	c1 ea 0c             	shr    $0xc,%edx
 804b3b4:	8b 83 38 02 00 00    	mov    0x238(%ebx),%eax
 804b3ba:	89 d1                	mov    %edx,%ecx
 804b3bc:	29 c1                	sub    %eax,%ecx
 804b3be:	89 c8                	mov    %ecx,%eax
 804b3c0:	89 45 e4             	mov    %eax,-0x1c(%ebp)
 804b3c3:	8b 83 40 02 00 00    	mov    0x240(%ebx),%eax
 804b3c9:	8b 55 e4             	mov    -0x1c(%ebp),%edx
 804b3cc:	c1 e2 02             	shl    $0x2,%edx
 804b3cf:	01 d0                	add    %edx,%eax
 804b3d1:	c7 00 02 00 00 00    	movl   $0x2,(%eax)
 804b3d7:	c7 45 ec 01 00 00 00 	movl   $0x1,-0x14(%ebp)
 804b3de:	eb 1d                	jmp    804b3fd <malloc_pages+0x13d>
 804b3e0:	8b 83 40 02 00 00    	mov    0x240(%ebx),%eax
 804b3e6:	8b 55 ec             	mov    -0x14(%ebp),%edx
 804b3e9:	8b 4d e4             	mov    -0x1c(%ebp),%ecx
 804b3ec:	01 ca                	add    %ecx,%edx
 804b3ee:	c1 e2 02             	shl    $0x2,%edx
 804b3f1:	01 d0                	add    %edx,%eax
 804b3f3:	c7 00 03 00 00 00    	movl   $0x3,(%eax)
 804b3f9:	83 45 ec 01          	addl   $0x1,-0x14(%ebp)
 804b3fd:	8b 45 ec             	mov    -0x14(%ebp),%eax
 804b400:	3b 45 08             	cmp    0x8(%ebp),%eax
 804b403:	72 db                	jb     804b3e0 <malloc_pages+0x120>
 804b405:	8b 83 78 02 00 00    	mov    0x278(%ebx),%eax
 804b40b:	85 c0                	test   %eax,%eax
 804b40d:	74 1d                	je     804b42c <malloc_pages+0x16c>
 804b40f:	8b 45 08             	mov    0x8(%ebp),%eax
 804b412:	c1 e0 0c             	shl    $0xc,%eax
 804b415:	89 44 24 08          	mov    %eax,0x8(%esp)
 804b419:	c7 44 24 04 d0 00 00 	movl   $0xd0,0x4(%esp)
 804b420:	00 
 804b421:	8b 45 f4             	mov    -0xc(%ebp),%eax
 804b424:	89 04 24             	mov    %eax,(%esp)
 804b427:	e8 a8 d1 ff ff       	call   80485d4 <memset>
 804b42c:	83 7d f0 00          	cmpl   $0x0,-0x10(%ebp)
 804b430:	74 20                	je     804b452 <malloc_pages+0x192>
 804b432:	8b 83 80 02 00 00    	mov    0x280(%ebx),%eax
 804b438:	85 c0                	test   %eax,%eax
 804b43a:	75 0b                	jne    804b447 <malloc_pages+0x187>
 804b43c:	8b 45 f0             	mov    -0x10(%ebp),%eax
 804b43f:	89 83 80 02 00 00    	mov    %eax,0x280(%ebx)
 804b445:	eb 0b                	jmp    804b452 <malloc_pages+0x192>
 804b447:	8b 45 f0             	mov    -0x10(%ebp),%eax
 804b44a:	89 04 24             	mov    %eax,(%esp)
 804b44d:	e8 60 0f 00 00       	call   804c3b2 <ifree>
 804b452:	8b 45 f4             	mov    -0xc(%ebp),%eax
 804b455:	83 c4 34             	add    $0x34,%esp
 804b458:	5b                   	pop    %ebx
 804b459:	5d                   	pop    %ebp
 804b45a:	c3                   	ret    

0804b45b <malloc_make_chunks>:
 804b45b:	55                   	push   %ebp
 804b45c:	89 e5                	mov    %esp,%ebp
 804b45e:	57                   	push   %edi
 804b45f:	56                   	push   %esi
 804b460:	53                   	push   %ebx
 804b461:	83 ec 4c             	sub    $0x4c,%esp
 804b464:	e8 c8 cf ff ff       	call   8048431 <__i686.get_pc_thunk.bx>
 804b469:	81 c3 af 4b 00 00    	add    $0x4baf,%ebx
 804b46f:	c7 04 24 00 10 00 00 	movl   $0x1000,(%esp)
 804b476:	e8 45 fe ff ff       	call   804b2c0 <malloc_pages>
 804b47b:	89 45 d8             	mov    %eax,-0x28(%ebp)
 804b47e:	83 7d d8 00          	cmpl   $0x0,-0x28(%ebp)
 804b482:	75 0a                	jne    804b48e <malloc_make_chunks+0x33>
 804b484:	b8 00 00 00 00       	mov    $0x0,%eax
 804b489:	e9 16 02 00 00       	jmp    804b6a4 <malloc_make_chunks+0x249>
 804b48e:	c7 45 dc 10 00 00 00 	movl   $0x10,-0x24(%ebp)
 804b495:	8b 45 08             	mov    0x8(%ebp),%eax
 804b498:	ba 00 10 00 00       	mov    $0x1000,%edx
 804b49d:	89 d6                	mov    %edx,%esi
 804b49f:	89 c1                	mov    %eax,%ecx
 804b4a1:	d3 ee                	shr    %cl,%esi
 804b4a3:	89 f0                	mov    %esi,%eax
 804b4a5:	83 c0 1f             	add    $0x1f,%eax
 804b4a8:	c1 e8 05             	shr    $0x5,%eax
 804b4ab:	c1 e0 02             	shl    $0x2,%eax
 804b4ae:	01 45 dc             	add    %eax,-0x24(%ebp)
 804b4b1:	8b 45 08             	mov    0x8(%ebp),%eax
 804b4b4:	ba 01 00 00 00       	mov    $0x1,%edx
 804b4b9:	89 c1                	mov    %eax,%ecx
 804b4bb:	d3 e2                	shl    %cl,%edx
 804b4bd:	8b 45 dc             	mov    -0x24(%ebp),%eax
 804b4c0:	01 c0                	add    %eax,%eax
 804b4c2:	39 c2                	cmp    %eax,%edx
 804b4c4:	77 08                	ja     804b4ce <malloc_make_chunks+0x73>
 804b4c6:	8b 45 d8             	mov    -0x28(%ebp),%eax
 804b4c9:	89 45 e4             	mov    %eax,-0x1c(%ebp)
 804b4cc:	eb 29                	jmp    804b4f7 <malloc_make_chunks+0x9c>
 804b4ce:	8b 45 dc             	mov    -0x24(%ebp),%eax
 804b4d1:	89 04 24             	mov    %eax,(%esp)
 804b4d4:	e8 85 05 00 00       	call   804ba5e <imalloc>
 804b4d9:	89 45 e4             	mov    %eax,-0x1c(%ebp)
 804b4dc:	83 7d e4 00          	cmpl   $0x0,-0x1c(%ebp)
 804b4e0:	75 15                	jne    804b4f7 <malloc_make_chunks+0x9c>
 804b4e2:	8b 45 d8             	mov    -0x28(%ebp),%eax
 804b4e5:	89 04 24             	mov    %eax,(%esp)
 804b4e8:	e8 c5 0e 00 00       	call   804c3b2 <ifree>
 804b4ed:	b8 00 00 00 00       	mov    $0x0,%eax
 804b4f2:	e9 ad 01 00 00       	jmp    804b6a4 <malloc_make_chunks+0x249>
 804b4f7:	8b 45 08             	mov    0x8(%ebp),%eax
 804b4fa:	ba 01 00 00 00       	mov    $0x1,%edx
 804b4ff:	89 d6                	mov    %edx,%esi
 804b501:	89 c1                	mov    %eax,%ecx
 804b503:	d3 e6                	shl    %cl,%esi
 804b505:	89 f0                	mov    %esi,%eax
 804b507:	89 c2                	mov    %eax,%edx
 804b509:	8b 45 e4             	mov    -0x1c(%ebp),%eax
 804b50c:	66 89 50 08          	mov    %dx,0x8(%eax)
 804b510:	8b 45 08             	mov    0x8(%ebp),%eax
 804b513:	89 c2                	mov    %eax,%edx
 804b515:	8b 45 e4             	mov    -0x1c(%ebp),%eax
 804b518:	66 89 50 0a          	mov    %dx,0xa(%eax)
 804b51c:	8b 45 08             	mov    0x8(%ebp),%eax
 804b51f:	ba 00 10 00 00       	mov    $0x1000,%edx
 804b524:	89 d6                	mov    %edx,%esi
 804b526:	89 c1                	mov    %eax,%ecx
 804b528:	d3 ee                	shr    %cl,%esi
 804b52a:	89 f0                	mov    %esi,%eax
 804b52c:	89 c2                	mov    %eax,%edx
 804b52e:	8b 45 e4             	mov    -0x1c(%ebp),%eax
 804b531:	66 89 50 0c          	mov    %dx,0xc(%eax)
 804b535:	8b 45 e4             	mov    -0x1c(%ebp),%eax
 804b538:	0f b7 50 0c          	movzwl 0xc(%eax),%edx
 804b53c:	8b 45 e4             	mov    -0x1c(%ebp),%eax
 804b53f:	66 89 50 0e          	mov    %dx,0xe(%eax)
 804b543:	8b 45 e4             	mov    -0x1c(%ebp),%eax
 804b546:	8b 55 d8             	mov    -0x28(%ebp),%edx
 804b549:	89 50 04             	mov    %edx,0x4(%eax)
 804b54c:	8b 45 e4             	mov    -0x1c(%ebp),%eax
 804b54f:	0f b7 40 0e          	movzwl 0xe(%eax),%eax
 804b553:	0f b7 c0             	movzwl %ax,%eax
 804b556:	89 45 d4             	mov    %eax,-0x2c(%ebp)
 804b559:	c7 45 e0 00 00 00 00 	movl   $0x0,-0x20(%ebp)
 804b560:	eb 19                	jmp    804b57b <malloc_make_chunks+0x120>
 804b562:	8b 45 e0             	mov    -0x20(%ebp),%eax
 804b565:	89 c2                	mov    %eax,%edx
 804b567:	c1 ea 05             	shr    $0x5,%edx
 804b56a:	8b 45 e4             	mov    -0x1c(%ebp),%eax
 804b56d:	83 c2 04             	add    $0x4,%edx
 804b570:	c7 04 90 ff ff ff ff 	movl   $0xffffffff,(%eax,%edx,4)
 804b577:	83 45 e0 20          	addl   $0x20,-0x20(%ebp)
 804b57b:	8b 45 e0             	mov    -0x20(%ebp),%eax
 804b57e:	8b 55 d4             	mov    -0x2c(%ebp),%edx
 804b581:	89 d7                	mov    %edx,%edi
 804b583:	29 c7                	sub    %eax,%edi
 804b585:	89 f8                	mov    %edi,%eax
 804b587:	83 f8 1f             	cmp    $0x1f,%eax
 804b58a:	77 d6                	ja     804b562 <malloc_make_chunks+0x107>
 804b58c:	eb 36                	jmp    804b5c4 <malloc_make_chunks+0x169>
 804b58e:	8b 45 e0             	mov    -0x20(%ebp),%eax
 804b591:	c1 e8 05             	shr    $0x5,%eax
 804b594:	8b 55 e4             	mov    -0x1c(%ebp),%edx
 804b597:	8d 48 04             	lea    0x4(%eax),%ecx
 804b59a:	8b 34 8a             	mov    (%edx,%ecx,4),%esi
 804b59d:	8b 55 e0             	mov    -0x20(%ebp),%edx
 804b5a0:	83 e2 1f             	and    $0x1f,%edx
 804b5a3:	c7 45 c4 01 00 00 00 	movl   $0x1,-0x3c(%ebp)
 804b5aa:	8b 7d c4             	mov    -0x3c(%ebp),%edi
 804b5ad:	89 d1                	mov    %edx,%ecx
 804b5af:	d3 e7                	shl    %cl,%edi
 804b5b1:	89 fa                	mov    %edi,%edx
 804b5b3:	89 f1                	mov    %esi,%ecx
 804b5b5:	09 d1                	or     %edx,%ecx
 804b5b7:	8b 55 e4             	mov    -0x1c(%ebp),%edx
 804b5ba:	83 c0 04             	add    $0x4,%eax
 804b5bd:	89 0c 82             	mov    %ecx,(%edx,%eax,4)
 804b5c0:	83 45 e0 01          	addl   $0x1,-0x20(%ebp)
 804b5c4:	8b 45 e0             	mov    -0x20(%ebp),%eax
 804b5c7:	3b 45 d4             	cmp    -0x2c(%ebp),%eax
 804b5ca:	72 c2                	jb     804b58e <malloc_make_chunks+0x133>
 804b5cc:	8b 45 e4             	mov    -0x1c(%ebp),%eax
 804b5cf:	8b 40 04             	mov    0x4(%eax),%eax
 804b5d2:	3b 45 e4             	cmp    -0x1c(%ebp),%eax
 804b5d5:	75 7c                	jne    804b653 <malloc_make_chunks+0x1f8>
 804b5d7:	c7 45 e0 00 00 00 00 	movl   $0x0,-0x20(%ebp)
 804b5de:	eb 6d                	jmp    804b64d <malloc_make_chunks+0x1f2>
 804b5e0:	8b 45 e0             	mov    -0x20(%ebp),%eax
 804b5e3:	c1 e8 05             	shr    $0x5,%eax
 804b5e6:	8b 55 e4             	mov    -0x1c(%ebp),%edx
 804b5e9:	8d 48 04             	lea    0x4(%eax),%ecx
 804b5ec:	8b 34 8a             	mov    (%edx,%ecx,4),%esi
 804b5ef:	8b 55 e0             	mov    -0x20(%ebp),%edx
 804b5f2:	83 e2 1f             	and    $0x1f,%edx
 804b5f5:	c7 45 c4 01 00 00 00 	movl   $0x1,-0x3c(%ebp)
 804b5fc:	8b 7d c4             	mov    -0x3c(%ebp),%edi
 804b5ff:	89 d1                	mov    %edx,%ecx
 804b601:	d3 e7                	shl    %cl,%edi
 804b603:	89 fa                	mov    %edi,%edx
 804b605:	f7 d2                	not    %edx
 804b607:	89 f1                	mov    %esi,%ecx
 804b609:	21 d1                	and    %edx,%ecx
 804b60b:	8b 55 e4             	mov    -0x1c(%ebp),%edx
 804b60e:	83 c0 04             	add    $0x4,%eax
 804b611:	89 0c 82             	mov    %ecx,(%edx,%eax,4)
 804b614:	8b 45 e4             	mov    -0x1c(%ebp),%eax
 804b617:	0f b7 40 0c          	movzwl 0xc(%eax),%eax
 804b61b:	8d 50 ff             	lea    -0x1(%eax),%edx
 804b61e:	8b 45 e4             	mov    -0x1c(%ebp),%eax
 804b621:	66 89 50 0c          	mov    %dx,0xc(%eax)
 804b625:	8b 45 e4             	mov    -0x1c(%ebp),%eax
 804b628:	0f b7 40 0e          	movzwl 0xe(%eax),%eax
 804b62c:	8d 50 ff             	lea    -0x1(%eax),%edx
 804b62f:	8b 45 e4             	mov    -0x1c(%ebp),%eax
 804b632:	66 89 50 0e          	mov    %dx,0xe(%eax)
 804b636:	8b 45 08             	mov    0x8(%ebp),%eax
 804b639:	ba 01 00 00 00       	mov    $0x1,%edx
 804b63e:	89 d6                	mov    %edx,%esi
 804b640:	89 c1                	mov    %eax,%ecx
 804b642:	d3 e6                	shl    %cl,%esi
 804b644:	89 f0                	mov    %esi,%eax
 804b646:	29 45 dc             	sub    %eax,-0x24(%ebp)
 804b649:	83 45 e0 01          	addl   $0x1,-0x20(%ebp)
 804b64d:	83 7d dc 00          	cmpl   $0x0,-0x24(%ebp)
 804b651:	75 8d                	jne    804b5e0 <malloc_make_chunks+0x185>
 804b653:	8b 83 40 02 00 00    	mov    0x240(%ebx),%eax
 804b659:	8b 55 d8             	mov    -0x28(%ebp),%edx
 804b65c:	89 d1                	mov    %edx,%ecx
 804b65e:	c1 e9 0c             	shr    $0xc,%ecx
 804b661:	8b 93 38 02 00 00    	mov    0x238(%ebx),%edx
 804b667:	89 cf                	mov    %ecx,%edi
 804b669:	29 d7                	sub    %edx,%edi
 804b66b:	89 fa                	mov    %edi,%edx
 804b66d:	c1 e2 02             	shl    $0x2,%edx
 804b670:	01 c2                	add    %eax,%edx
 804b672:	8b 45 e4             	mov    -0x1c(%ebp),%eax
 804b675:	89 02                	mov    %eax,(%edx)
 804b677:	8b 83 40 02 00 00    	mov    0x240(%ebx),%eax
 804b67d:	8b 55 08             	mov    0x8(%ebp),%edx
 804b680:	c1 e2 02             	shl    $0x2,%edx
 804b683:	01 d0                	add    %edx,%eax
 804b685:	8b 10                	mov    (%eax),%edx
 804b687:	8b 45 e4             	mov    -0x1c(%ebp),%eax
 804b68a:	89 10                	mov    %edx,(%eax)
 804b68c:	8b 83 40 02 00 00    	mov    0x240(%ebx),%eax
 804b692:	8b 55 08             	mov    0x8(%ebp),%edx
 804b695:	c1 e2 02             	shl    $0x2,%edx
 804b698:	01 c2                	add    %eax,%edx
 804b69a:	8b 45 e4             	mov    -0x1c(%ebp),%eax
 804b69d:	89 02                	mov    %eax,(%edx)
 804b69f:	b8 01 00 00 00       	mov    $0x1,%eax
 804b6a4:	83 c4 4c             	add    $0x4c,%esp
 804b6a7:	5b                   	pop    %ebx
 804b6a8:	5e                   	pop    %esi
 804b6a9:	5f                   	pop    %edi
 804b6aa:	5d                   	pop    %ebp
 804b6ab:	c3                   	ret    

0804b6ac <malloc_bytes>:
 804b6ac:	55                   	push   %ebp
 804b6ad:	89 e5                	mov    %esp,%ebp
 804b6af:	57                   	push   %edi
 804b6b0:	56                   	push   %esi
 804b6b1:	53                   	push   %ebx
 804b6b2:	83 ec 5c             	sub    $0x5c,%esp
 804b6b5:	e8 77 cd ff ff       	call   8048431 <__i686.get_pc_thunk.bx>
 804b6ba:	81 c3 5e 49 00 00    	add    $0x495e,%ebx
 804b6c0:	83 7d 08 0f          	cmpl   $0xf,0x8(%ebp)
 804b6c4:	77 07                	ja     804b6cd <malloc_bytes+0x21>
 804b6c6:	c7 45 08 10 00 00 00 	movl   $0x10,0x8(%ebp)
 804b6cd:	c7 45 e0 01 00 00 00 	movl   $0x1,-0x20(%ebp)
 804b6d4:	8b 45 08             	mov    0x8(%ebp),%eax
 804b6d7:	83 e8 01             	sub    $0x1,%eax
 804b6da:	89 45 e4             	mov    %eax,-0x1c(%ebp)
 804b6dd:	eb 04                	jmp    804b6e3 <malloc_bytes+0x37>
 804b6df:	83 45 e0 01          	addl   $0x1,-0x20(%ebp)
 804b6e3:	d1 7d e4             	sarl   -0x1c(%ebp)
 804b6e6:	83 7d e4 00          	cmpl   $0x0,-0x1c(%ebp)
 804b6ea:	75 f3                	jne    804b6df <malloc_bytes+0x33>
 804b6ec:	8b 83 40 02 00 00    	mov    0x240(%ebx),%eax
 804b6f2:	8b 55 e0             	mov    -0x20(%ebp),%edx
 804b6f5:	c1 e2 02             	shl    $0x2,%edx
 804b6f8:	01 d0                	add    %edx,%eax
 804b6fa:	8b 00                	mov    (%eax),%eax
 804b6fc:	85 c0                	test   %eax,%eax
 804b6fe:	0f 85 49 02 00 00    	jne    804b94d <malloc_bytes+0x2a1>
 804b704:	8b 45 e0             	mov    -0x20(%ebp),%eax
 804b707:	89 45 cc             	mov    %eax,-0x34(%ebp)
 804b70a:	c7 04 24 00 10 00 00 	movl   $0x1000,(%esp)
 804b711:	e8 aa fb ff ff       	call   804b2c0 <malloc_pages>
 804b716:	89 45 c8             	mov    %eax,-0x38(%ebp)
 804b719:	83 7d c8 00          	cmpl   $0x0,-0x38(%ebp)
 804b71d:	75 0a                	jne    804b729 <malloc_bytes+0x7d>
 804b71f:	b8 00 00 00 00       	mov    $0x0,%eax
 804b724:	e9 16 02 00 00       	jmp    804b93f <malloc_bytes+0x293>
 804b729:	c7 45 c4 10 00 00 00 	movl   $0x10,-0x3c(%ebp)
 804b730:	8b 45 cc             	mov    -0x34(%ebp),%eax
 804b733:	ba 00 10 00 00       	mov    $0x1000,%edx
 804b738:	89 d6                	mov    %edx,%esi
 804b73a:	89 c1                	mov    %eax,%ecx
 804b73c:	d3 ee                	shr    %cl,%esi
 804b73e:	89 f0                	mov    %esi,%eax
 804b740:	83 c0 1f             	add    $0x1f,%eax
 804b743:	c1 e8 05             	shr    $0x5,%eax
 804b746:	c1 e0 02             	shl    $0x2,%eax
 804b749:	01 45 c4             	add    %eax,-0x3c(%ebp)
 804b74c:	8b 45 cc             	mov    -0x34(%ebp),%eax
 804b74f:	ba 01 00 00 00       	mov    $0x1,%edx
 804b754:	89 c1                	mov    %eax,%ecx
 804b756:	d3 e2                	shl    %cl,%edx
 804b758:	8b 45 c4             	mov    -0x3c(%ebp),%eax
 804b75b:	01 c0                	add    %eax,%eax
 804b75d:	39 c2                	cmp    %eax,%edx
 804b75f:	77 08                	ja     804b769 <malloc_bytes+0xbd>
 804b761:	8b 45 c8             	mov    -0x38(%ebp),%eax
 804b764:	89 45 c0             	mov    %eax,-0x40(%ebp)
 804b767:	eb 29                	jmp    804b792 <malloc_bytes+0xe6>
 804b769:	8b 45 c4             	mov    -0x3c(%ebp),%eax
 804b76c:	89 04 24             	mov    %eax,(%esp)
 804b76f:	e8 ea 02 00 00       	call   804ba5e <imalloc>
 804b774:	89 45 c0             	mov    %eax,-0x40(%ebp)
 804b777:	83 7d c0 00          	cmpl   $0x0,-0x40(%ebp)
 804b77b:	75 15                	jne    804b792 <malloc_bytes+0xe6>
 804b77d:	8b 45 c8             	mov    -0x38(%ebp),%eax
 804b780:	89 04 24             	mov    %eax,(%esp)
 804b783:	e8 2a 0c 00 00       	call   804c3b2 <ifree>
 804b788:	b8 00 00 00 00       	mov    $0x0,%eax
 804b78d:	e9 ad 01 00 00       	jmp    804b93f <malloc_bytes+0x293>
 804b792:	8b 45 cc             	mov    -0x34(%ebp),%eax
 804b795:	ba 01 00 00 00       	mov    $0x1,%edx
 804b79a:	89 d6                	mov    %edx,%esi
 804b79c:	89 c1                	mov    %eax,%ecx
 804b79e:	d3 e6                	shl    %cl,%esi
 804b7a0:	89 f0                	mov    %esi,%eax
 804b7a2:	89 c2                	mov    %eax,%edx
 804b7a4:	8b 45 c0             	mov    -0x40(%ebp),%eax
 804b7a7:	66 89 50 08          	mov    %dx,0x8(%eax)
 804b7ab:	8b 45 cc             	mov    -0x34(%ebp),%eax
 804b7ae:	89 c2                	mov    %eax,%edx
 804b7b0:	8b 45 c0             	mov    -0x40(%ebp),%eax
 804b7b3:	66 89 50 0a          	mov    %dx,0xa(%eax)
 804b7b7:	8b 45 cc             	mov    -0x34(%ebp),%eax
 804b7ba:	ba 00 10 00 00       	mov    $0x1000,%edx
 804b7bf:	89 d6                	mov    %edx,%esi
 804b7c1:	89 c1                	mov    %eax,%ecx
 804b7c3:	d3 ee                	shr    %cl,%esi
 804b7c5:	89 f0                	mov    %esi,%eax
 804b7c7:	89 c2                	mov    %eax,%edx
 804b7c9:	8b 45 c0             	mov    -0x40(%ebp),%eax
 804b7cc:	66 89 50 0c          	mov    %dx,0xc(%eax)
 804b7d0:	8b 45 c0             	mov    -0x40(%ebp),%eax
 804b7d3:	0f b7 50 0c          	movzwl 0xc(%eax),%edx
 804b7d7:	8b 45 c0             	mov    -0x40(%ebp),%eax
 804b7da:	66 89 50 0e          	mov    %dx,0xe(%eax)
 804b7de:	8b 45 c0             	mov    -0x40(%ebp),%eax
 804b7e1:	8b 55 c8             	mov    -0x38(%ebp),%edx
 804b7e4:	89 50 04             	mov    %edx,0x4(%eax)
 804b7e7:	8b 45 c0             	mov    -0x40(%ebp),%eax
 804b7ea:	0f b7 40 0e          	movzwl 0xe(%eax),%eax
 804b7ee:	0f b7 c0             	movzwl %ax,%eax
 804b7f1:	89 45 bc             	mov    %eax,-0x44(%ebp)
 804b7f4:	c7 45 b8 00 00 00 00 	movl   $0x0,-0x48(%ebp)
 804b7fb:	eb 19                	jmp    804b816 <malloc_bytes+0x16a>
 804b7fd:	8b 45 b8             	mov    -0x48(%ebp),%eax
 804b800:	89 c2                	mov    %eax,%edx
 804b802:	c1 ea 05             	shr    $0x5,%edx
 804b805:	8b 45 c0             	mov    -0x40(%ebp),%eax
 804b808:	83 c2 04             	add    $0x4,%edx
 804b80b:	c7 04 90 ff ff ff ff 	movl   $0xffffffff,(%eax,%edx,4)
 804b812:	83 45 b8 20          	addl   $0x20,-0x48(%ebp)
 804b816:	8b 45 b8             	mov    -0x48(%ebp),%eax
 804b819:	8b 55 bc             	mov    -0x44(%ebp),%edx
 804b81c:	89 d7                	mov    %edx,%edi
 804b81e:	29 c7                	sub    %eax,%edi
 804b820:	89 f8                	mov    %edi,%eax
 804b822:	83 f8 1f             	cmp    $0x1f,%eax
 804b825:	77 d6                	ja     804b7fd <malloc_bytes+0x151>
 804b827:	eb 36                	jmp    804b85f <malloc_bytes+0x1b3>
 804b829:	8b 45 b8             	mov    -0x48(%ebp),%eax
 804b82c:	c1 e8 05             	shr    $0x5,%eax
 804b82f:	8b 55 c0             	mov    -0x40(%ebp),%edx
 804b832:	8d 48 04             	lea    0x4(%eax),%ecx
 804b835:	8b 34 8a             	mov    (%edx,%ecx,4),%esi
 804b838:	8b 55 b8             	mov    -0x48(%ebp),%edx
 804b83b:	83 e2 1f             	and    $0x1f,%edx
 804b83e:	c7 45 b4 01 00 00 00 	movl   $0x1,-0x4c(%ebp)
 804b845:	8b 7d b4             	mov    -0x4c(%ebp),%edi
 804b848:	89 d1                	mov    %edx,%ecx
 804b84a:	d3 e7                	shl    %cl,%edi
 804b84c:	89 fa                	mov    %edi,%edx
 804b84e:	89 f1                	mov    %esi,%ecx
 804b850:	09 d1                	or     %edx,%ecx
 804b852:	8b 55 c0             	mov    -0x40(%ebp),%edx
 804b855:	83 c0 04             	add    $0x4,%eax
 804b858:	89 0c 82             	mov    %ecx,(%edx,%eax,4)
 804b85b:	83 45 b8 01          	addl   $0x1,-0x48(%ebp)
 804b85f:	8b 45 bc             	mov    -0x44(%ebp),%eax
 804b862:	3b 45 b8             	cmp    -0x48(%ebp),%eax
 804b865:	77 c2                	ja     804b829 <malloc_bytes+0x17d>
 804b867:	8b 45 c0             	mov    -0x40(%ebp),%eax
 804b86a:	8b 40 04             	mov    0x4(%eax),%eax
 804b86d:	39 45 c0             	cmp    %eax,-0x40(%ebp)
 804b870:	75 7c                	jne    804b8ee <malloc_bytes+0x242>
 804b872:	c7 45 b8 00 00 00 00 	movl   $0x0,-0x48(%ebp)
 804b879:	eb 6d                	jmp    804b8e8 <malloc_bytes+0x23c>
 804b87b:	8b 45 b8             	mov    -0x48(%ebp),%eax
 804b87e:	c1 e8 05             	shr    $0x5,%eax
 804b881:	8b 55 c0             	mov    -0x40(%ebp),%edx
 804b884:	8d 48 04             	lea    0x4(%eax),%ecx
 804b887:	8b 34 8a             	mov    (%edx,%ecx,4),%esi
 804b88a:	8b 55 b8             	mov    -0x48(%ebp),%edx
 804b88d:	83 e2 1f             	and    $0x1f,%edx
 804b890:	c7 45 b4 01 00 00 00 	movl   $0x1,-0x4c(%ebp)
 804b897:	8b 7d b4             	mov    -0x4c(%ebp),%edi
 804b89a:	89 d1                	mov    %edx,%ecx
 804b89c:	d3 e7                	shl    %cl,%edi
 804b89e:	89 fa                	mov    %edi,%edx
 804b8a0:	f7 d2                	not    %edx
 804b8a2:	89 f1                	mov    %esi,%ecx
 804b8a4:	21 d1                	and    %edx,%ecx
 804b8a6:	8b 55 c0             	mov    -0x40(%ebp),%edx
 804b8a9:	83 c0 04             	add    $0x4,%eax
 804b8ac:	89 0c 82             	mov    %ecx,(%edx,%eax,4)
 804b8af:	8b 45 c0             	mov    -0x40(%ebp),%eax
 804b8b2:	0f b7 40 0c          	movzwl 0xc(%eax),%eax
 804b8b6:	8d 50 ff             	lea    -0x1(%eax),%edx
 804b8b9:	8b 45 c0             	mov    -0x40(%ebp),%eax
 804b8bc:	66 89 50 0c          	mov    %dx,0xc(%eax)
 804b8c0:	8b 45 c0             	mov    -0x40(%ebp),%eax
 804b8c3:	0f b7 40 0e          	movzwl 0xe(%eax),%eax
 804b8c7:	8d 50 ff             	lea    -0x1(%eax),%edx
 804b8ca:	8b 45 c0             	mov    -0x40(%ebp),%eax
 804b8cd:	66 89 50 0e          	mov    %dx,0xe(%eax)
 804b8d1:	8b 45 cc             	mov    -0x34(%ebp),%eax
 804b8d4:	ba 01 00 00 00       	mov    $0x1,%edx
 804b8d9:	89 d6                	mov    %edx,%esi
 804b8db:	89 c1                	mov    %eax,%ecx
 804b8dd:	d3 e6                	shl    %cl,%esi
 804b8df:	89 f0                	mov    %esi,%eax
 804b8e1:	29 45 c4             	sub    %eax,-0x3c(%ebp)
 804b8e4:	83 45 b8 01          	addl   $0x1,-0x48(%ebp)
 804b8e8:	83 7d c4 00          	cmpl   $0x0,-0x3c(%ebp)
 804b8ec:	75 8d                	jne    804b87b <malloc_bytes+0x1cf>
 804b8ee:	8b 83 40 02 00 00    	mov    0x240(%ebx),%eax
 804b8f4:	8b 55 c8             	mov    -0x38(%ebp),%edx
 804b8f7:	89 d1                	mov    %edx,%ecx
 804b8f9:	c1 e9 0c             	shr    $0xc,%ecx
 804b8fc:	8b 93 38 02 00 00    	mov    0x238(%ebx),%edx
 804b902:	89 cf                	mov    %ecx,%edi
 804b904:	29 d7                	sub    %edx,%edi
 804b906:	89 fa                	mov    %edi,%edx
 804b908:	c1 e2 02             	shl    $0x2,%edx
 804b90b:	01 c2                	add    %eax,%edx
 804b90d:	8b 45 c0             	mov    -0x40(%ebp),%eax
 804b910:	89 02                	mov    %eax,(%edx)
 804b912:	8b 83 40 02 00 00    	mov    0x240(%ebx),%eax
 804b918:	8b 55 cc             	mov    -0x34(%ebp),%edx
 804b91b:	c1 e2 02             	shl    $0x2,%edx
 804b91e:	01 d0                	add    %edx,%eax
 804b920:	8b 10                	mov    (%eax),%edx
 804b922:	8b 45 c0             	mov    -0x40(%ebp),%eax
 804b925:	89 10                	mov    %edx,(%eax)
 804b927:	8b 83 40 02 00 00    	mov    0x240(%ebx),%eax
 804b92d:	8b 55 cc             	mov    -0x34(%ebp),%edx
 804b930:	c1 e2 02             	shl    $0x2,%edx
 804b933:	01 c2                	add    %eax,%edx
 804b935:	8b 45 c0             	mov    -0x40(%ebp),%eax
 804b938:	89 02                	mov    %eax,(%edx)
 804b93a:	b8 01 00 00 00       	mov    $0x1,%eax
 804b93f:	85 c0                	test   %eax,%eax
 804b941:	75 0a                	jne    804b94d <malloc_bytes+0x2a1>
 804b943:	b8 00 00 00 00       	mov    $0x0,%eax
 804b948:	e9 09 01 00 00       	jmp    804ba56 <malloc_bytes+0x3aa>
 804b94d:	8b 83 40 02 00 00    	mov    0x240(%ebx),%eax
 804b953:	8b 55 e0             	mov    -0x20(%ebp),%edx
 804b956:	c1 e2 02             	shl    $0x2,%edx
 804b959:	01 d0                	add    %edx,%eax
 804b95b:	8b 00                	mov    (%eax),%eax
 804b95d:	89 45 d0             	mov    %eax,-0x30(%ebp)
 804b960:	8b 45 d0             	mov    -0x30(%ebp),%eax
 804b963:	83 c0 10             	add    $0x10,%eax
 804b966:	89 45 d4             	mov    %eax,-0x2c(%ebp)
 804b969:	eb 04                	jmp    804b96f <malloc_bytes+0x2c3>
 804b96b:	83 45 d4 04          	addl   $0x4,-0x2c(%ebp)
 804b96f:	8b 45 d4             	mov    -0x2c(%ebp),%eax
 804b972:	8b 00                	mov    (%eax),%eax
 804b974:	85 c0                	test   %eax,%eax
 804b976:	74 f3                	je     804b96b <malloc_bytes+0x2bf>
 804b978:	c7 45 dc 01 00 00 00 	movl   $0x1,-0x24(%ebp)
 804b97f:	c7 45 d8 00 00 00 00 	movl   $0x0,-0x28(%ebp)
 804b986:	eb 0c                	jmp    804b994 <malloc_bytes+0x2e8>
 804b988:	8b 45 dc             	mov    -0x24(%ebp),%eax
 804b98b:	01 c0                	add    %eax,%eax
 804b98d:	89 45 dc             	mov    %eax,-0x24(%ebp)
 804b990:	83 45 d8 01          	addl   $0x1,-0x28(%ebp)
 804b994:	8b 45 d4             	mov    -0x2c(%ebp),%eax
 804b997:	8b 00                	mov    (%eax),%eax
 804b999:	23 45 dc             	and    -0x24(%ebp),%eax
 804b99c:	85 c0                	test   %eax,%eax
 804b99e:	74 e8                	je     804b988 <malloc_bytes+0x2dc>
 804b9a0:	8b 45 d4             	mov    -0x2c(%ebp),%eax
 804b9a3:	8b 00                	mov    (%eax),%eax
 804b9a5:	89 c2                	mov    %eax,%edx
 804b9a7:	33 55 dc             	xor    -0x24(%ebp),%edx
 804b9aa:	8b 45 d4             	mov    -0x2c(%ebp),%eax
 804b9ad:	89 10                	mov    %edx,(%eax)
 804b9af:	8b 45 d0             	mov    -0x30(%ebp),%eax
 804b9b2:	0f b7 40 0c          	movzwl 0xc(%eax),%eax
 804b9b6:	8d 50 ff             	lea    -0x1(%eax),%edx
 804b9b9:	8b 45 d0             	mov    -0x30(%ebp),%eax
 804b9bc:	66 89 50 0c          	mov    %dx,0xc(%eax)
 804b9c0:	8b 45 d0             	mov    -0x30(%ebp),%eax
 804b9c3:	0f b7 40 0c          	movzwl 0xc(%eax),%eax
 804b9c7:	66 85 c0             	test   %ax,%ax
 804b9ca:	75 1e                	jne    804b9ea <malloc_bytes+0x33e>
 804b9cc:	8b 83 40 02 00 00    	mov    0x240(%ebx),%eax
 804b9d2:	8b 55 e0             	mov    -0x20(%ebp),%edx
 804b9d5:	c1 e2 02             	shl    $0x2,%edx
 804b9d8:	01 c2                	add    %eax,%edx
 804b9da:	8b 45 d0             	mov    -0x30(%ebp),%eax
 804b9dd:	8b 00                	mov    (%eax),%eax
 804b9df:	89 02                	mov    %eax,(%edx)
 804b9e1:	8b 45 d0             	mov    -0x30(%ebp),%eax
 804b9e4:	c7 00 00 00 00 00    	movl   $0x0,(%eax)
 804b9ea:	8b 55 d4             	mov    -0x2c(%ebp),%edx
 804b9ed:	8b 45 d0             	mov    -0x30(%ebp),%eax
 804b9f0:	83 c0 10             	add    $0x10,%eax
 804b9f3:	89 d1                	mov    %edx,%ecx
 804b9f5:	29 c1                	sub    %eax,%ecx
 804b9f7:	89 c8                	mov    %ecx,%eax
 804b9f9:	c1 f8 02             	sar    $0x2,%eax
 804b9fc:	89 c2                	mov    %eax,%edx
 804b9fe:	c1 e2 05             	shl    $0x5,%edx
 804ba01:	8b 45 d8             	mov    -0x28(%ebp),%eax
 804ba04:	01 d0                	add    %edx,%eax
 804ba06:	89 45 d8             	mov    %eax,-0x28(%ebp)
 804ba09:	8b 45 d0             	mov    -0x30(%ebp),%eax
 804ba0c:	0f b7 40 0a          	movzwl 0xa(%eax),%eax
 804ba10:	0f b7 c0             	movzwl %ax,%eax
 804ba13:	89 c1                	mov    %eax,%ecx
