
uname.exec:     file format elf32-i386


Disassembly of section .text:

08048094 <main>:
 8048094:	55                   	push   %ebp
 8048095:	89 e5                	mov    %esp,%ebp
 8048097:	83 e4 f0             	and    $0xfffffff0,%esp
 804809a:	83 ec 20             	sub    $0x20,%esp
 804809d:	a1 f4 01 05 08       	mov    0x80501f4,%eax
 80480a2:	c7 44 24 04 06 d7 04 	movl   $0x804d706,0x4(%esp)
 80480a9:	08 
 80480aa:	89 04 24             	mov    %eax,(%esp)
 80480ad:	e8 22 02 00 00       	call   80482d4 <fprintf>
 80480b2:	c7 04 24 20 03 05 08 	movl   $0x8050320,(%esp)
 80480b9:	e8 59 12 00 00       	call   8049317 <uname>
 80480be:	c7 44 24 1c 01 00 00 	movl   $0x1,0x1c(%esp)
 80480c5:	00 
 80480c6:	eb 53                	jmp    804811b <main+0x87>
 80480c8:	8b 44 24 1c          	mov    0x1c(%esp),%eax
 80480cc:	c1 e0 02             	shl    $0x2,%eax
 80480cf:	03 45 0c             	add    0xc(%ebp),%eax
 80480d2:	8b 00                	mov    (%eax),%eax
 80480d4:	0f b6 00             	movzbl (%eax),%eax
 80480d7:	3c 2d                	cmp    $0x2d,%al
 80480d9:	75 3b                	jne    8048116 <main+0x82>
 80480db:	8b 44 24 1c          	mov    0x1c(%esp),%eax
 80480df:	c1 e0 02             	shl    $0x2,%eax
 80480e2:	03 45 0c             	add    0xc(%ebp),%eax
 80480e5:	8b 00                	mov    (%eax),%eax
 80480e7:	83 c0 01             	add    $0x1,%eax
 80480ea:	89 44 24 18          	mov    %eax,0x18(%esp)
 80480ee:	eb 1b                	jmp    804810b <main+0x77>
 80480f0:	8b 44 24 18          	mov    0x18(%esp),%eax
 80480f4:	0f b6 00             	movzbl (%eax),%eax
 80480f7:	0f be c0             	movsbl %al,%eax
 80480fa:	83 44 24 18 01       	addl   $0x1,0x18(%esp)
 80480ff:	89 04 24             	mov    %eax,(%esp)
 8048102:	e8 53 00 00 00       	call   804815a <doflag>
 8048107:	85 c0                	test   %eax,%eax
 8048109:	78 47                	js     8048152 <main+0xbe>
 804810b:	8b 44 24 18          	mov    0x18(%esp),%eax
 804810f:	0f b6 00             	movzbl (%eax),%eax
 8048112:	84 c0                	test   %al,%al
 8048114:	75 da                	jne    80480f0 <main+0x5c>
 8048116:	83 44 24 1c 01       	addl   $0x1,0x1c(%esp)
 804811b:	8b 44 24 1c          	mov    0x1c(%esp),%eax
 804811f:	3b 45 08             	cmp    0x8(%ebp),%eax
 8048122:	7c a4                	jl     80480c8 <main+0x34>
 8048124:	83 7d 08 01          	cmpl   $0x1,0x8(%ebp)
 8048128:	75 0c                	jne    8048136 <main+0xa2>
 804812a:	c7 04 24 73 00 00 00 	movl   $0x73,(%esp)
 8048131:	e8 24 00 00 00       	call   804815a <doflag>
 8048136:	a1 f4 01 05 08       	mov    0x80501f4,%eax
 804813b:	c7 44 24 04 0c d7 04 	movl   $0x804d70c,0x4(%esp)
 8048142:	08 
 8048143:	89 04 24             	mov    %eax,(%esp)
 8048146:	e8 89 01 00 00       	call   80482d4 <fprintf>
 804814b:	b8 00 00 00 00       	mov    $0x0,%eax
 8048150:	eb 06                	jmp    8048158 <main+0xc4>
 8048152:	90                   	nop
 8048153:	b8 01 00 00 00       	mov    $0x1,%eax
 8048158:	c9                   	leave  
 8048159:	c3                   	ret    

0804815a <doflag>:
 804815a:	55                   	push   %ebp
 804815b:	89 e5                	mov    %esp,%ebp
 804815d:	83 ec 18             	sub    $0x18,%esp
 8048160:	8b 45 08             	mov    0x8(%ebp),%eax
 8048163:	83 e8 54             	sub    $0x54,%eax
 8048166:	83 f8 22             	cmp    $0x22,%eax
 8048169:	0f 87 0c 01 00 00    	ja     804827b <doflag+0x121>
 804816f:	8b 04 85 20 d7 04 08 	mov    0x804d720(,%eax,4),%eax
 8048176:	ff e0                	jmp    *%eax
 8048178:	a1 e0 01 05 08       	mov    0x80501e0,%eax
 804817d:	89 44 24 04          	mov    %eax,0x4(%esp)
 8048181:	c7 04 24 0e d7 04 08 	movl   $0x804d70e,(%esp)
 8048188:	e8 0f 01 00 00       	call   804829c <printf>
 804818d:	c7 44 24 04 20 03 05 	movl   $0x8050320,0x4(%esp)
 8048194:	08 
 8048195:	c7 04 24 11 d7 04 08 	movl   $0x804d711,(%esp)
 804819c:	e8 fb 00 00 00       	call   804829c <printf>
 80481a1:	c7 44 24 04 a0 03 05 	movl   $0x80503a0,0x4(%esp)
 80481a8:	08 
 80481a9:	c7 04 24 19 d7 04 08 	movl   $0x804d719,(%esp)
 80481b0:	e8 e7 00 00 00       	call   804829c <printf>
 80481b5:	c7 44 24 04 20 04 05 	movl   $0x8050420,0x4(%esp)
 80481bc:	08 
 80481bd:	c7 04 24 19 d7 04 08 	movl   $0x804d719,(%esp)
 80481c4:	e8 d3 00 00 00       	call   804829c <printf>
 80481c9:	c7 44 24 04 a0 04 05 	movl   $0x80504a0,0x4(%esp)
 80481d0:	08 
 80481d1:	c7 04 24 19 d7 04 08 	movl   $0x804d719,(%esp)
 80481d8:	e8 bf 00 00 00       	call   804829c <printf>
 80481dd:	c7 44 24 04 20 05 05 	movl   $0x8050520,0x4(%esp)
 80481e4:	08 
 80481e5:	c7 04 24 19 d7 04 08 	movl   $0x804d719,(%esp)
 80481ec:	e8 ab 00 00 00       	call   804829c <printf>
 80481f1:	e9 8c 00 00 00       	jmp    8048282 <doflag+0x128>
 80481f6:	c7 44 24 04 20 03 05 	movl   $0x8050320,0x4(%esp)
 80481fd:	08 
 80481fe:	c7 04 24 0e d7 04 08 	movl   $0x804d70e,(%esp)
 8048205:	e8 92 00 00 00       	call   804829c <printf>
 804820a:	eb 76                	jmp    8048282 <doflag+0x128>
 804820c:	c7 44 24 04 a0 03 05 	movl   $0x80503a0,0x4(%esp)
 8048213:	08 
 8048214:	c7 04 24 0e d7 04 08 	movl   $0x804d70e,(%esp)
 804821b:	e8 7c 00 00 00       	call   804829c <printf>
 8048220:	eb 60                	jmp    8048282 <doflag+0x128>
 8048222:	c7 44 24 04 20 04 05 	movl   $0x8050420,0x4(%esp)
 8048229:	08 
 804822a:	c7 04 24 0e d7 04 08 	movl   $0x804d70e,(%esp)
 8048231:	e8 66 00 00 00       	call   804829c <printf>
 8048236:	eb 4a                	jmp    8048282 <doflag+0x128>
 8048238:	a1 e0 01 05 08       	mov    0x80501e0,%eax
 804823d:	89 44 24 04          	mov    %eax,0x4(%esp)
 8048241:	c7 04 24 0e d7 04 08 	movl   $0x804d70e,(%esp)
 8048248:	e8 4f 00 00 00       	call   804829c <printf>
 804824d:	eb 33                	jmp    8048282 <doflag+0x128>
 804824f:	c7 44 24 04 a0 04 05 	movl   $0x80504a0,0x4(%esp)
 8048256:	08 
 8048257:	c7 04 24 0e d7 04 08 	movl   $0x804d70e,(%esp)
 804825e:	e8 39 00 00 00       	call   804829c <printf>
 8048263:	eb 1d                	jmp    8048282 <doflag+0x128>
 8048265:	c7 44 24 04 20 05 05 	movl   $0x8050520,0x4(%esp)
 804826c:	08 
 804826d:	c7 04 24 0e d7 04 08 	movl   $0x804d70e,(%esp)
 8048274:	e8 23 00 00 00       	call   804829c <printf>
 8048279:	eb 07                	jmp    8048282 <doflag+0x128>
 804827b:	b8 ff ff ff ff       	mov    $0xffffffff,%eax
 8048280:	eb 05                	jmp    8048287 <doflag+0x12d>
 8048282:	b8 00 00 00 00       	mov    $0x0,%eax
 8048287:	c9                   	leave  
 8048288:	c3                   	ret    
 8048289:	90                   	nop
 804828a:	90                   	nop
 804828b:	90                   	nop

0804828c <__libc_static_entry>:
 804828c:	83 c4 04             	add    $0x4,%esp
 804828f:	e8 00 fe ff ff       	call   8048094 <main>
 8048294:	50                   	push   %eax
 8048295:	e8 56 04 00 00       	call   80486f0 <exit>
 804829a:	90                   	nop
 804829b:	90                   	nop

0804829c <printf>:
 804829c:	55                   	push   %ebp
 804829d:	89 e5                	mov    %esp,%ebp
 804829f:	53                   	push   %ebx
 80482a0:	83 ec 24             	sub    $0x24,%esp
 80482a3:	e8 d5 01 00 00       	call   804847d <__i686.get_pc_thunk.bx>
 80482a8:	81 c3 2c 7f 00 00    	add    $0x7f2c,%ebx
 80482ae:	8d 55 0c             	lea    0xc(%ebp),%edx
 80482b1:	8d 45 f0             	lea    -0x10(%ebp),%eax
 80482b4:	89 10                	mov    %edx,(%eax)
 80482b6:	8b 45 f0             	mov    -0x10(%ebp),%eax
 80482b9:	89 44 24 04          	mov    %eax,0x4(%esp)
 80482bd:	8b 45 08             	mov    0x8(%ebp),%eax
 80482c0:	89 04 24             	mov    %eax,(%esp)
 80482c3:	e8 d0 00 00 00       	call   8048398 <vprintf>
 80482c8:	89 45 f4             	mov    %eax,-0xc(%ebp)
 80482cb:	8b 45 f4             	mov    -0xc(%ebp),%eax
 80482ce:	83 c4 24             	add    $0x24,%esp
 80482d1:	5b                   	pop    %ebx
 80482d2:	5d                   	pop    %ebp
 80482d3:	c3                   	ret    

080482d4 <fprintf>:
 80482d4:	55                   	push   %ebp
 80482d5:	89 e5                	mov    %esp,%ebp
 80482d7:	53                   	push   %ebx
 80482d8:	83 ec 24             	sub    $0x24,%esp
 80482db:	e8 9d 01 00 00       	call   804847d <__i686.get_pc_thunk.bx>
 80482e0:	81 c3 f4 7e 00 00    	add    $0x7ef4,%ebx
 80482e6:	8d 55 10             	lea    0x10(%ebp),%edx
 80482e9:	8d 45 f0             	lea    -0x10(%ebp),%eax
 80482ec:	89 10                	mov    %edx,(%eax)
 80482ee:	8b 45 f0             	mov    -0x10(%ebp),%eax
 80482f1:	89 44 24 08          	mov    %eax,0x8(%esp)
 80482f5:	8b 45 0c             	mov    0xc(%ebp),%eax
 80482f8:	89 44 24 04          	mov    %eax,0x4(%esp)
 80482fc:	8b 45 08             	mov    0x8(%ebp),%eax
 80482ff:	89 04 24             	mov    %eax,(%esp)
 8048302:	e8 c7 00 00 00       	call   80483ce <vfprintf>
 8048307:	89 45 f4             	mov    %eax,-0xc(%ebp)
 804830a:	8b 45 f4             	mov    -0xc(%ebp),%eax
 804830d:	83 c4 24             	add    $0x24,%esp
 8048310:	5b                   	pop    %ebx
 8048311:	5d                   	pop    %ebp
 8048312:	c3                   	ret    

08048313 <sprintf>:
 8048313:	55                   	push   %ebp
 8048314:	89 e5                	mov    %esp,%ebp
 8048316:	53                   	push   %ebx
 8048317:	83 ec 24             	sub    $0x24,%esp
 804831a:	e8 5e 01 00 00       	call   804847d <__i686.get_pc_thunk.bx>
 804831f:	81 c3 b5 7e 00 00    	add    $0x7eb5,%ebx
 8048325:	8d 55 10             	lea    0x10(%ebp),%edx
 8048328:	8d 45 f0             	lea    -0x10(%ebp),%eax
 804832b:	89 10                	mov    %edx,(%eax)
 804832d:	8b 45 f0             	mov    -0x10(%ebp),%eax
 8048330:	89 44 24 08          	mov    %eax,0x8(%esp)
 8048334:	8b 45 0c             	mov    0xc(%ebp),%eax
 8048337:	89 44 24 04          	mov    %eax,0x4(%esp)
 804833b:	8b 45 08             	mov    0x8(%ebp),%eax
 804833e:	89 04 24             	mov    %eax,(%esp)
 8048341:	e8 f4 00 00 00       	call   804843a <vsprintf>
 8048346:	89 45 f4             	mov    %eax,-0xc(%ebp)
 8048349:	8b 45 f4             	mov    -0xc(%ebp),%eax
 804834c:	83 c4 24             	add    $0x24,%esp
 804834f:	5b                   	pop    %ebx
 8048350:	5d                   	pop    %ebp
 8048351:	c3                   	ret    

08048352 <snprintf>:
 8048352:	55                   	push   %ebp
 8048353:	89 e5                	mov    %esp,%ebp
 8048355:	53                   	push   %ebx
 8048356:	83 ec 24             	sub    $0x24,%esp
 8048359:	e8 1f 01 00 00       	call   804847d <__i686.get_pc_thunk.bx>
 804835e:	81 c3 76 7e 00 00    	add    $0x7e76,%ebx
 8048364:	8d 55 14             	lea    0x14(%ebp),%edx
 8048367:	8d 45 f0             	lea    -0x10(%ebp),%eax
 804836a:	89 10                	mov    %edx,(%eax)
 804836c:	8b 45 f0             	mov    -0x10(%ebp),%eax
 804836f:	89 44 24 0c          	mov    %eax,0xc(%esp)
 8048373:	8b 45 10             	mov    0x10(%ebp),%eax
 8048376:	89 44 24 08          	mov    %eax,0x8(%esp)
 804837a:	8b 45 0c             	mov    0xc(%ebp),%eax
 804837d:	89 44 24 04          	mov    %eax,0x4(%esp)
 8048381:	8b 45 08             	mov    0x8(%ebp),%eax
 8048384:	89 04 24             	mov    %eax,(%esp)
 8048387:	e8 e3 14 00 00       	call   804986f <vsnprintf>
 804838c:	89 45 f4             	mov    %eax,-0xc(%ebp)
 804838f:	8b 45 f4             	mov    -0xc(%ebp),%eax
 8048392:	83 c4 24             	add    $0x24,%esp
 8048395:	5b                   	pop    %ebx
 8048396:	5d                   	pop    %ebp
 8048397:	c3                   	ret    

08048398 <vprintf>:
 8048398:	55                   	push   %ebp
 8048399:	89 e5                	mov    %esp,%ebp
 804839b:	53                   	push   %ebx
 804839c:	83 ec 14             	sub    $0x14,%esp
 804839f:	e8 d9 00 00 00       	call   804847d <__i686.get_pc_thunk.bx>
 80483a4:	81 c3 30 7e 00 00    	add    $0x7e30,%ebx
 80483aa:	8b 83 f4 ff ff ff    	mov    -0xc(%ebx),%eax
 80483b0:	8b 00                	mov    (%eax),%eax
 80483b2:	8b 55 0c             	mov    0xc(%ebp),%edx
 80483b5:	89 54 24 08          	mov    %edx,0x8(%esp)
 80483b9:	8b 55 08             	mov    0x8(%ebp),%edx
 80483bc:	89 54 24 04          	mov    %edx,0x4(%esp)
 80483c0:	89 04 24             	mov    %eax,(%esp)
 80483c3:	e8 06 00 00 00       	call   80483ce <vfprintf>
 80483c8:	83 c4 14             	add    $0x14,%esp
 80483cb:	5b                   	pop    %ebx
 80483cc:	5d                   	pop    %ebp
 80483cd:	c3                   	ret    

080483ce <vfprintf>:
 80483ce:	55                   	push   %ebp
 80483cf:	89 e5                	mov    %esp,%ebp
 80483d1:	53                   	push   %ebx
 80483d2:	81 ec 24 04 00 00    	sub    $0x424,%esp
 80483d8:	e8 a0 00 00 00       	call   804847d <__i686.get_pc_thunk.bx>
 80483dd:	81 c3 f7 7d 00 00    	add    $0x7df7,%ebx
 80483e3:	8b 45 10             	mov    0x10(%ebp),%eax
 80483e6:	89 44 24 0c          	mov    %eax,0xc(%esp)
 80483ea:	8b 45 0c             	mov    0xc(%ebp),%eax
 80483ed:	89 44 24 08          	mov    %eax,0x8(%esp)
 80483f1:	c7 44 24 04 00 04 00 	movl   $0x400,0x4(%esp)
 80483f8:	00 
 80483f9:	8d 85 f4 fb ff ff    	lea    -0x40c(%ebp),%eax
 80483ff:	89 04 24             	mov    %eax,(%esp)
 8048402:	e8 68 14 00 00       	call   804986f <vsnprintf>
 8048407:	89 45 f4             	mov    %eax,-0xc(%ebp)
 804840a:	83 7d f4 00          	cmpl   $0x0,-0xc(%ebp)
 804840e:	7e 1e                	jle    804842e <vfprintf+0x60>
 8048410:	8b 55 f4             	mov    -0xc(%ebp),%edx
 8048413:	8b 45 08             	mov    0x8(%ebp),%eax
 8048416:	8b 00                	mov    (%eax),%eax
 8048418:	89 54 24 08          	mov    %edx,0x8(%esp)
 804841c:	8d 95 f4 fb ff ff    	lea    -0x40c(%ebp),%edx
 8048422:	89 54 24 04          	mov    %edx,0x4(%esp)
 8048426:	89 04 24             	mov    %eax,(%esp)
 8048429:	e8 68 07 00 00       	call   8048b96 <write>
 804842e:	8b 45 f4             	mov    -0xc(%ebp),%eax
 8048431:	81 c4 24 04 00 00    	add    $0x424,%esp
 8048437:	5b                   	pop    %ebx
 8048438:	5d                   	pop    %ebp
 8048439:	c3                   	ret    

0804843a <vsprintf>:
 804843a:	55                   	push   %ebp
 804843b:	89 e5                	mov    %esp,%ebp
 804843d:	53                   	push   %ebx
 804843e:	83 ec 14             	sub    $0x14,%esp
 8048441:	e8 37 00 00 00       	call   804847d <__i686.get_pc_thunk.bx>
 8048446:	81 c3 8e 7d 00 00    	add    $0x7d8e,%ebx
 804844c:	8b 45 10             	mov    0x10(%ebp),%eax
 804844f:	89 44 24 0c          	mov    %eax,0xc(%esp)
 8048453:	8b 45 0c             	mov    0xc(%ebp),%eax
 8048456:	89 44 24 08          	mov    %eax,0x8(%esp)
 804845a:	c7 44 24 04 ff ff ff 	movl   $0xffffffff,0x4(%esp)
 8048461:	ff 
 8048462:	8b 45 08             	mov    0x8(%ebp),%eax
 8048465:	89 04 24             	mov    %eax,(%esp)
 8048468:	e8 02 14 00 00       	call   804986f <vsnprintf>
 804846d:	83 c4 14             	add    $0x14,%esp
 8048470:	5b                   	pop    %ebx
 8048471:	5d                   	pop    %ebp
 8048472:	c3                   	ret    

08048473 <fflush>:
 8048473:	55                   	push   %ebp
 8048474:	89 e5                	mov    %esp,%ebp
 8048476:	b8 00 00 00 00       	mov    $0x0,%eax
 804847b:	5d                   	pop    %ebp
 804847c:	c3                   	ret    

0804847d <__i686.get_pc_thunk.bx>:
 804847d:	8b 1c 24             	mov    (%esp),%ebx
 8048480:	c3                   	ret    
 8048481:	90                   	nop
 8048482:	90                   	nop
 8048483:	90                   	nop

08048484 <trap>:
 8048484:	55                   	push   %ebp
 8048485:	89 e5                	mov    %esp,%ebp
 8048487:	56                   	push   %esi
 8048488:	83 ec 14             	sub    $0x14,%esp
 804848b:	e8 3f 0f 00 00       	call   80493cf <__i686.get_pc_thunk.cx>
 8048490:	81 c1 44 7d 00 00    	add    $0x7d44,%ecx
 8048496:	8b 45 08             	mov    0x8(%ebp),%eax
 8048499:	89 45 e8             	mov    %eax,-0x18(%ebp)
 804849c:	8b 55 0c             	mov    0xc(%ebp),%edx
 804849f:	8b 45 e8             	mov    -0x18(%ebp),%eax
 80484a2:	cd 2e                	int    $0x2e
 80484a4:	89 c6                	mov    %eax,%esi
 80484a6:	89 75 f8             	mov    %esi,-0x8(%ebp)
 80484a9:	c7 45 e8 27 00 00 00 	movl   $0x27,-0x18(%ebp)
 80484b0:	8b 45 e8             	mov    -0x18(%ebp),%eax
 80484b3:	cd 2e                	int    $0x2e
 80484b5:	89 c2                	mov    %eax,%edx
 80484b7:	8b 81 fc ff ff ff    	mov    -0x4(%ecx),%eax
 80484bd:	89 10                	mov    %edx,(%eax)
 80484bf:	8b 45 f8             	mov    -0x8(%ebp),%eax
 80484c2:	83 c4 14             	add    $0x14,%esp
 80484c5:	5e                   	pop    %esi
 80484c6:	5d                   	pop    %ebp
 80484c7:	c3                   	ret    

080484c8 <sbrk>:
 80484c8:	55                   	push   %ebp
 80484c9:	89 e5                	mov    %esp,%ebp
 80484cb:	56                   	push   %esi
 80484cc:	53                   	push   %ebx
 80484cd:	83 ec 30             	sub    $0x30,%esp
 80484d0:	e8 a8 ff ff ff       	call   804847d <__i686.get_pc_thunk.bx>
 80484d5:	81 c3 ff 7c 00 00    	add    $0x7cff,%ebx
 80484db:	8b 83 cc 03 00 00    	mov    0x3cc(%ebx),%eax
 80484e1:	85 c0                	test   %eax,%eax
 80484e3:	75 51                	jne    8048536 <sbrk+0x6e>
 80484e5:	c7 45 f0 2c 00 00 00 	movl   $0x2c,-0x10(%ebp)
 80484ec:	c7 45 ec 00 00 00 00 	movl   $0x0,-0x14(%ebp)
 80484f3:	8b 45 f0             	mov    -0x10(%ebp),%eax
 80484f6:	89 45 e4             	mov    %eax,-0x1c(%ebp)
 80484f9:	8b 55 ec             	mov    -0x14(%ebp),%edx
 80484fc:	8b 45 e4             	mov    -0x1c(%ebp),%eax
 80484ff:	cd 2e                	int    $0x2e
 8048501:	89 c6                	mov    %eax,%esi
 8048503:	89 75 e8             	mov    %esi,-0x18(%ebp)
 8048506:	c7 45 e4 27 00 00 00 	movl   $0x27,-0x1c(%ebp)
 804850d:	8b 45 e4             	mov    -0x1c(%ebp),%eax
 8048510:	cd 2e                	int    $0x2e
 8048512:	89 c2                	mov    %eax,%edx
 8048514:	8b 83 fc ff ff ff    	mov    -0x4(%ebx),%eax
 804851a:	89 10                	mov    %edx,(%eax)
 804851c:	8b 45 e8             	mov    -0x18(%ebp),%eax
 804851f:	89 83 cc 03 00 00    	mov    %eax,0x3cc(%ebx)
 8048525:	8b 83 cc 03 00 00    	mov    0x3cc(%ebx),%eax
 804852b:	85 c0                	test   %eax,%eax
 804852d:	79 07                	jns    8048536 <sbrk+0x6e>
 804852f:	b8 ff ff ff ff       	mov    $0xffffffff,%eax
 8048534:	eb 5b                	jmp    8048591 <sbrk+0xc9>
 8048536:	8b 83 cc 03 00 00    	mov    0x3cc(%ebx),%eax
 804853c:	89 45 f4             	mov    %eax,-0xc(%ebp)
 804853f:	83 7d 08 00          	cmpl   $0x0,0x8(%ebp)
 8048543:	79 2a                	jns    804856f <sbrk+0xa7>
 8048545:	8b 45 08             	mov    0x8(%ebp),%eax
 8048548:	f7 d8                	neg    %eax
 804854a:	3b 45 f4             	cmp    -0xc(%ebp),%eax
 804854d:	76 07                	jbe    8048556 <sbrk+0x8e>
 804854f:	b8 ff ff ff ff       	mov    $0xffffffff,%eax
 8048554:	eb 3b                	jmp    8048591 <sbrk+0xc9>
 8048556:	8b 45 08             	mov    0x8(%ebp),%eax
 8048559:	03 45 f4             	add    -0xc(%ebp),%eax
 804855c:	89 04 24             	mov    %eax,(%esp)
 804855f:	e8 34 00 00 00       	call   8048598 <brk>
 8048564:	85 c0                	test   %eax,%eax
 8048566:	79 26                	jns    804858e <sbrk+0xc6>
 8048568:	b8 ff ff ff ff       	mov    $0xffffffff,%eax
 804856d:	eb 22                	jmp    8048591 <sbrk+0xc9>
 804856f:	83 7d 08 00          	cmpl   $0x0,0x8(%ebp)
 8048573:	7e 19                	jle    804858e <sbrk+0xc6>
 8048575:	8b 45 08             	mov    0x8(%ebp),%eax
 8048578:	03 45 f4             	add    -0xc(%ebp),%eax
 804857b:	89 04 24             	mov    %eax,(%esp)
 804857e:	e8 15 00 00 00       	call   8048598 <brk>
 8048583:	85 c0                	test   %eax,%eax
 8048585:	79 07                	jns    804858e <sbrk+0xc6>
 8048587:	b8 ff ff ff ff       	mov    $0xffffffff,%eax
 804858c:	eb 03                	jmp    8048591 <sbrk+0xc9>
 804858e:	8b 45 f4             	mov    -0xc(%ebp),%eax
 8048591:	83 c4 30             	add    $0x30,%esp
 8048594:	5b                   	pop    %ebx
 8048595:	5e                   	pop    %esi
 8048596:	5d                   	pop    %ebp
 8048597:	c3                   	ret    

08048598 <brk>:
 8048598:	55                   	push   %ebp
 8048599:	89 e5                	mov    %esp,%ebp
 804859b:	56                   	push   %esi
 804859c:	83 ec 14             	sub    $0x14,%esp
 804859f:	e8 2b 0e 00 00       	call   80493cf <__i686.get_pc_thunk.cx>
 80485a4:	81 c1 30 7c 00 00    	add    $0x7c30,%ecx
 80485aa:	83 7d 08 00          	cmpl   $0x0,0x8(%ebp)
 80485ae:	75 07                	jne    80485b7 <brk+0x1f>
 80485b0:	b8 ff ff ff ff       	mov    $0xffffffff,%eax
 80485b5:	eb 57                	jmp    804860e <brk+0x76>
 80485b7:	8b 45 08             	mov    0x8(%ebp),%eax
 80485ba:	c7 45 f4 2c 00 00 00 	movl   $0x2c,-0xc(%ebp)
 80485c1:	89 45 f0             	mov    %eax,-0x10(%ebp)
 80485c4:	8b 45 f4             	mov    -0xc(%ebp),%eax
 80485c7:	89 45 e8             	mov    %eax,-0x18(%ebp)
 80485ca:	8b 55 f0             	mov    -0x10(%ebp),%edx
 80485cd:	8b 45 e8             	mov    -0x18(%ebp),%eax
 80485d0:	cd 2e                	int    $0x2e
 80485d2:	89 c6                	mov    %eax,%esi
 80485d4:	89 75 ec             	mov    %esi,-0x14(%ebp)
 80485d7:	c7 45 e8 27 00 00 00 	movl   $0x27,-0x18(%ebp)
 80485de:	8b 45 e8             	mov    -0x18(%ebp),%eax
 80485e1:	cd 2e                	int    $0x2e
 80485e3:	89 c2                	mov    %eax,%edx
 80485e5:	8b 81 fc ff ff ff    	mov    -0x4(%ecx),%eax
 80485eb:	89 10                	mov    %edx,(%eax)
 80485ed:	8b 45 ec             	mov    -0x14(%ebp),%eax
 80485f0:	89 45 f8             	mov    %eax,-0x8(%ebp)
 80485f3:	83 7d f8 ff          	cmpl   $0xffffffff,-0x8(%ebp)
 80485f7:	75 07                	jne    8048600 <brk+0x68>
 80485f9:	b8 ff ff ff ff       	mov    $0xffffffff,%eax
 80485fe:	eb 0e                	jmp    804860e <brk+0x76>
 8048600:	8b 45 f8             	mov    -0x8(%ebp),%eax
 8048603:	89 81 cc 03 00 00    	mov    %eax,0x3cc(%ecx)
 8048609:	b8 00 00 00 00       	mov    $0x0,%eax
 804860e:	83 c4 14             	add    $0x14,%esp
 8048611:	5e                   	pop    %esi
 8048612:	5d                   	pop    %ebp
 8048613:	c3                   	ret    

08048614 <fork>:
 8048614:	55                   	push   %ebp
 8048615:	89 e5                	mov    %esp,%ebp
 8048617:	56                   	push   %esi
 8048618:	83 ec 14             	sub    $0x14,%esp
 804861b:	e8 af 0d 00 00       	call   80493cf <__i686.get_pc_thunk.cx>
 8048620:	81 c1 b4 7b 00 00    	add    $0x7bb4,%ecx
 8048626:	c7 45 f8 02 00 00 00 	movl   $0x2,-0x8(%ebp)
 804862d:	c7 45 f4 00 00 00 00 	movl   $0x0,-0xc(%ebp)
 8048634:	8b 45 f8             	mov    -0x8(%ebp),%eax
 8048637:	89 45 e8             	mov    %eax,-0x18(%ebp)
 804863a:	8b 55 f4             	mov    -0xc(%ebp),%edx
 804863d:	8b 45 e8             	mov    -0x18(%ebp),%eax
 8048640:	cd 2e                	int    $0x2e
 8048642:	89 c6                	mov    %eax,%esi
 8048644:	89 75 f0             	mov    %esi,-0x10(%ebp)
 8048647:	c7 45 e8 27 00 00 00 	movl   $0x27,-0x18(%ebp)
 804864e:	8b 45 e8             	mov    -0x18(%ebp),%eax
 8048651:	cd 2e                	int    $0x2e
 8048653:	89 c2                	mov    %eax,%edx
 8048655:	8b 81 fc ff ff ff    	mov    -0x4(%ecx),%eax
 804865b:	89 10                	mov    %edx,(%eax)
 804865d:	8b 45 f0             	mov    -0x10(%ebp),%eax
 8048660:	83 c4 14             	add    $0x14,%esp
 8048663:	5e                   	pop    %esi
 8048664:	5d                   	pop    %ebp
 8048665:	c3                   	ret    

08048666 <atexit>:
 8048666:	55                   	push   %ebp
 8048667:	89 e5                	mov    %esp,%ebp
 8048669:	e8 61 0d 00 00       	call   80493cf <__i686.get_pc_thunk.cx>
 804866e:	81 c1 66 7b 00 00    	add    $0x7b66,%ecx
 8048674:	8b 81 6c 04 00 00    	mov    0x46c(%ecx),%eax
 804867a:	83 f8 1f             	cmp    $0x1f,%eax
 804867d:	7f 20                	jg     804869f <atexit+0x39>
 804867f:	8b 81 6c 04 00 00    	mov    0x46c(%ecx),%eax
 8048685:	8b 55 08             	mov    0x8(%ebp),%edx
 8048688:	89 94 81 ec 03 00 00 	mov    %edx,0x3ec(%ecx,%eax,4)
 804868f:	83 c0 01             	add    $0x1,%eax
 8048692:	89 81 6c 04 00 00    	mov    %eax,0x46c(%ecx)
 8048698:	b8 00 00 00 00       	mov    $0x0,%eax
 804869d:	eb 05                	jmp    80486a4 <atexit+0x3e>
 804869f:	b8 01 00 00 00       	mov    $0x1,%eax
 80486a4:	5d                   	pop    %ebp
 80486a5:	c3                   	ret    

080486a6 <_exit>:
 80486a6:	55                   	push   %ebp
 80486a7:	89 e5                	mov    %esp,%ebp
 80486a9:	56                   	push   %esi
 80486aa:	83 ec 14             	sub    $0x14,%esp
 80486ad:	e8 1d 0d 00 00       	call   80493cf <__i686.get_pc_thunk.cx>
 80486b2:	81 c1 22 7b 00 00    	add    $0x7b22,%ecx
 80486b8:	8b 45 08             	mov    0x8(%ebp),%eax
 80486bb:	c7 45 f8 01 00 00 00 	movl   $0x1,-0x8(%ebp)
 80486c2:	89 45 f4             	mov    %eax,-0xc(%ebp)
 80486c5:	8b 45 f8             	mov    -0x8(%ebp),%eax
 80486c8:	89 45 e8             	mov    %eax,-0x18(%ebp)
 80486cb:	8b 55 f4             	mov    -0xc(%ebp),%edx
 80486ce:	8b 45 e8             	mov    -0x18(%ebp),%eax
 80486d1:	cd 2e                	int    $0x2e
 80486d3:	89 c6                	mov    %eax,%esi
 80486d5:	89 75 f0             	mov    %esi,-0x10(%ebp)
 80486d8:	c7 45 e8 27 00 00 00 	movl   $0x27,-0x18(%ebp)
 80486df:	8b 45 e8             	mov    -0x18(%ebp),%eax
 80486e2:	cd 2e                	int    $0x2e
 80486e4:	89 c2                	mov    %eax,%edx
 80486e6:	8b 81 fc ff ff ff    	mov    -0x4(%ecx),%eax
 80486ec:	89 10                	mov    %edx,(%eax)
 80486ee:	eb fe                	jmp    80486ee <_exit+0x48>

080486f0 <exit>:
 80486f0:	55                   	push   %ebp
 80486f1:	89 e5                	mov    %esp,%ebp
 80486f3:	53                   	push   %ebx
 80486f4:	83 ec 14             	sub    $0x14,%esp
 80486f7:	e8 81 fd ff ff       	call   804847d <__i686.get_pc_thunk.bx>
 80486fc:	81 c3 d8 7a 00 00    	add    $0x7ad8,%ebx
 8048702:	eb 0f                	jmp    8048713 <exit+0x23>
 8048704:	8b 83 6c 04 00 00    	mov    0x46c(%ebx),%eax
 804870a:	8b 84 83 ec 03 00 00 	mov    0x3ec(%ebx,%eax,4),%eax
 8048711:	ff d0                	call   *%eax
 8048713:	8b 83 6c 04 00 00    	mov    0x46c(%ebx),%eax
 8048719:	85 c0                	test   %eax,%eax
 804871b:	0f 95 c2             	setne  %dl
 804871e:	83 e8 01             	sub    $0x1,%eax
 8048721:	89 83 6c 04 00 00    	mov    %eax,0x46c(%ebx)
 8048727:	84 d2                	test   %dl,%dl
 8048729:	75 d9                	jne    8048704 <exit+0x14>
 804872b:	8b 45 08             	mov    0x8(%ebp),%eax
 804872e:	89 04 24             	mov    %eax,(%esp)
 8048731:	e8 70 ff ff ff       	call   80486a6 <_exit>
 8048736:	8b 45 08             	mov    0x8(%ebp),%eax
 8048739:	89 04 24             	mov    %eax,(%esp)
 804873c:	e8 af ff ff ff       	call   80486f0 <exit>
 8048741:	83 c4 14             	add    $0x14,%esp
 8048744:	5b                   	pop    %ebx
 8048745:	5d                   	pop    %ebp
 8048746:	c3                   	ret    

08048747 <yield>:
 8048747:	55                   	push   %ebp
 8048748:	89 e5                	mov    %esp,%ebp
 804874a:	53                   	push   %ebx
 804874b:	83 ec 14             	sub    $0x14,%esp
 804874e:	e8 2a fd ff ff       	call   804847d <__i686.get_pc_thunk.bx>
 8048753:	81 c3 81 7a 00 00    	add    $0x7a81,%ebx
 8048759:	e8 b6 fe ff ff       	call   8048614 <fork>
 804875e:	85 c0                	test   %eax,%eax
 8048760:	74 0e                	je     8048770 <yield+0x29>
 8048762:	c7 04 24 00 00 00 00 	movl   $0x0,(%esp)
 8048769:	e8 14 00 00 00       	call   8048782 <wait>
 804876e:	eb 0c                	jmp    804877c <yield+0x35>
 8048770:	c7 04 24 00 00 00 00 	movl   $0x0,(%esp)
 8048777:	e8 74 ff ff ff       	call   80486f0 <exit>
 804877c:	83 c4 14             	add    $0x14,%esp
 804877f:	5b                   	pop    %ebx
 8048780:	5d                   	pop    %ebp
 8048781:	c3                   	ret    

08048782 <wait>:
 8048782:	55                   	push   %ebp
 8048783:	89 e5                	mov    %esp,%ebp
 8048785:	56                   	push   %esi
 8048786:	83 ec 24             	sub    $0x24,%esp
 8048789:	e8 41 0c 00 00       	call   80493cf <__i686.get_pc_thunk.cx>
 804878e:	81 c1 46 7a 00 00    	add    $0x7a46,%ecx
 8048794:	c7 45 e4 ff ff ff ff 	movl   $0xffffffff,-0x1c(%ebp)
 804879b:	c7 45 e8 00 00 00 00 	movl   $0x0,-0x18(%ebp)
 80487a2:	8b 45 08             	mov    0x8(%ebp),%eax
 80487a5:	89 45 ec             	mov    %eax,-0x14(%ebp)
 80487a8:	8d 45 e4             	lea    -0x1c(%ebp),%eax
 80487ab:	c7 45 f8 07 00 00 00 	movl   $0x7,-0x8(%ebp)
 80487b2:	89 45 f4             	mov    %eax,-0xc(%ebp)
 80487b5:	8b 45 f8             	mov    -0x8(%ebp),%eax
 80487b8:	89 45 d8             	mov    %eax,-0x28(%ebp)
 80487bb:	8b 55 f4             	mov    -0xc(%ebp),%edx
 80487be:	8b 45 d8             	mov    -0x28(%ebp),%eax
 80487c1:	cd 2e                	int    $0x2e
 80487c3:	89 c6                	mov    %eax,%esi
 80487c5:	89 75 f0             	mov    %esi,-0x10(%ebp)
 80487c8:	c7 45 d8 27 00 00 00 	movl   $0x27,-0x28(%ebp)
 80487cf:	8b 45 d8             	mov    -0x28(%ebp),%eax
 80487d2:	cd 2e                	int    $0x2e
 80487d4:	89 c2                	mov    %eax,%edx
 80487d6:	8b 81 fc ff ff ff    	mov    -0x4(%ecx),%eax
 80487dc:	89 10                	mov    %edx,(%eax)
 80487de:	8b 45 f0             	mov    -0x10(%ebp),%eax
 80487e1:	83 c4 24             	add    $0x24,%esp
 80487e4:	5e                   	pop    %esi
 80487e5:	5d                   	pop    %ebp
 80487e6:	c3                   	ret    

080487e7 <waitpid>:
 80487e7:	55                   	push   %ebp
 80487e8:	89 e5                	mov    %esp,%ebp
 80487ea:	56                   	push   %esi
 80487eb:	83 ec 24             	sub    $0x24,%esp
 80487ee:	e8 dc 0b 00 00       	call   80493cf <__i686.get_pc_thunk.cx>
 80487f3:	81 c1 e1 79 00 00    	add    $0x79e1,%ecx
 80487f9:	8b 45 08             	mov    0x8(%ebp),%eax
 80487fc:	89 45 e4             	mov    %eax,-0x1c(%ebp)
 80487ff:	8b 45 0c             	mov    0xc(%ebp),%eax
 8048802:	89 45 e8             	mov    %eax,-0x18(%ebp)
 8048805:	8b 45 10             	mov    0x10(%ebp),%eax
 8048808:	89 45 ec             	mov    %eax,-0x14(%ebp)
 804880b:	8d 45 e4             	lea    -0x1c(%ebp),%eax
 804880e:	c7 45 f8 07 00 00 00 	movl   $0x7,-0x8(%ebp)
 8048815:	89 45 f4             	mov    %eax,-0xc(%ebp)
 8048818:	8b 45 f8             	mov    -0x8(%ebp),%eax
 804881b:	89 45 d8             	mov    %eax,-0x28(%ebp)
 804881e:	8b 55 f4             	mov    -0xc(%ebp),%edx
 8048821:	8b 45 d8             	mov    -0x28(%ebp),%eax
 8048824:	cd 2e                	int    $0x2e
 8048826:	89 c6                	mov    %eax,%esi
 8048828:	89 75 f0             	mov    %esi,-0x10(%ebp)
 804882b:	c7 45 d8 27 00 00 00 	movl   $0x27,-0x28(%ebp)
 8048832:	8b 45 d8             	mov    -0x28(%ebp),%eax
 8048835:	cd 2e                	int    $0x2e
 8048837:	89 c2                	mov    %eax,%edx
 8048839:	8b 81 fc ff ff ff    	mov    -0x4(%ecx),%eax
 804883f:	89 10                	mov    %edx,(%eax)
 8048841:	8b 45 f0             	mov    -0x10(%ebp),%eax
 8048844:	83 c4 24             	add    $0x24,%esp
 8048847:	5e                   	pop    %esi
 8048848:	5d                   	pop    %ebp
 8048849:	c3                   	ret    

0804884a <thr_exit>:
 804884a:	55                   	push   %ebp
 804884b:	89 e5                	mov    %esp,%ebp
 804884d:	56                   	push   %esi
 804884e:	83 ec 14             	sub    $0x14,%esp
 8048851:	e8 79 0b 00 00       	call   80493cf <__i686.get_pc_thunk.cx>
 8048856:	81 c1 7e 79 00 00    	add    $0x797e,%ecx
 804885c:	8b 45 08             	mov    0x8(%ebp),%eax
 804885f:	c7 45 f8 1f 00 00 00 	movl   $0x1f,-0x8(%ebp)
 8048866:	89 45 f4             	mov    %eax,-0xc(%ebp)
 8048869:	8b 45 f8             	mov    -0x8(%ebp),%eax
 804886c:	89 45 e8             	mov    %eax,-0x18(%ebp)
 804886f:	8b 55 f4             	mov    -0xc(%ebp),%edx
 8048872:	8b 45 e8             	mov    -0x18(%ebp),%eax
 8048875:	cd 2e                	int    $0x2e
 8048877:	89 c6                	mov    %eax,%esi
 8048879:	89 75 f0             	mov    %esi,-0x10(%ebp)
 804887c:	c7 45 e8 27 00 00 00 	movl   $0x27,-0x18(%ebp)
 8048883:	8b 45 e8             	mov    -0x18(%ebp),%eax
 8048886:	cd 2e                	int    $0x2e
 8048888:	89 c2                	mov    %eax,%edx
 804888a:	8b 81 fc ff ff ff    	mov    -0x4(%ecx),%eax
 8048890:	89 10                	mov    %edx,(%eax)
 8048892:	83 c4 14             	add    $0x14,%esp
 8048895:	5e                   	pop    %esi
 8048896:	5d                   	pop    %ebp
 8048897:	c3                   	ret    

08048898 <getpid>:
 8048898:	55                   	push   %ebp
 8048899:	89 e5                	mov    %esp,%ebp
 804889b:	56                   	push   %esi
 804889c:	83 ec 14             	sub    $0x14,%esp
 804889f:	e8 2b 0b 00 00       	call   80493cf <__i686.get_pc_thunk.cx>
 80488a4:	81 c1 30 79 00 00    	add    $0x7930,%ecx
 80488aa:	c7 45 f8 23 00 00 00 	movl   $0x23,-0x8(%ebp)
 80488b1:	c7 45 f4 00 00 00 00 	movl   $0x0,-0xc(%ebp)
 80488b8:	8b 45 f8             	mov    -0x8(%ebp),%eax
 80488bb:	89 45 e8             	mov    %eax,-0x18(%ebp)
 80488be:	8b 55 f4             	mov    -0xc(%ebp),%edx
 80488c1:	8b 45 e8             	mov    -0x18(%ebp),%eax
 80488c4:	cd 2e                	int    $0x2e
 80488c6:	89 c6                	mov    %eax,%esi
 80488c8:	89 75 f0             	mov    %esi,-0x10(%ebp)
 80488cb:	c7 45 e8 27 00 00 00 	movl   $0x27,-0x18(%ebp)
 80488d2:	8b 45 e8             	mov    -0x18(%ebp),%eax
 80488d5:	cd 2e                	int    $0x2e
 80488d7:	89 c2                	mov    %eax,%edx
 80488d9:	8b 81 fc ff ff ff    	mov    -0x4(%ecx),%eax
 80488df:	89 10                	mov    %edx,(%eax)
 80488e1:	8b 45 f0             	mov    -0x10(%ebp),%eax
 80488e4:	83 c4 14             	add    $0x14,%esp
 80488e7:	5e                   	pop    %esi
 80488e8:	5d                   	pop    %ebp
 80488e9:	c3                   	ret    

080488ea <halt>:
 80488ea:	55                   	push   %ebp
 80488eb:	89 e5                	mov    %esp,%ebp
 80488ed:	56                   	push   %esi
 80488ee:	83 ec 14             	sub    $0x14,%esp
 80488f1:	e8 d9 0a 00 00       	call   80493cf <__i686.get_pc_thunk.cx>
 80488f6:	81 c1 de 78 00 00    	add    $0x78de,%ecx
 80488fc:	c7 45 f8 28 00 00 00 	movl   $0x28,-0x8(%ebp)
 8048903:	c7 45 f4 00 00 00 00 	movl   $0x0,-0xc(%ebp)
 804890a:	8b 45 f8             	mov    -0x8(%ebp),%eax
 804890d:	89 45 e8             	mov    %eax,-0x18(%ebp)
 8048910:	8b 55 f4             	mov    -0xc(%ebp),%edx
 8048913:	8b 45 e8             	mov    -0x18(%ebp),%eax
 8048916:	cd 2e                	int    $0x2e
 8048918:	89 c6                	mov    %eax,%esi
 804891a:	89 75 f0             	mov    %esi,-0x10(%ebp)
 804891d:	c7 45 e8 27 00 00 00 	movl   $0x27,-0x18(%ebp)
 8048924:	8b 45 e8             	mov    -0x18(%ebp),%eax
 8048927:	cd 2e                	int    $0x2e
 8048929:	89 c2                	mov    %eax,%edx
 804892b:	8b 81 fc ff ff ff    	mov    -0x4(%ecx),%eax
 8048931:	89 10                	mov    %edx,(%eax)
 8048933:	8b 45 f0             	mov    -0x10(%ebp),%eax
 8048936:	83 c4 14             	add    $0x14,%esp
 8048939:	5e                   	pop    %esi
 804893a:	5d                   	pop    %ebp
 804893b:	c3                   	ret    

0804893c <mmap>:
 804893c:	55                   	push   %ebp
 804893d:	89 e5                	mov    %esp,%ebp
 804893f:	56                   	push   %esi
 8048940:	83 ec 34             	sub    $0x34,%esp
 8048943:	e8 87 0a 00 00       	call   80493cf <__i686.get_pc_thunk.cx>
 8048948:	81 c1 8c 78 00 00    	add    $0x788c,%ecx
 804894e:	8b 45 08             	mov    0x8(%ebp),%eax
 8048951:	89 45 d8             	mov    %eax,-0x28(%ebp)
 8048954:	8b 45 0c             	mov    0xc(%ebp),%eax
 8048957:	89 45 dc             	mov    %eax,-0x24(%ebp)
 804895a:	8b 45 10             	mov    0x10(%ebp),%eax
 804895d:	89 45 e0             	mov    %eax,-0x20(%ebp)
 8048960:	8b 45 14             	mov    0x14(%ebp),%eax
 8048963:	89 45 e4             	mov    %eax,-0x1c(%ebp)
 8048966:	8b 45 18             	mov    0x18(%ebp),%eax
 8048969:	89 45 e8             	mov    %eax,-0x18(%ebp)
 804896c:	8b 45 1c             	mov    0x1c(%ebp),%eax
 804896f:	89 45 ec             	mov    %eax,-0x14(%ebp)
 8048972:	8d 45 d8             	lea    -0x28(%ebp),%eax
 8048975:	c7 45 f8 18 00 00 00 	movl   $0x18,-0x8(%ebp)
 804897c:	89 45 f4             	mov    %eax,-0xc(%ebp)
 804897f:	8b 45 f8             	mov    -0x8(%ebp),%eax
 8048982:	89 45 c8             	mov    %eax,-0x38(%ebp)
 8048985:	8b 55 f4             	mov    -0xc(%ebp),%edx
 8048988:	8b 45 c8             	mov    -0x38(%ebp),%eax
 804898b:	cd 2e                	int    $0x2e
 804898d:	89 c6                	mov    %eax,%esi
 804898f:	89 75 f0             	mov    %esi,-0x10(%ebp)
 8048992:	c7 45 c8 27 00 00 00 	movl   $0x27,-0x38(%ebp)
 8048999:	8b 45 c8             	mov    -0x38(%ebp),%eax
 804899c:	cd 2e                	int    $0x2e
 804899e:	89 c2                	mov    %eax,%edx
 80489a0:	8b 81 fc ff ff ff    	mov    -0x4(%ecx),%eax
 80489a6:	89 10                	mov    %edx,(%eax)
 80489a8:	8b 45 f0             	mov    -0x10(%ebp),%eax
 80489ab:	83 c4 34             	add    $0x34,%esp
 80489ae:	5e                   	pop    %esi
 80489af:	5d                   	pop    %ebp
 80489b0:	c3                   	ret    

080489b1 <munmap>:
 80489b1:	55                   	push   %ebp
 80489b2:	89 e5                	mov    %esp,%ebp
 80489b4:	56                   	push   %esi
 80489b5:	83 ec 24             	sub    $0x24,%esp
 80489b8:	e8 12 0a 00 00       	call   80493cf <__i686.get_pc_thunk.cx>
 80489bd:	81 c1 17 78 00 00    	add    $0x7817,%ecx
 80489c3:	8b 45 08             	mov    0x8(%ebp),%eax
 80489c6:	89 45 e8             	mov    %eax,-0x18(%ebp)
 80489c9:	8b 45 0c             	mov    0xc(%ebp),%eax
 80489cc:	89 45 ec             	mov    %eax,-0x14(%ebp)
 80489cf:	8d 45 e8             	lea    -0x18(%ebp),%eax
 80489d2:	c7 45 f8 1a 00 00 00 	movl   $0x1a,-0x8(%ebp)
 80489d9:	89 45 f4             	mov    %eax,-0xc(%ebp)
 80489dc:	8b 45 f8             	mov    -0x8(%ebp),%eax
 80489df:	89 45 d8             	mov    %eax,-0x28(%ebp)
 80489e2:	8b 55 f4             	mov    -0xc(%ebp),%edx
 80489e5:	8b 45 d8             	mov    -0x28(%ebp),%eax
 80489e8:	cd 2e                	int    $0x2e
 80489ea:	89 c6                	mov    %eax,%esi
 80489ec:	89 75 f0             	mov    %esi,-0x10(%ebp)
 80489ef:	c7 45 d8 27 00 00 00 	movl   $0x27,-0x28(%ebp)
 80489f6:	8b 45 d8             	mov    -0x28(%ebp),%eax
 80489f9:	cd 2e                	int    $0x2e
 80489fb:	89 c2                	mov    %eax,%edx
 80489fd:	8b 81 fc ff ff ff    	mov    -0x4(%ecx),%eax
 8048a03:	89 10                	mov    %edx,(%eax)
 8048a05:	8b 45 f0             	mov    -0x10(%ebp),%eax
 8048a08:	83 c4 24             	add    $0x24,%esp
 8048a0b:	5e                   	pop    %esi
 8048a0c:	5d                   	pop    %ebp
 8048a0d:	c3                   	ret    

08048a0e <sync>:
 8048a0e:	55                   	push   %ebp
 8048a0f:	89 e5                	mov    %esp,%ebp
 8048a11:	56                   	push   %esi
 8048a12:	83 ec 14             	sub    $0x14,%esp
 8048a15:	e8 b5 09 00 00       	call   80493cf <__i686.get_pc_thunk.cx>
 8048a1a:	81 c1 ba 77 00 00    	add    $0x77ba,%ecx
 8048a20:	c7 45 f8 0f 00 00 00 	movl   $0xf,-0x8(%ebp)
 8048a27:	c7 45 f4 00 00 00 00 	movl   $0x0,-0xc(%ebp)
 8048a2e:	8b 45 f8             	mov    -0x8(%ebp),%eax
 8048a31:	89 45 e8             	mov    %eax,-0x18(%ebp)
 8048a34:	8b 55 f4             	mov    -0xc(%ebp),%edx
 8048a37:	8b 45 e8             	mov    -0x18(%ebp),%eax
 8048a3a:	cd 2e                	int    $0x2e
 8048a3c:	89 c6                	mov    %eax,%esi
 8048a3e:	89 75 f0             	mov    %esi,-0x10(%ebp)
 8048a41:	c7 45 e8 27 00 00 00 	movl   $0x27,-0x18(%ebp)
 8048a48:	8b 45 e8             	mov    -0x18(%ebp),%eax
 8048a4b:	cd 2e                	int    $0x2e
 8048a4d:	89 c2                	mov    %eax,%edx
 8048a4f:	8b 81 fc ff ff ff    	mov    -0x4(%ecx),%eax
 8048a55:	89 10                	mov    %edx,(%eax)
 8048a57:	83 c4 14             	add    $0x14,%esp
 8048a5a:	5e                   	pop    %esi
 8048a5b:	5d                   	pop    %ebp
 8048a5c:	c3                   	ret    

08048a5d <open>:
 8048a5d:	55                   	push   %ebp
 8048a5e:	89 e5                	mov    %esp,%ebp
 8048a60:	56                   	push   %esi
 8048a61:	53                   	push   %ebx
 8048a62:	83 ec 40             	sub    $0x40,%esp
 8048a65:	e8 13 fa ff ff       	call   804847d <__i686.get_pc_thunk.bx>
 8048a6a:	81 c3 6a 77 00 00    	add    $0x776a,%ebx
 8048a70:	8b 45 08             	mov    0x8(%ebp),%eax
 8048a73:	89 04 24             	mov    %eax,(%esp)
 8048a76:	e8 0e 42 00 00       	call   804cc89 <strlen>
 8048a7b:	89 45 e0             	mov    %eax,-0x20(%ebp)
 8048a7e:	8b 45 08             	mov    0x8(%ebp),%eax
 8048a81:	89 45 dc             	mov    %eax,-0x24(%ebp)
 8048a84:	8b 45 0c             	mov    0xc(%ebp),%eax
 8048a87:	89 45 e4             	mov    %eax,-0x1c(%ebp)
 8048a8a:	8b 45 10             	mov    0x10(%ebp),%eax
 8048a8d:	89 45 e8             	mov    %eax,-0x18(%ebp)
 8048a90:	8d 45 dc             	lea    -0x24(%ebp),%eax
 8048a93:	c7 45 f4 05 00 00 00 	movl   $0x5,-0xc(%ebp)
 8048a9a:	89 45 f0             	mov    %eax,-0x10(%ebp)
 8048a9d:	8b 45 f4             	mov    -0xc(%ebp),%eax
 8048aa0:	89 45 d4             	mov    %eax,-0x2c(%ebp)
 8048aa3:	8b 55 f0             	mov    -0x10(%ebp),%edx
 8048aa6:	8b 45 d4             	mov    -0x2c(%ebp),%eax
 8048aa9:	cd 2e                	int    $0x2e
 8048aab:	89 c6                	mov    %eax,%esi
 8048aad:	89 75 ec             	mov    %esi,-0x14(%ebp)
 8048ab0:	c7 45 d4 27 00 00 00 	movl   $0x27,-0x2c(%ebp)
 8048ab7:	8b 45 d4             	mov    -0x2c(%ebp),%eax
 8048aba:	cd 2e                	int    $0x2e
 8048abc:	89 c2                	mov    %eax,%edx
 8048abe:	8b 83 fc ff ff ff    	mov    -0x4(%ebx),%eax
 8048ac4:	89 10                	mov    %edx,(%eax)
 8048ac6:	8b 45 ec             	mov    -0x14(%ebp),%eax
 8048ac9:	83 c4 40             	add    $0x40,%esp
 8048acc:	5b                   	pop    %ebx
 8048acd:	5e                   	pop    %esi
 8048ace:	5d                   	pop    %ebp
 8048acf:	c3                   	ret    

08048ad0 <lseek>:
 8048ad0:	55                   	push   %ebp
 8048ad1:	89 e5                	mov    %esp,%ebp
 8048ad3:	56                   	push   %esi
 8048ad4:	83 ec 24             	sub    $0x24,%esp
 8048ad7:	e8 f3 08 00 00       	call   80493cf <__i686.get_pc_thunk.cx>
 8048adc:	81 c1 f8 76 00 00    	add    $0x76f8,%ecx
 8048ae2:	8b 45 08             	mov    0x8(%ebp),%eax
 8048ae5:	89 45 e4             	mov    %eax,-0x1c(%ebp)
 8048ae8:	8b 45 0c             	mov    0xc(%ebp),%eax
 8048aeb:	89 45 e8             	mov    %eax,-0x18(%ebp)
 8048aee:	8b 45 10             	mov    0x10(%ebp),%eax
 8048af1:	89 45 ec             	mov    %eax,-0x14(%ebp)
 8048af4:	8d 45 e4             	lea    -0x1c(%ebp),%eax
 8048af7:	c7 45 f8 0e 00 00 00 	movl   $0xe,-0x8(%ebp)
 8048afe:	89 45 f4             	mov    %eax,-0xc(%ebp)
 8048b01:	8b 45 f8             	mov    -0x8(%ebp),%eax
 8048b04:	89 45 d8             	mov    %eax,-0x28(%ebp)
 8048b07:	8b 55 f4             	mov    -0xc(%ebp),%edx
 8048b0a:	8b 45 d8             	mov    -0x28(%ebp),%eax
 8048b0d:	cd 2e                	int    $0x2e
 8048b0f:	89 c6                	mov    %eax,%esi
 8048b11:	89 75 f0             	mov    %esi,-0x10(%ebp)
 8048b14:	c7 45 d8 27 00 00 00 	movl   $0x27,-0x28(%ebp)
 8048b1b:	8b 45 d8             	mov    -0x28(%ebp),%eax
 8048b1e:	cd 2e                	int    $0x2e
 8048b20:	89 c2                	mov    %eax,%edx
 8048b22:	8b 81 fc ff ff ff    	mov    -0x4(%ecx),%eax
 8048b28:	89 10                	mov    %edx,(%eax)
 8048b2a:	8b 45 f0             	mov    -0x10(%ebp),%eax
 8048b2d:	83 c4 24             	add    $0x24,%esp
 8048b30:	5e                   	pop    %esi
 8048b31:	5d                   	pop    %ebp
 8048b32:	c3                   	ret    

08048b33 <read>:
 8048b33:	55                   	push   %ebp
 8048b34:	89 e5                	mov    %esp,%ebp
 8048b36:	56                   	push   %esi
 8048b37:	83 ec 24             	sub    $0x24,%esp
 8048b3a:	e8 90 08 00 00       	call   80493cf <__i686.get_pc_thunk.cx>
 8048b3f:	81 c1 95 76 00 00    	add    $0x7695,%ecx
 8048b45:	8b 45 08             	mov    0x8(%ebp),%eax
 8048b48:	89 45 e4             	mov    %eax,-0x1c(%ebp)
 8048b4b:	8b 45 0c             	mov    0xc(%ebp),%eax
 8048b4e:	89 45 e8             	mov    %eax,-0x18(%ebp)
 8048b51:	8b 45 10             	mov    0x10(%ebp),%eax
 8048b54:	89 45 ec             	mov    %eax,-0x14(%ebp)
 8048b57:	8d 45 e4             	lea    -0x1c(%ebp),%eax
 8048b5a:	c7 45 f8 03 00 00 00 	movl   $0x3,-0x8(%ebp)
 8048b61:	89 45 f4             	mov    %eax,-0xc(%ebp)
 8048b64:	8b 45 f8             	mov    -0x8(%ebp),%eax
 8048b67:	89 45 d8             	mov    %eax,-0x28(%ebp)
 8048b6a:	8b 55 f4             	mov    -0xc(%ebp),%edx
 8048b6d:	8b 45 d8             	mov    -0x28(%ebp),%eax
 8048b70:	cd 2e                	int    $0x2e
 8048b72:	89 c6                	mov    %eax,%esi
 8048b74:	89 75 f0             	mov    %esi,-0x10(%ebp)
 8048b77:	c7 45 d8 27 00 00 00 	movl   $0x27,-0x28(%ebp)
 8048b7e:	8b 45 d8             	mov    -0x28(%ebp),%eax
 8048b81:	cd 2e                	int    $0x2e
 8048b83:	89 c2                	mov    %eax,%edx
 8048b85:	8b 81 fc ff ff ff    	mov    -0x4(%ecx),%eax
 8048b8b:	89 10                	mov    %edx,(%eax)
 8048b8d:	8b 45 f0             	mov    -0x10(%ebp),%eax
 8048b90:	83 c4 24             	add    $0x24,%esp
 8048b93:	5e                   	pop    %esi
 8048b94:	5d                   	pop    %ebp
 8048b95:	c3                   	ret    

08048b96 <write>:
 8048b96:	55                   	push   %ebp
 8048b97:	89 e5                	mov    %esp,%ebp
 8048b99:	56                   	push   %esi
 8048b9a:	83 ec 24             	sub    $0x24,%esp
 8048b9d:	e8 2d 08 00 00       	call   80493cf <__i686.get_pc_thunk.cx>
 8048ba2:	81 c1 32 76 00 00    	add    $0x7632,%ecx
 8048ba8:	8b 45 08             	mov    0x8(%ebp),%eax
 8048bab:	89 45 e4             	mov    %eax,-0x1c(%ebp)
 8048bae:	8b 45 0c             	mov    0xc(%ebp),%eax
 8048bb1:	89 45 e8             	mov    %eax,-0x18(%ebp)
 8048bb4:	8b 45 10             	mov    0x10(%ebp),%eax
 8048bb7:	89 45 ec             	mov    %eax,-0x14(%ebp)
 8048bba:	8d 45 e4             	lea    -0x1c(%ebp),%eax
 8048bbd:	c7 45 f8 04 00 00 00 	movl   $0x4,-0x8(%ebp)
 8048bc4:	89 45 f4             	mov    %eax,-0xc(%ebp)
 8048bc7:	8b 45 f8             	mov    -0x8(%ebp),%eax
 8048bca:	89 45 d8             	mov    %eax,-0x28(%ebp)
 8048bcd:	8b 55 f4             	mov    -0xc(%ebp),%edx
 8048bd0:	8b 45 d8             	mov    -0x28(%ebp),%eax
 8048bd3:	cd 2e                	int    $0x2e
 8048bd5:	89 c6                	mov    %eax,%esi
 8048bd7:	89 75 f0             	mov    %esi,-0x10(%ebp)
 8048bda:	c7 45 d8 27 00 00 00 	movl   $0x27,-0x28(%ebp)
 8048be1:	8b 45 d8             	mov    -0x28(%ebp),%eax
 8048be4:	cd 2e                	int    $0x2e
 8048be6:	89 c2                	mov    %eax,%edx
 8048be8:	8b 81 fc ff ff ff    	mov    -0x4(%ecx),%eax
 8048bee:	89 10                	mov    %edx,(%eax)
 8048bf0:	8b 45 f0             	mov    -0x10(%ebp),%eax
 8048bf3:	83 c4 24             	add    $0x24,%esp
 8048bf6:	5e                   	pop    %esi
 8048bf7:	5d                   	pop    %ebp
 8048bf8:	c3                   	ret    

08048bf9 <close>:
 8048bf9:	55                   	push   %ebp
 8048bfa:	89 e5                	mov    %esp,%ebp
 8048bfc:	56                   	push   %esi
 8048bfd:	83 ec 14             	sub    $0x14,%esp
 8048c00:	e8 ca 07 00 00       	call   80493cf <__i686.get_pc_thunk.cx>
 8048c05:	81 c1 cf 75 00 00    	add    $0x75cf,%ecx
 8048c0b:	8b 45 08             	mov    0x8(%ebp),%eax
 8048c0e:	c7 45 f8 06 00 00 00 	movl   $0x6,-0x8(%ebp)
 8048c15:	89 45 f4             	mov    %eax,-0xc(%ebp)
 8048c18:	8b 45 f8             	mov    -0x8(%ebp),%eax
 8048c1b:	89 45 e8             	mov    %eax,-0x18(%ebp)
 8048c1e:	8b 55 f4             	mov    -0xc(%ebp),%edx
 8048c21:	8b 45 e8             	mov    -0x18(%ebp),%eax
 8048c24:	cd 2e                	int    $0x2e
 8048c26:	89 c6                	mov    %eax,%esi
 8048c28:	89 75 f0             	mov    %esi,-0x10(%ebp)
 8048c2b:	c7 45 e8 27 00 00 00 	movl   $0x27,-0x18(%ebp)
 8048c32:	8b 45 e8             	mov    -0x18(%ebp),%eax
 8048c35:	cd 2e                	int    $0x2e
 8048c37:	89 c2                	mov    %eax,%edx
 8048c39:	8b 81 fc ff ff ff    	mov    -0x4(%ecx),%eax
 8048c3f:	89 10                	mov    %edx,(%eax)
 8048c41:	8b 45 f0             	mov    -0x10(%ebp),%eax
 8048c44:	83 c4 14             	add    $0x14,%esp
 8048c47:	5e                   	pop    %esi
 8048c48:	5d                   	pop    %ebp
 8048c49:	c3                   	ret    

08048c4a <dup>:
 8048c4a:	55                   	push   %ebp
 8048c4b:	89 e5                	mov    %esp,%ebp
 8048c4d:	56                   	push   %esi
 8048c4e:	83 ec 14             	sub    $0x14,%esp
 8048c51:	e8 79 07 00 00       	call   80493cf <__i686.get_pc_thunk.cx>
 8048c56:	81 c1 7e 75 00 00    	add    $0x757e,%ecx
 8048c5c:	8b 45 08             	mov    0x8(%ebp),%eax
 8048c5f:	c7 45 f8 11 00 00 00 	movl   $0x11,-0x8(%ebp)
 8048c66:	89 45 f4             	mov    %eax,-0xc(%ebp)
 8048c69:	8b 45 f8             	mov    -0x8(%ebp),%eax
 8048c6c:	89 45 e8             	mov    %eax,-0x18(%ebp)
 8048c6f:	8b 55 f4             	mov    -0xc(%ebp),%edx
 8048c72:	8b 45 e8             	mov    -0x18(%ebp),%eax
 8048c75:	cd 2e                	int    $0x2e
 8048c77:	89 c6                	mov    %eax,%esi
 8048c79:	89 75 f0             	mov    %esi,-0x10(%ebp)
 8048c7c:	c7 45 e8 27 00 00 00 	movl   $0x27,-0x18(%ebp)
 8048c83:	8b 45 e8             	mov    -0x18(%ebp),%eax
 8048c86:	cd 2e                	int    $0x2e
 8048c88:	89 c2                	mov    %eax,%edx
 8048c8a:	8b 81 fc ff ff ff    	mov    -0x4(%ecx),%eax
 8048c90:	89 10                	mov    %edx,(%eax)
 8048c92:	8b 45 f0             	mov    -0x10(%ebp),%eax
 8048c95:	83 c4 14             	add    $0x14,%esp
 8048c98:	5e                   	pop    %esi
 8048c99:	5d                   	pop    %ebp
 8048c9a:	c3                   	ret    

08048c9b <dup2>:
 8048c9b:	55                   	push   %ebp
 8048c9c:	89 e5                	mov    %esp,%ebp
 8048c9e:	56                   	push   %esi
 8048c9f:	83 ec 24             	sub    $0x24,%esp
 8048ca2:	e8 28 07 00 00       	call   80493cf <__i686.get_pc_thunk.cx>
 8048ca7:	81 c1 2d 75 00 00    	add    $0x752d,%ecx
 8048cad:	8b 45 08             	mov    0x8(%ebp),%eax
 8048cb0:	89 45 e8             	mov    %eax,-0x18(%ebp)
 8048cb3:	8b 45 0c             	mov    0xc(%ebp),%eax
 8048cb6:	89 45 ec             	mov    %eax,-0x14(%ebp)
 8048cb9:	8d 45 e8             	lea    -0x18(%ebp),%eax
 8048cbc:	c7 45 f8 2b 00 00 00 	movl   $0x2b,-0x8(%ebp)
 8048cc3:	89 45 f4             	mov    %eax,-0xc(%ebp)
 8048cc6:	8b 45 f8             	mov    -0x8(%ebp),%eax
 8048cc9:	89 45 d8             	mov    %eax,-0x28(%ebp)
 8048ccc:	8b 55 f4             	mov    -0xc(%ebp),%edx
 8048ccf:	8b 45 d8             	mov    -0x28(%ebp),%eax
 8048cd2:	cd 2e                	int    $0x2e
 8048cd4:	89 c6                	mov    %eax,%esi
 8048cd6:	89 75 f0             	mov    %esi,-0x10(%ebp)
 8048cd9:	c7 45 d8 27 00 00 00 	movl   $0x27,-0x28(%ebp)
 8048ce0:	8b 45 d8             	mov    -0x28(%ebp),%eax
 8048ce3:	cd 2e                	int    $0x2e
 8048ce5:	89 c2                	mov    %eax,%edx
 8048ce7:	8b 81 fc ff ff ff    	mov    -0x4(%ecx),%eax
 8048ced:	89 10                	mov    %edx,(%eax)
 8048cef:	8b 45 f0             	mov    -0x10(%ebp),%eax
 8048cf2:	83 c4 24             	add    $0x24,%esp
 8048cf5:	5e                   	pop    %esi
 8048cf6:	5d                   	pop    %ebp
 8048cf7:	c3                   	ret    

08048cf8 <mkdir>:
 8048cf8:	55                   	push   %ebp
 8048cf9:	89 e5                	mov    %esp,%ebp
 8048cfb:	56                   	push   %esi
 8048cfc:	53                   	push   %ebx
 8048cfd:	83 ec 40             	sub    $0x40,%esp
 8048d00:	e8 78 f7 ff ff       	call   804847d <__i686.get_pc_thunk.bx>
 8048d05:	81 c3 cf 74 00 00    	add    $0x74cf,%ebx
 8048d0b:	8b 45 08             	mov    0x8(%ebp),%eax
 8048d0e:	89 04 24             	mov    %eax,(%esp)
 8048d11:	e8 73 3f 00 00       	call   804cc89 <strlen>
 8048d16:	89 45 e4             	mov    %eax,-0x1c(%ebp)
 8048d19:	8b 45 08             	mov    0x8(%ebp),%eax
 8048d1c:	89 45 e0             	mov    %eax,-0x20(%ebp)
 8048d1f:	8b 45 0c             	mov    0xc(%ebp),%eax
 8048d22:	89 45 e8             	mov    %eax,-0x18(%ebp)
 8048d25:	8d 45 e0             	lea    -0x20(%ebp),%eax
 8048d28:	c7 45 f4 16 00 00 00 	movl   $0x16,-0xc(%ebp)
 8048d2f:	89 45 f0             	mov    %eax,-0x10(%ebp)
 8048d32:	8b 45 f4             	mov    -0xc(%ebp),%eax
 8048d35:	89 45 d4             	mov    %eax,-0x2c(%ebp)
 8048d38:	8b 55 f0             	mov    -0x10(%ebp),%edx
 8048d3b:	8b 45 d4             	mov    -0x2c(%ebp),%eax
 8048d3e:	cd 2e                	int    $0x2e
 8048d40:	89 c6                	mov    %eax,%esi
 8048d42:	89 75 ec             	mov    %esi,-0x14(%ebp)
 8048d45:	c7 45 d4 27 00 00 00 	movl   $0x27,-0x2c(%ebp)
 8048d4c:	8b 45 d4             	mov    -0x2c(%ebp),%eax
 8048d4f:	cd 2e                	int    $0x2e
 8048d51:	89 c2                	mov    %eax,%edx
 8048d53:	8b 83 fc ff ff ff    	mov    -0x4(%ebx),%eax
 8048d59:	89 10                	mov    %edx,(%eax)
 8048d5b:	8b 45 ec             	mov    -0x14(%ebp),%eax
 8048d5e:	83 c4 40             	add    $0x40,%esp
 8048d61:	5b                   	pop    %ebx
 8048d62:	5e                   	pop    %esi
 8048d63:	5d                   	pop    %ebp
 8048d64:	c3                   	ret    

08048d65 <rmdir>:
 8048d65:	55                   	push   %ebp
 8048d66:	89 e5                	mov    %esp,%ebp
 8048d68:	56                   	push   %esi
 8048d69:	53                   	push   %ebx
 8048d6a:	83 ec 40             	sub    $0x40,%esp
 8048d6d:	e8 0b f7 ff ff       	call   804847d <__i686.get_pc_thunk.bx>
 8048d72:	81 c3 62 74 00 00    	add    $0x7462,%ebx
 8048d78:	8b 45 08             	mov    0x8(%ebp),%eax
 8048d7b:	89 04 24             	mov    %eax,(%esp)
 8048d7e:	e8 06 3f 00 00       	call   804cc89 <strlen>
 8048d83:	89 45 e8             	mov    %eax,-0x18(%ebp)
 8048d86:	8b 45 08             	mov    0x8(%ebp),%eax
 8048d89:	89 45 e4             	mov    %eax,-0x1c(%ebp)
 8048d8c:	8d 45 e4             	lea    -0x1c(%ebp),%eax
 8048d8f:	c7 45 f4 15 00 00 00 	movl   $0x15,-0xc(%ebp)
 8048d96:	89 45 f0             	mov    %eax,-0x10(%ebp)
 8048d99:	8b 45 f4             	mov    -0xc(%ebp),%eax
 8048d9c:	89 45 d4             	mov    %eax,-0x2c(%ebp)
 8048d9f:	8b 55 f0             	mov    -0x10(%ebp),%edx
 8048da2:	8b 45 d4             	mov    -0x2c(%ebp),%eax
 8048da5:	cd 2e                	int    $0x2e
 8048da7:	89 c6                	mov    %eax,%esi
 8048da9:	89 75 ec             	mov    %esi,-0x14(%ebp)
 8048dac:	c7 45 d4 27 00 00 00 	movl   $0x27,-0x2c(%ebp)
 8048db3:	8b 45 d4             	mov    -0x2c(%ebp),%eax
 8048db6:	cd 2e                	int    $0x2e
 8048db8:	89 c2                	mov    %eax,%edx
 8048dba:	8b 83 fc ff ff ff    	mov    -0x4(%ebx),%eax
 8048dc0:	89 10                	mov    %edx,(%eax)
 8048dc2:	8b 45 ec             	mov    -0x14(%ebp),%eax
 8048dc5:	83 c4 40             	add    $0x40,%esp
 8048dc8:	5b                   	pop    %ebx
 8048dc9:	5e                   	pop    %esi
 8048dca:	5d                   	pop    %ebp
 8048dcb:	c3                   	ret    

08048dcc <unlink>:
 8048dcc:	55                   	push   %ebp
 8048dcd:	89 e5                	mov    %esp,%ebp
 8048dcf:	56                   	push   %esi
 8048dd0:	53                   	push   %ebx
 8048dd1:	83 ec 40             	sub    $0x40,%esp
 8048dd4:	e8 a4 f6 ff ff       	call   804847d <__i686.get_pc_thunk.bx>
 8048dd9:	81 c3 fb 73 00 00    	add    $0x73fb,%ebx
 8048ddf:	8b 45 08             	mov    0x8(%ebp),%eax
 8048de2:	89 04 24             	mov    %eax,(%esp)
 8048de5:	e8 9f 3e 00 00       	call   804cc89 <strlen>
 8048dea:	89 45 e8             	mov    %eax,-0x18(%ebp)
 8048ded:	8b 45 08             	mov    0x8(%ebp),%eax
 8048df0:	89 45 e4             	mov    %eax,-0x1c(%ebp)
 8048df3:	8d 45 e4             	lea    -0x1c(%ebp),%eax
 8048df6:	c7 45 f4 09 00 00 00 	movl   $0x9,-0xc(%ebp)
 8048dfd:	89 45 f0             	mov    %eax,-0x10(%ebp)
 8048e00:	8b 45 f4             	mov    -0xc(%ebp),%eax
 8048e03:	89 45 d4             	mov    %eax,-0x2c(%ebp)
 8048e06:	8b 55 f0             	mov    -0x10(%ebp),%edx
 8048e09:	8b 45 d4             	mov    -0x2c(%ebp),%eax
 8048e0c:	cd 2e                	int    $0x2e
 8048e0e:	89 c6                	mov    %eax,%esi
 8048e10:	89 75 ec             	mov    %esi,-0x14(%ebp)
 8048e13:	c7 45 d4 27 00 00 00 	movl   $0x27,-0x2c(%ebp)
 8048e1a:	8b 45 d4             	mov    -0x2c(%ebp),%eax
 8048e1d:	cd 2e                	int    $0x2e
 8048e1f:	89 c2                	mov    %eax,%edx
 8048e21:	8b 83 fc ff ff ff    	mov    -0x4(%ebx),%eax
 8048e27:	89 10                	mov    %edx,(%eax)
 8048e29:	8b 45 ec             	mov    -0x14(%ebp),%eax
 8048e2c:	83 c4 40             	add    $0x40,%esp
 8048e2f:	5b                   	pop    %ebx
 8048e30:	5e                   	pop    %esi
 8048e31:	5d                   	pop    %ebp
 8048e32:	c3                   	ret    

08048e33 <link>:
 8048e33:	55                   	push   %ebp
 8048e34:	89 e5                	mov    %esp,%ebp
 8048e36:	56                   	push   %esi
 8048e37:	53                   	push   %ebx
 8048e38:	83 ec 40             	sub    $0x40,%esp
 8048e3b:	e8 3d f6 ff ff       	call   804847d <__i686.get_pc_thunk.bx>
 8048e40:	81 c3 94 73 00 00    	add    $0x7394,%ebx
 8048e46:	8b 45 08             	mov    0x8(%ebp),%eax
 8048e49:	89 04 24             	mov    %eax,(%esp)
 8048e4c:	e8 38 3e 00 00       	call   804cc89 <strlen>
 8048e51:	89 45 e8             	mov    %eax,-0x18(%ebp)
 8048e54:	8b 45 08             	mov    0x8(%ebp),%eax
 8048e57:	89 45 e4             	mov    %eax,-0x1c(%ebp)
 8048e5a:	8b 45 0c             	mov    0xc(%ebp),%eax
 8048e5d:	89 04 24             	mov    %eax,(%esp)
 8048e60:	e8 24 3e 00 00       	call   804cc89 <strlen>
 8048e65:	89 45 e0             	mov    %eax,-0x20(%ebp)
 8048e68:	8b 45 0c             	mov    0xc(%ebp),%eax
 8048e6b:	89 45 dc             	mov    %eax,-0x24(%ebp)
 8048e6e:	8d 45 dc             	lea    -0x24(%ebp),%eax
 8048e71:	c7 45 f4 08 00 00 00 	movl   $0x8,-0xc(%ebp)
 8048e78:	89 45 f0             	mov    %eax,-0x10(%ebp)
 8048e7b:	8b 45 f4             	mov    -0xc(%ebp),%eax
 8048e7e:	89 45 d4             	mov    %eax,-0x2c(%ebp)
 8048e81:	8b 55 f0             	mov    -0x10(%ebp),%edx
 8048e84:	8b 45 d4             	mov    -0x2c(%ebp),%eax
 8048e87:	cd 2e                	int    $0x2e
 8048e89:	89 c6                	mov    %eax,%esi
 8048e8b:	89 75 ec             	mov    %esi,-0x14(%ebp)
 8048e8e:	c7 45 d4 27 00 00 00 	movl   $0x27,-0x2c(%ebp)
 8048e95:	8b 45 d4             	mov    -0x2c(%ebp),%eax
 8048e98:	cd 2e                	int    $0x2e
 8048e9a:	89 c2                	mov    %eax,%edx
 8048e9c:	8b 83 fc ff ff ff    	mov    -0x4(%ebx),%eax
 8048ea2:	89 10                	mov    %edx,(%eax)
 8048ea4:	8b 45 ec             	mov    -0x14(%ebp),%eax
 8048ea7:	83 c4 40             	add    $0x40,%esp
 8048eaa:	5b                   	pop    %ebx
 8048eab:	5e                   	pop    %esi
 8048eac:	5d                   	pop    %ebp
 8048ead:	c3                   	ret    

08048eae <rename>:
 8048eae:	55                   	push   %ebp
 8048eaf:	89 e5                	mov    %esp,%ebp
 8048eb1:	56                   	push   %esi
 8048eb2:	53                   	push   %ebx
 8048eb3:	83 ec 40             	sub    $0x40,%esp
 8048eb6:	e8 c2 f5 ff ff       	call   804847d <__i686.get_pc_thunk.bx>
 8048ebb:	81 c3 19 73 00 00    	add    $0x7319,%ebx
 8048ec1:	8b 45 08             	mov    0x8(%ebp),%eax
 8048ec4:	89 04 24             	mov    %eax,(%esp)
 8048ec7:	e8 bd 3d 00 00       	call   804cc89 <strlen>
 8048ecc:	89 45 e0             	mov    %eax,-0x20(%ebp)
 8048ecf:	8b 45 08             	mov    0x8(%ebp),%eax
 8048ed2:	89 45 dc             	mov    %eax,-0x24(%ebp)
 8048ed5:	8b 45 0c             	mov    0xc(%ebp),%eax
 8048ed8:	89 04 24             	mov    %eax,(%esp)
 8048edb:	e8 a9 3d 00 00       	call   804cc89 <strlen>
 8048ee0:	89 45 e8             	mov    %eax,-0x18(%ebp)
 8048ee3:	8b 45 0c             	mov    0xc(%ebp),%eax
 8048ee6:	89 45 e4             	mov    %eax,-0x1c(%ebp)
 8048ee9:	8d 45 dc             	lea    -0x24(%ebp),%eax
 8048eec:	c7 45 f4 1b 00 00 00 	movl   $0x1b,-0xc(%ebp)
 8048ef3:	89 45 f0             	mov    %eax,-0x10(%ebp)
 8048ef6:	8b 45 f4             	mov    -0xc(%ebp),%eax
 8048ef9:	89 45 d4             	mov    %eax,-0x2c(%ebp)
 8048efc:	8b 55 f0             	mov    -0x10(%ebp),%edx
 8048eff:	8b 45 d4             	mov    -0x2c(%ebp),%eax
 8048f02:	cd 2e                	int    $0x2e
 8048f04:	89 c6                	mov    %eax,%esi
 8048f06:	89 75 ec             	mov    %esi,-0x14(%ebp)
 8048f09:	c7 45 d4 27 00 00 00 	movl   $0x27,-0x2c(%ebp)
 8048f10:	8b 45 d4             	mov    -0x2c(%ebp),%eax
 8048f13:	cd 2e                	int    $0x2e
 8048f15:	89 c2                	mov    %eax,%edx
 8048f17:	8b 83 fc ff ff ff    	mov    -0x4(%ebx),%eax
 8048f1d:	89 10                	mov    %edx,(%eax)
 8048f1f:	8b 45 ec             	mov    -0x14(%ebp),%eax
 8048f22:	83 c4 40             	add    $0x40,%esp
 8048f25:	5b                   	pop    %ebx
 8048f26:	5e                   	pop    %esi
 8048f27:	5d                   	pop    %ebp
 8048f28:	c3                   	ret    

08048f29 <chdir>:
 8048f29:	55                   	push   %ebp
 8048f2a:	89 e5                	mov    %esp,%ebp
 8048f2c:	56                   	push   %esi
 8048f2d:	53                   	push   %ebx
 8048f2e:	83 ec 40             	sub    $0x40,%esp
 8048f31:	e8 47 f5 ff ff       	call   804847d <__i686.get_pc_thunk.bx>
 8048f36:	81 c3 9e 72 00 00    	add    $0x729e,%ebx
 8048f3c:	8b 45 08             	mov    0x8(%ebp),%eax
 8048f3f:	89 04 24             	mov    %eax,(%esp)
 8048f42:	e8 42 3d 00 00       	call   804cc89 <strlen>
 8048f47:	89 45 e8             	mov    %eax,-0x18(%ebp)
 8048f4a:	8b 45 08             	mov    0x8(%ebp),%eax
 8048f4d:	89 45 e4             	mov    %eax,-0x1c(%ebp)
 8048f50:	8d 45 e4             	lea    -0x1c(%ebp),%eax
 8048f53:	c7 45 f4 0b 00 00 00 	movl   $0xb,-0xc(%ebp)
 8048f5a:	89 45 f0             	mov    %eax,-0x10(%ebp)
 8048f5d:	8b 45 f4             	mov    -0xc(%ebp),%eax
 8048f60:	89 45 d4             	mov    %eax,-0x2c(%ebp)
 8048f63:	8b 55 f0             	mov    -0x10(%ebp),%edx
 8048f66:	8b 45 d4             	mov    -0x2c(%ebp),%eax
 8048f69:	cd 2e                	int    $0x2e
 8048f6b:	89 c6                	mov    %eax,%esi
 8048f6d:	89 75 ec             	mov    %esi,-0x14(%ebp)
 8048f70:	c7 45 d4 27 00 00 00 	movl   $0x27,-0x2c(%ebp)
 8048f77:	8b 45 d4             	mov    -0x2c(%ebp),%eax
 8048f7a:	cd 2e                	int    $0x2e
 8048f7c:	89 c2                	mov    %eax,%edx
 8048f7e:	8b 83 fc ff ff ff    	mov    -0x4(%ebx),%eax
 8048f84:	89 10                	mov    %edx,(%eax)
 8048f86:	8b 45 ec             	mov    -0x14(%ebp),%eax
 8048f89:	83 c4 40             	add    $0x40,%esp
 8048f8c:	5b                   	pop    %ebx
 8048f8d:	5e                   	pop    %esi
 8048f8e:	5d                   	pop    %ebp
 8048f8f:	c3                   	ret    

08048f90 <get_free_mem>:
 8048f90:	55                   	push   %ebp
 8048f91:	89 e5                	mov    %esp,%ebp
 8048f93:	56                   	push   %esi
 8048f94:	83 ec 14             	sub    $0x14,%esp
 8048f97:	e8 33 04 00 00       	call   80493cf <__i686.get_pc_thunk.cx>
 8048f9c:	81 c1 38 72 00 00    	add    $0x7238,%ecx
 8048fa2:	c7 45 f8 29 00 00 00 	movl   $0x29,-0x8(%ebp)
 8048fa9:	c7 45 f4 00 00 00 00 	movl   $0x0,-0xc(%ebp)
 8048fb0:	8b 45 f8             	mov    -0x8(%ebp),%eax
 8048fb3:	89 45 e8             	mov    %eax,-0x18(%ebp)
 8048fb6:	8b 55 f4             	mov    -0xc(%ebp),%edx
 8048fb9:	8b 45 e8             	mov    -0x18(%ebp),%eax
 8048fbc:	cd 2e                	int    $0x2e
 8048fbe:	89 c6                	mov    %eax,%esi
 8048fc0:	89 75 f0             	mov    %esi,-0x10(%ebp)
 8048fc3:	c7 45 e8 27 00 00 00 	movl   $0x27,-0x18(%ebp)
 8048fca:	8b 45 e8             	mov    -0x18(%ebp),%eax
 8048fcd:	cd 2e                	int    $0x2e
 8048fcf:	89 c2                	mov    %eax,%edx
 8048fd1:	8b 81 fc ff ff ff    	mov    -0x4(%ecx),%eax
 8048fd7:	89 10                	mov    %edx,(%eax)
 8048fd9:	8b 45 f0             	mov    -0x10(%ebp),%eax
 8048fdc:	83 c4 14             	add    $0x14,%esp
 8048fdf:	5e                   	pop    %esi
 8048fe0:	5d                   	pop    %ebp
 8048fe1:	c3                   	ret    

08048fe2 <execve>:
 8048fe2:	55                   	push   %ebp
 8048fe3:	89 e5                	mov    %esp,%ebp
 8048fe5:	56                   	push   %esi
 8048fe6:	53                   	push   %ebx
 8048fe7:	83 ec 50             	sub    $0x50,%esp
 8048fea:	e8 8e f4 ff ff       	call   804847d <__i686.get_pc_thunk.bx>
 8048fef:	81 c3 e5 71 00 00    	add    $0x71e5,%ebx
 8048ff5:	8b 45 08             	mov    0x8(%ebp),%eax
 8048ff8:	89 04 24             	mov    %eax,(%esp)
 8048ffb:	e8 89 3c 00 00       	call   804cc89 <strlen>
 8049000:	89 45 d4             	mov    %eax,-0x2c(%ebp)
 8049003:	8b 45 08             	mov    0x8(%ebp),%eax
 8049006:	89 45 d0             	mov    %eax,-0x30(%ebp)
 8049009:	c7 45 f4 00 00 00 00 	movl   $0x0,-0xc(%ebp)
 8049010:	eb 04                	jmp    8049016 <execve+0x34>
 8049012:	83 45 f4 01          	addl   $0x1,-0xc(%ebp)
 8049016:	8b 45 f4             	mov    -0xc(%ebp),%eax
 8049019:	c1 e0 02             	shl    $0x2,%eax
 804901c:	03 45 0c             	add    0xc(%ebp),%eax
 804901f:	8b 00                	mov    (%eax),%eax
 8049021:	85 c0                	test   %eax,%eax
 8049023:	75 ed                	jne    8049012 <execve+0x30>
 8049025:	8b 45 f4             	mov    -0xc(%ebp),%eax
 8049028:	89 45 dc             	mov    %eax,-0x24(%ebp)
 804902b:	8b 45 dc             	mov    -0x24(%ebp),%eax
 804902e:	83 c0 01             	add    $0x1,%eax
 8049031:	c1 e0 03             	shl    $0x3,%eax
 8049034:	89 04 24             	mov    %eax,(%esp)
 8049037:	e8 e0 2e 00 00       	call   804bf1c <malloc>
 804903c:	89 45 d8             	mov    %eax,-0x28(%ebp)
 804903f:	c7 45 f4 00 00 00 00 	movl   $0x0,-0xc(%ebp)
 8049046:	eb 3e                	jmp    8049086 <execve+0xa4>
 8049048:	8b 45 d8             	mov    -0x28(%ebp),%eax
 804904b:	8b 55 f4             	mov    -0xc(%ebp),%edx
 804904e:	c1 e2 03             	shl    $0x3,%edx
 8049051:	8d 34 10             	lea    (%eax,%edx,1),%esi
 8049054:	8b 45 f4             	mov    -0xc(%ebp),%eax
 8049057:	c1 e0 02             	shl    $0x2,%eax
 804905a:	03 45 0c             	add    0xc(%ebp),%eax
 804905d:	8b 00                	mov    (%eax),%eax
 804905f:	89 04 24             	mov    %eax,(%esp)
 8049062:	e8 22 3c 00 00       	call   804cc89 <strlen>
 8049067:	89 46 04             	mov    %eax,0x4(%esi)
 804906a:	8b 45 d8             	mov    -0x28(%ebp),%eax
 804906d:	8b 55 f4             	mov    -0xc(%ebp),%edx
 8049070:	c1 e2 03             	shl    $0x3,%edx
 8049073:	01 c2                	add    %eax,%edx
 8049075:	8b 45 f4             	mov    -0xc(%ebp),%eax
 8049078:	c1 e0 02             	shl    $0x2,%eax
 804907b:	03 45 0c             	add    0xc(%ebp),%eax
 804907e:	8b 00                	mov    (%eax),%eax
 8049080:	89 02                	mov    %eax,(%edx)
 8049082:	83 45 f4 01          	addl   $0x1,-0xc(%ebp)
 8049086:	8b 45 f4             	mov    -0xc(%ebp),%eax
 8049089:	c1 e0 02             	shl    $0x2,%eax
 804908c:	03 45 0c             	add    0xc(%ebp),%eax
 804908f:	8b 00                	mov    (%eax),%eax
 8049091:	85 c0                	test   %eax,%eax
 8049093:	75 b3                	jne    8049048 <execve+0x66>
 8049095:	8b 45 d8             	mov    -0x28(%ebp),%eax
 8049098:	8b 55 f4             	mov    -0xc(%ebp),%edx
 804909b:	c1 e2 03             	shl    $0x3,%edx
 804909e:	01 d0                	add    %edx,%eax
 80490a0:	c7 40 04 00 00 00 00 	movl   $0x0,0x4(%eax)
 80490a7:	8b 45 d8             	mov    -0x28(%ebp),%eax
 80490aa:	8b 55 f4             	mov    -0xc(%ebp),%edx
 80490ad:	c1 e2 03             	shl    $0x3,%edx
 80490b0:	01 d0                	add    %edx,%eax
 80490b2:	c7 00 00 00 00 00    	movl   $0x0,(%eax)
 80490b8:	c7 45 f4 00 00 00 00 	movl   $0x0,-0xc(%ebp)
 80490bf:	eb 04                	jmp    80490c5 <execve+0xe3>
 80490c1:	83 45 f4 01          	addl   $0x1,-0xc(%ebp)
 80490c5:	8b 45 f4             	mov    -0xc(%ebp),%eax
 80490c8:	c1 e0 02             	shl    $0x2,%eax
 80490cb:	03 45 10             	add    0x10(%ebp),%eax
 80490ce:	8b 00                	mov    (%eax),%eax
 80490d0:	85 c0                	test   %eax,%eax
 80490d2:	75 ed                	jne    80490c1 <execve+0xdf>
 80490d4:	8b 45 f4             	mov    -0xc(%ebp),%eax
 80490d7:	89 45 e4             	mov    %eax,-0x1c(%ebp)
 80490da:	8b 45 e4             	mov    -0x1c(%ebp),%eax
 80490dd:	83 c0 01             	add    $0x1,%eax
 80490e0:	c1 e0 03             	shl    $0x3,%eax
 80490e3:	89 04 24             	mov    %eax,(%esp)
 80490e6:	e8 31 2e 00 00       	call   804bf1c <malloc>
 80490eb:	89 45 e0             	mov    %eax,-0x20(%ebp)
 80490ee:	c7 45 f4 00 00 00 00 	movl   $0x0,-0xc(%ebp)
 80490f5:	eb 3e                	jmp    8049135 <execve+0x153>
 80490f7:	8b 45 e0             	mov    -0x20(%ebp),%eax
 80490fa:	8b 55 f4             	mov    -0xc(%ebp),%edx
 80490fd:	c1 e2 03             	shl    $0x3,%edx
 8049100:	8d 34 10             	lea    (%eax,%edx,1),%esi
 8049103:	8b 45 f4             	mov    -0xc(%ebp),%eax
 8049106:	c1 e0 02             	shl    $0x2,%eax
 8049109:	03 45 10             	add    0x10(%ebp),%eax
 804910c:	8b 00                	mov    (%eax),%eax
 804910e:	89 04 24             	mov    %eax,(%esp)
 8049111:	e8 73 3b 00 00       	call   804cc89 <strlen>
 8049116:	89 46 04             	mov    %eax,0x4(%esi)
 8049119:	8b 45 e0             	mov    -0x20(%ebp),%eax
 804911c:	8b 55 f4             	mov    -0xc(%ebp),%edx
 804911f:	c1 e2 03             	shl    $0x3,%edx
 8049122:	01 c2                	add    %eax,%edx
 8049124:	8b 45 f4             	mov    -0xc(%ebp),%eax
 8049127:	c1 e0 02             	shl    $0x2,%eax
 804912a:	03 45 10             	add    0x10(%ebp),%eax
 804912d:	8b 00                	mov    (%eax),%eax
 804912f:	89 02                	mov    %eax,(%edx)
 8049131:	83 45 f4 01          	addl   $0x1,-0xc(%ebp)
 8049135:	8b 45 f4             	mov    -0xc(%ebp),%eax
 8049138:	c1 e0 02             	shl    $0x2,%eax
 804913b:	03 45 10             	add    0x10(%ebp),%eax
 804913e:	8b 00                	mov    (%eax),%eax
 8049140:	85 c0                	test   %eax,%eax
 8049142:	75 b3                	jne    80490f7 <execve+0x115>
 8049144:	8b 45 e0             	mov    -0x20(%ebp),%eax
 8049147:	8b 55 f4             	mov    -0xc(%ebp),%edx
 804914a:	c1 e2 03             	shl    $0x3,%edx
 804914d:	01 d0                	add    %edx,%eax
 804914f:	c7 40 04 00 00 00 00 	movl   $0x0,0x4(%eax)
 8049156:	8b 45 e0             	mov    -0x20(%ebp),%eax
 8049159:	8b 55 f4             	mov    -0xc(%ebp),%edx
 804915c:	c1 e2 03             	shl    $0x3,%edx
 804915f:	01 d0                	add    %edx,%eax
 8049161:	c7 00 00 00 00 00    	movl   $0x0,(%eax)
 8049167:	8d 45 d0             	lea    -0x30(%ebp),%eax
 804916a:	c7 45 f0 0a 00 00 00 	movl   $0xa,-0x10(%ebp)
 8049171:	89 45 ec             	mov    %eax,-0x14(%ebp)
 8049174:	8b 45 f0             	mov    -0x10(%ebp),%eax
 8049177:	89 45 c4             	mov    %eax,-0x3c(%ebp)
 804917a:	8b 55 ec             	mov    -0x14(%ebp),%edx
 804917d:	8b 45 c4             	mov    -0x3c(%ebp),%eax
 8049180:	cd 2e                	int    $0x2e
 8049182:	89 c6                	mov    %eax,%esi
 8049184:	89 75 e8             	mov    %esi,-0x18(%ebp)
 8049187:	c7 45 c4 27 00 00 00 	movl   $0x27,-0x3c(%ebp)
 804918e:	8b 45 c4             	mov    -0x3c(%ebp),%eax
 8049191:	cd 2e                	int    $0x2e
 8049193:	89 c2                	mov    %eax,%edx
 8049195:	8b 83 fc ff ff ff    	mov    -0x4(%ebx),%eax
 804919b:	89 10                	mov    %edx,(%eax)
 804919d:	8b 45 e8             	mov    -0x18(%ebp),%eax
 80491a0:	83 c4 50             	add    $0x50,%esp
 80491a3:	5b                   	pop    %ebx
 80491a4:	5e                   	pop    %esi
 80491a5:	5d                   	pop    %ebp
 80491a6:	c3                   	ret    

080491a7 <thr_set_errno>:
 80491a7:	55                   	push   %ebp
 80491a8:	89 e5                	mov    %esp,%ebp
 80491aa:	56                   	push   %esi
 80491ab:	83 ec 14             	sub    $0x14,%esp
 80491ae:	e8 1c 02 00 00       	call   80493cf <__i686.get_pc_thunk.cx>
 80491b3:	81 c1 21 70 00 00    	add    $0x7021,%ecx
 80491b9:	8b 45 08             	mov    0x8(%ebp),%eax
 80491bc:	c7 45 f8 2a 00 00 00 	movl   $0x2a,-0x8(%ebp)
 80491c3:	89 45 f4             	mov    %eax,-0xc(%ebp)
 80491c6:	8b 45 f8             	mov    -0x8(%ebp),%eax
 80491c9:	89 45 e8             	mov    %eax,-0x18(%ebp)
 80491cc:	8b 55 f4             	mov    -0xc(%ebp),%edx
 80491cf:	8b 45 e8             	mov    -0x18(%ebp),%eax
 80491d2:	cd 2e                	int    $0x2e
 80491d4:	89 c6                	mov    %eax,%esi
 80491d6:	89 75 f0             	mov    %esi,-0x10(%ebp)
 80491d9:	c7 45 e8 27 00 00 00 	movl   $0x27,-0x18(%ebp)
 80491e0:	8b 45 e8             	mov    -0x18(%ebp),%eax
 80491e3:	cd 2e                	int    $0x2e
 80491e5:	89 c2                	mov    %eax,%edx
 80491e7:	8b 81 fc ff ff ff    	mov    -0x4(%ecx),%eax
 80491ed:	89 10                	mov    %edx,(%eax)
 80491ef:	83 c4 14             	add    $0x14,%esp
 80491f2:	5e                   	pop    %esi
 80491f3:	5d                   	pop    %ebp
 80491f4:	c3                   	ret    

080491f5 <thr_errno>:
 80491f5:	55                   	push   %ebp
 80491f6:	89 e5                	mov    %esp,%ebp
 80491f8:	56                   	push   %esi
 80491f9:	83 ec 14             	sub    $0x14,%esp
 80491fc:	e8 ce 01 00 00       	call   80493cf <__i686.get_pc_thunk.cx>
 8049201:	81 c1 d3 6f 00 00    	add    $0x6fd3,%ecx
 8049207:	c7 45 f8 27 00 00 00 	movl   $0x27,-0x8(%ebp)
 804920e:	c7 45 f4 00 00 00 00 	movl   $0x0,-0xc(%ebp)
 8049215:	8b 45 f8             	mov    -0x8(%ebp),%eax
 8049218:	89 45 e8             	mov    %eax,-0x18(%ebp)
 804921b:	8b 55 f4             	mov    -0xc(%ebp),%edx
 804921e:	8b 45 e8             	mov    -0x18(%ebp),%eax
 8049221:	cd 2e                	int    $0x2e
 8049223:	89 c6                	mov    %eax,%esi
 8049225:	89 75 f0             	mov    %esi,-0x10(%ebp)
 8049228:	c7 45 e8 27 00 00 00 	movl   $0x27,-0x18(%ebp)
 804922f:	8b 45 e8             	mov    -0x18(%ebp),%eax
 8049232:	cd 2e                	int    $0x2e
 8049234:	89 c2                	mov    %eax,%edx
 8049236:	8b 81 fc ff ff ff    	mov    -0x4(%ecx),%eax
 804923c:	89 10                	mov    %edx,(%eax)
 804923e:	8b 45 f0             	mov    -0x10(%ebp),%eax
 8049241:	83 c4 14             	add    $0x14,%esp
 8049244:	5e                   	pop    %esi
 8049245:	5d                   	pop    %ebp
 8049246:	c3                   	ret    

08049247 <getdents>:
 8049247:	55                   	push   %ebp
 8049248:	89 e5                	mov    %esp,%ebp
 804924a:	56                   	push   %esi
 804924b:	83 ec 24             	sub    $0x24,%esp
 804924e:	e8 7c 01 00 00       	call   80493cf <__i686.get_pc_thunk.cx>
 8049253:	81 c1 81 6f 00 00    	add    $0x6f81,%ecx
 8049259:	8b 45 08             	mov    0x8(%ebp),%eax
 804925c:	89 45 e4             	mov    %eax,-0x1c(%ebp)
 804925f:	8b 45 0c             	mov    0xc(%ebp),%eax
 8049262:	89 45 e8             	mov    %eax,-0x18(%ebp)
 8049265:	8b 45 10             	mov    0x10(%ebp),%eax
 8049268:	89 45 ec             	mov    %eax,-0x14(%ebp)
 804926b:	8d 45 e4             	lea    -0x1c(%ebp),%eax
 804926e:	c7 45 f8 17 00 00 00 	movl   $0x17,-0x8(%ebp)
 8049275:	89 45 f4             	mov    %eax,-0xc(%ebp)
 8049278:	8b 45 f8             	mov    -0x8(%ebp),%eax
 804927b:	89 45 d8             	mov    %eax,-0x28(%ebp)
 804927e:	8b 55 f4             	mov    -0xc(%ebp),%edx
 8049281:	8b 45 d8             	mov    -0x28(%ebp),%eax
 8049284:	cd 2e                	int    $0x2e
 8049286:	89 c6                	mov    %eax,%esi
 8049288:	89 75 f0             	mov    %esi,-0x10(%ebp)
 804928b:	c7 45 d8 27 00 00 00 	movl   $0x27,-0x28(%ebp)
 8049292:	8b 45 d8             	mov    -0x28(%ebp),%eax
 8049295:	cd 2e                	int    $0x2e
 8049297:	89 c2                	mov    %eax,%edx
 8049299:	8b 81 fc ff ff ff    	mov    -0x4(%ecx),%eax
 804929f:	89 10                	mov    %edx,(%eax)
 80492a1:	8b 45 f0             	mov    -0x10(%ebp),%eax
 80492a4:	83 c4 24             	add    $0x24,%esp
 80492a7:	5e                   	pop    %esi
 80492a8:	5d                   	pop    %ebp
 80492a9:	c3                   	ret    

080492aa <stat>:
 80492aa:	55                   	push   %ebp
 80492ab:	89 e5                	mov    %esp,%ebp
 80492ad:	56                   	push   %esi
 80492ae:	53                   	push   %ebx
 80492af:	83 ec 40             	sub    $0x40,%esp
 80492b2:	e8 c6 f1 ff ff       	call   804847d <__i686.get_pc_thunk.bx>
 80492b7:	81 c3 1d 6f 00 00    	add    $0x6f1d,%ebx
 80492bd:	8b 45 08             	mov    0x8(%ebp),%eax
 80492c0:	89 04 24             	mov    %eax,(%esp)
 80492c3:	e8 c1 39 00 00       	call   804cc89 <strlen>
 80492c8:	89 45 e4             	mov    %eax,-0x1c(%ebp)
 80492cb:	8b 45 08             	mov    0x8(%ebp),%eax
 80492ce:	89 45 e0             	mov    %eax,-0x20(%ebp)
 80492d1:	8b 45 0c             	mov    0xc(%ebp),%eax
 80492d4:	89 45 e8             	mov    %eax,-0x18(%ebp)
 80492d7:	8d 45 e0             	lea    -0x20(%ebp),%eax
 80492da:	c7 45 f4 2f 00 00 00 	movl   $0x2f,-0xc(%ebp)
 80492e1:	89 45 f0             	mov    %eax,-0x10(%ebp)
 80492e4:	8b 45 f4             	mov    -0xc(%ebp),%eax
 80492e7:	89 45 d4             	mov    %eax,-0x2c(%ebp)
 80492ea:	8b 55 f0             	mov    -0x10(%ebp),%edx
 80492ed:	8b 45 d4             	mov    -0x2c(%ebp),%eax
 80492f0:	cd 2e                	int    $0x2e
 80492f2:	89 c6                	mov    %eax,%esi
 80492f4:	89 75 ec             	mov    %esi,-0x14(%ebp)
 80492f7:	c7 45 d4 27 00 00 00 	movl   $0x27,-0x2c(%ebp)
 80492fe:	8b 45 d4             	mov    -0x2c(%ebp),%eax
 8049301:	cd 2e                	int    $0x2e
 8049303:	89 c2                	mov    %eax,%edx
 8049305:	8b 83 fc ff ff ff    	mov    -0x4(%ebx),%eax
 804930b:	89 10                	mov    %edx,(%eax)
 804930d:	8b 45 ec             	mov    -0x14(%ebp),%eax
 8049310:	83 c4 40             	add    $0x40,%esp
 8049313:	5b                   	pop    %ebx
 8049314:	5e                   	pop    %esi
 8049315:	5d                   	pop    %ebp
 8049316:	c3                   	ret    

08049317 <uname>:
 8049317:	55                   	push   %ebp
 8049318:	89 e5                	mov    %esp,%ebp
 804931a:	56                   	push   %esi
 804931b:	83 ec 14             	sub    $0x14,%esp
 804931e:	e8 ac 00 00 00       	call   80493cf <__i686.get_pc_thunk.cx>
 8049323:	81 c1 b1 6e 00 00    	add    $0x6eb1,%ecx
 8049329:	8b 45 08             	mov    0x8(%ebp),%eax
 804932c:	c7 45 f8 1c 00 00 00 	movl   $0x1c,-0x8(%ebp)
 8049333:	89 45 f4             	mov    %eax,-0xc(%ebp)
 8049336:	8b 45 f8             	mov    -0x8(%ebp),%eax
 8049339:	89 45 e8             	mov    %eax,-0x18(%ebp)
 804933c:	8b 55 f4             	mov    -0xc(%ebp),%edx
 804933f:	8b 45 e8             	mov    -0x18(%ebp),%eax
 8049342:	cd 2e                	int    $0x2e
 8049344:	89 c6                	mov    %eax,%esi
 8049346:	89 75 f0             	mov    %esi,-0x10(%ebp)
 8049349:	c7 45 e8 27 00 00 00 	movl   $0x27,-0x18(%ebp)
 8049350:	8b 45 e8             	mov    -0x18(%ebp),%eax
 8049353:	cd 2e                	int    $0x2e
 8049355:	89 c2                	mov    %eax,%edx
 8049357:	8b 81 fc ff ff ff    	mov    -0x4(%ecx),%eax
 804935d:	89 10                	mov    %edx,(%eax)
 804935f:	8b 45 f0             	mov    -0x10(%ebp),%eax
 8049362:	83 c4 14             	add    $0x14,%esp
 8049365:	5e                   	pop    %esi
 8049366:	5d                   	pop    %ebp
 8049367:	c3                   	ret    

08049368 <debug>:
 8049368:	55                   	push   %ebp
 8049369:	89 e5                	mov    %esp,%ebp
 804936b:	56                   	push   %esi
 804936c:	53                   	push   %ebx
 804936d:	83 ec 40             	sub    $0x40,%esp
 8049370:	e8 08 f1 ff ff       	call   804847d <__i686.get_pc_thunk.bx>
 8049375:	81 c3 5f 6e 00 00    	add    $0x6e5f,%ebx
 804937b:	8b 45 08             	mov    0x8(%ebp),%eax
 804937e:	89 04 24             	mov    %eax,(%esp)
 8049381:	e8 03 39 00 00       	call   804cc89 <strlen>
 8049386:	89 45 e8             	mov    %eax,-0x18(%ebp)
 8049389:	8b 45 08             	mov    0x8(%ebp),%eax
 804938c:	89 45 e4             	mov    %eax,-0x1c(%ebp)
 804938f:	8d 45 e4             	lea    -0x1c(%ebp),%eax
 8049392:	c7 45 f4 29 23 00 00 	movl   $0x2329,-0xc(%ebp)
 8049399:	89 45 f0             	mov    %eax,-0x10(%ebp)
 804939c:	8b 45 f4             	mov    -0xc(%ebp),%eax
 804939f:	89 45 d4             	mov    %eax,-0x2c(%ebp)
 80493a2:	8b 55 f0             	mov    -0x10(%ebp),%edx
 80493a5:	8b 45 d4             	mov    -0x2c(%ebp),%eax
 80493a8:	cd 2e                	int    $0x2e
 80493aa:	89 c6                	mov    %eax,%esi
 80493ac:	89 75 ec             	mov    %esi,-0x14(%ebp)
 80493af:	c7 45 d4 27 00 00 00 	movl   $0x27,-0x2c(%ebp)
 80493b6:	8b 45 d4             	mov    -0x2c(%ebp),%eax
 80493b9:	cd 2e                	int    $0x2e
 80493bb:	89 c2                	mov    %eax,%edx
 80493bd:	8b 83 fc ff ff ff    	mov    -0x4(%ebx),%eax
 80493c3:	89 10                	mov    %edx,(%eax)
 80493c5:	8b 45 ec             	mov    -0x14(%ebp),%eax
 80493c8:	83 c4 40             	add    $0x40,%esp
 80493cb:	5b                   	pop    %ebx
 80493cc:	5e                   	pop    %esi
 80493cd:	5d                   	pop    %ebp
 80493ce:	c3                   	ret    

080493cf <__i686.get_pc_thunk.cx>:
 80493cf:	8b 0c 24             	mov    (%esp),%ecx
 80493d2:	c3                   	ret    
 80493d3:	90                   	nop

080493d4 <__tolower>:
 80493d4:	55                   	push   %ebp
 80493d5:	89 e5                	mov    %esp,%ebp
 80493d7:	83 ec 04             	sub    $0x4,%esp
 80493da:	e8 f0 ff ff ff       	call   80493cf <__i686.get_pc_thunk.cx>
 80493df:	81 c1 f5 6d 00 00    	add    $0x6df5,%ecx
 80493e5:	8b 45 08             	mov    0x8(%ebp),%eax
 80493e8:	88 45 fc             	mov    %al,-0x4(%ebp)
 80493eb:	0f b6 45 fc          	movzbl -0x4(%ebp),%eax
 80493ef:	0f b6 84 01 2c 00 00 	movzbl 0x2c(%ecx,%eax,1),%eax
 80493f6:	00 
 80493f7:	0f b6 c0             	movzbl %al,%eax
 80493fa:	83 e0 01             	and    $0x1,%eax
 80493fd:	84 c0                	test   %al,%al
 80493ff:	74 04                	je     8049405 <__tolower+0x31>
 8049401:	80 45 fc 20          	addb   $0x20,-0x4(%ebp)
 8049405:	0f b6 45 fc          	movzbl -0x4(%ebp),%eax
 8049409:	c9                   	leave  
 804940a:	c3                   	ret    

0804940b <__toupper>:
 804940b:	55                   	push   %ebp
 804940c:	89 e5                	mov    %esp,%ebp
 804940e:	83 ec 04             	sub    $0x4,%esp
 8049411:	e8 b9 ff ff ff       	call   80493cf <__i686.get_pc_thunk.cx>
 8049416:	81 c1 be 6d 00 00    	add    $0x6dbe,%ecx
 804941c:	8b 45 08             	mov    0x8(%ebp),%eax
 804941f:	88 45 fc             	mov    %al,-0x4(%ebp)
 8049422:	0f b6 45 fc          	movzbl -0x4(%ebp),%eax
 8049426:	0f b6 84 01 2c 00 00 	movzbl 0x2c(%ecx,%eax,1),%eax
 804942d:	00 
 804942e:	0f b6 c0             	movzbl %al,%eax
 8049431:	83 e0 02             	and    $0x2,%eax
 8049434:	85 c0                	test   %eax,%eax
 8049436:	74 04                	je     804943c <__toupper+0x31>
 8049438:	80 6d fc 20          	subb   $0x20,-0x4(%ebp)
 804943c:	0f b6 45 fc          	movzbl -0x4(%ebp),%eax
 8049440:	c9                   	leave  
 8049441:	c3                   	ret    

08049442 <skip_atoi>:
 8049442:	55                   	push   %ebp
 8049443:	89 e5                	mov    %esp,%ebp
 8049445:	53                   	push   %ebx
 8049446:	83 ec 10             	sub    $0x10,%esp
 8049449:	e8 2f f0 ff ff       	call   804847d <__i686.get_pc_thunk.bx>
 804944e:	81 c3 86 6d 00 00    	add    $0x6d86,%ebx
 8049454:	c7 45 f8 00 00 00 00 	movl   $0x0,-0x8(%ebp)
 804945b:	eb 29                	jmp    8049486 <skip_atoi+0x44>
 804945d:	8b 55 f8             	mov    -0x8(%ebp),%edx
 8049460:	89 d0                	mov    %edx,%eax
 8049462:	c1 e0 02             	shl    $0x2,%eax
 8049465:	01 d0                	add    %edx,%eax
 8049467:	01 c0                	add    %eax,%eax
 8049469:	89 c1                	mov    %eax,%ecx
 804946b:	8b 45 08             	mov    0x8(%ebp),%eax
 804946e:	8b 00                	mov    (%eax),%eax
 8049470:	0f b6 10             	movzbl (%eax),%edx
 8049473:	0f be d2             	movsbl %dl,%edx
 8049476:	01 ca                	add    %ecx,%edx
 8049478:	83 ea 30             	sub    $0x30,%edx
 804947b:	89 55 f8             	mov    %edx,-0x8(%ebp)
 804947e:	8d 50 01             	lea    0x1(%eax),%edx
 8049481:	8b 45 08             	mov    0x8(%ebp),%eax
 8049484:	89 10                	mov    %edx,(%eax)
 8049486:	8b 45 08             	mov    0x8(%ebp),%eax
 8049489:	8b 00                	mov    (%eax),%eax
 804948b:	0f b6 00             	movzbl (%eax),%eax
 804948e:	0f b6 c0             	movzbl %al,%eax
 8049491:	0f b6 84 03 2c 00 00 	movzbl 0x2c(%ebx,%eax,1),%eax
 8049498:	00 
 8049499:	0f b6 c0             	movzbl %al,%eax
 804949c:	83 e0 04             	and    $0x4,%eax
 804949f:	85 c0                	test   %eax,%eax
 80494a1:	75 ba                	jne    804945d <skip_atoi+0x1b>
 80494a3:	8b 45 f8             	mov    -0x8(%ebp),%eax
 80494a6:	83 c4 10             	add    $0x10,%esp
 80494a9:	5b                   	pop    %ebx
 80494aa:	5d                   	pop    %ebp
 80494ab:	c3                   	ret    

080494ac <number>:
 80494ac:	55                   	push   %ebp
 80494ad:	89 e5                	mov    %esp,%ebp
 80494af:	57                   	push   %edi
 80494b0:	56                   	push   %esi
 80494b1:	53                   	push   %ebx
 80494b2:	81 ec dc 00 00 00    	sub    $0xdc,%esp
 80494b8:	e8 c0 ef ff ff       	call   804847d <__i686.get_pc_thunk.bx>
 80494bd:	81 c3 17 6d 00 00    	add    $0x6d17,%ebx
 80494c3:	8b 45 10             	mov    0x10(%ebp),%eax
 80494c6:	89 85 30 ff ff ff    	mov    %eax,-0xd0(%ebp)
 80494cc:	8b 45 14             	mov    0x14(%ebp),%eax
 80494cf:	89 85 34 ff ff ff    	mov    %eax,-0xcc(%ebp)
 80494d5:	c7 85 65 ff ff ff 30 	movl   $0x33323130,-0x9b(%ebp)
 80494dc:	31 32 33 
 80494df:	c7 85 69 ff ff ff 34 	movl   $0x37363534,-0x97(%ebp)
 80494e6:	35 36 37 
 80494e9:	c7 85 6d ff ff ff 38 	movl   $0x62613938,-0x93(%ebp)
 80494f0:	39 61 62 
 80494f3:	c7 85 71 ff ff ff 63 	movl   $0x66656463,-0x8f(%ebp)
 80494fa:	64 65 66 
 80494fd:	c7 85 75 ff ff ff 67 	movl   $0x6a696867,-0x8b(%ebp)
 8049504:	68 69 6a 
 8049507:	c7 85 79 ff ff ff 6b 	movl   $0x6e6d6c6b,-0x87(%ebp)
 804950e:	6c 6d 6e 
 8049511:	c7 85 7d ff ff ff 6f 	movl   $0x7271706f,-0x83(%ebp)
 8049518:	70 71 72 
 804951b:	c7 45 81 73 74 75 76 	movl   $0x76757473,-0x7f(%ebp)
 8049522:	c7 45 85 77 78 79 7a 	movl   $0x7a797877,-0x7b(%ebp)
 8049529:	c6 45 89 00          	movb   $0x0,-0x77(%ebp)
 804952d:	c7 85 40 ff ff ff 30 	movl   $0x33323130,-0xc0(%ebp)
 8049534:	31 32 33 
 8049537:	c7 85 44 ff ff ff 34 	movl   $0x37363534,-0xbc(%ebp)
 804953e:	35 36 37 
 8049541:	c7 85 48 ff ff ff 38 	movl   $0x42413938,-0xb8(%ebp)
 8049548:	39 41 42 
 804954b:	c7 85 4c ff ff ff 43 	movl   $0x46454443,-0xb4(%ebp)
 8049552:	44 45 46 
 8049555:	c7 85 50 ff ff ff 47 	movl   $0x4a494847,-0xb0(%ebp)
 804955c:	48 49 4a 
 804955f:	c7 85 54 ff ff ff 4b 	movl   $0x4e4d4c4b,-0xac(%ebp)
 8049566:	4c 4d 4e 
 8049569:	c7 85 58 ff ff ff 4f 	movl   $0x5251504f,-0xa8(%ebp)
 8049570:	50 51 52 
 8049573:	c7 85 5c ff ff ff 53 	movl   $0x56555453,-0xa4(%ebp)
 804957a:	54 55 56 
 804957d:	c7 85 60 ff ff ff 57 	movl   $0x5a595857,-0xa0(%ebp)
 8049584:	58 59 5a 
 8049587:	c6 85 64 ff ff ff 00 	movb   $0x0,-0x9c(%ebp)
 804958e:	8b 45 24             	mov    0x24(%ebp),%eax
 8049591:	83 e0 40             	and    $0x40,%eax
 8049594:	85 c0                	test   %eax,%eax
 8049596:	74 08                	je     80495a0 <number+0xf4>
 8049598:	8d 85 40 ff ff ff    	lea    -0xc0(%ebp),%eax
 804959e:	eb 06                	jmp    80495a6 <number+0xfa>
 80495a0:	8d 85 65 ff ff ff    	lea    -0x9b(%ebp),%eax
 80495a6:	89 45 d4             	mov    %eax,-0x2c(%ebp)
 80495a9:	8b 45 24             	mov    0x24(%ebp),%eax
 80495ac:	83 e0 10             	and    $0x10,%eax
 80495af:	85 c0                	test   %eax,%eax
 80495b1:	74 04                	je     80495b7 <number+0x10b>
 80495b3:	83 65 24 fe          	andl   $0xfffffffe,0x24(%ebp)
 80495b7:	83 7d 18 01          	cmpl   $0x1,0x18(%ebp)
 80495bb:	7e 06                	jle    80495c3 <number+0x117>
 80495bd:	83 7d 18 24          	cmpl   $0x24,0x18(%ebp)
 80495c1:	7e 08                	jle    80495cb <number+0x11f>
 80495c3:	8b 45 08             	mov    0x8(%ebp),%eax
 80495c6:	e9 99 02 00 00       	jmp    8049864 <number+0x3b8>
 80495cb:	8b 45 24             	mov    0x24(%ebp),%eax
 80495ce:	83 e0 01             	and    $0x1,%eax
 80495d1:	84 c0                	test   %al,%al
 80495d3:	74 07                	je     80495dc <number+0x130>
 80495d5:	b8 30 00 00 00       	mov    $0x30,%eax
 80495da:	eb 05                	jmp    80495e1 <number+0x135>
 80495dc:	b8 20 00 00 00       	mov    $0x20,%eax
 80495e1:	88 45 d3             	mov    %al,-0x2d(%ebp)
 80495e4:	c6 45 e7 00          	movb   $0x0,-0x19(%ebp)
 80495e8:	8b 45 24             	mov    0x24(%ebp),%eax
 80495eb:	83 e0 02             	and    $0x2,%eax
 80495ee:	85 c0                	test   %eax,%eax
 80495f0:	74 4c                	je     804963e <number+0x192>
 80495f2:	83 bd 34 ff ff ff 00 	cmpl   $0x0,-0xcc(%ebp)
 80495f9:	79 1d                	jns    8049618 <number+0x16c>
 80495fb:	c6 45 e7 2d          	movb   $0x2d,-0x19(%ebp)
 80495ff:	f7 9d 30 ff ff ff    	negl   -0xd0(%ebp)
 8049605:	83 95 34 ff ff ff 00 	adcl   $0x0,-0xcc(%ebp)
 804960c:	f7 9d 34 ff ff ff    	negl   -0xcc(%ebp)
 8049612:	83 6d 1c 01          	subl   $0x1,0x1c(%ebp)
 8049616:	eb 26                	jmp    804963e <number+0x192>
 8049618:	8b 45 24             	mov    0x24(%ebp),%eax
 804961b:	83 e0 04             	and    $0x4,%eax
 804961e:	85 c0                	test   %eax,%eax
 8049620:	74 0a                	je     804962c <number+0x180>
 8049622:	c6 45 e7 2b          	movb   $0x2b,-0x19(%ebp)
 8049626:	83 6d 1c 01          	subl   $0x1,0x1c(%ebp)
 804962a:	eb 12                	jmp    804963e <number+0x192>
 804962c:	8b 45 24             	mov    0x24(%ebp),%eax
 804962f:	83 e0 08             	and    $0x8,%eax
 8049632:	85 c0                	test   %eax,%eax
 8049634:	74 08                	je     804963e <number+0x192>
 8049636:	c6 45 e7 20          	movb   $0x20,-0x19(%ebp)
 804963a:	83 6d 1c 01          	subl   $0x1,0x1c(%ebp)
 804963e:	8b 45 24             	mov    0x24(%ebp),%eax
 8049641:	83 e0 20             	and    $0x20,%eax
 8049644:	85 c0                	test   %eax,%eax
 8049646:	74 16                	je     804965e <number+0x1b2>
 8049648:	83 7d 18 10          	cmpl   $0x10,0x18(%ebp)
 804964c:	75 06                	jne    8049654 <number+0x1a8>
 804964e:	83 6d 1c 02          	subl   $0x2,0x1c(%ebp)
 8049652:	eb 0a                	jmp    804965e <number+0x1b2>
 8049654:	83 7d 18 08          	cmpl   $0x8,0x18(%ebp)
 8049658:	75 04                	jne    804965e <number+0x1b2>
 804965a:	83 6d 1c 01          	subl   $0x1,0x1c(%ebp)
 804965e:	c7 45 e0 00 00 00 00 	movl   $0x0,-0x20(%ebp)
 8049665:	8b 85 30 ff ff ff    	mov    -0xd0(%ebp),%eax
 804966b:	8b 95 34 ff ff ff    	mov    -0xcc(%ebp),%edx
 8049671:	09 d0                	or     %edx,%eax
 8049673:	85 c0                	test   %eax,%eax
 8049675:	75 12                	jne    8049689 <number+0x1dd>
 8049677:	8d 45 8a             	lea    -0x76(%ebp),%eax
 804967a:	03 45 e0             	add    -0x20(%ebp),%eax
 804967d:	c6 00 30             	movb   $0x30,(%eax)
 8049680:	83 45 e0 01          	addl   $0x1,-0x20(%ebp)
 8049684:	e9 82 00 00 00       	jmp    804970b <number+0x25f>
 8049689:	8b 85 30 ff ff ff    	mov    -0xd0(%ebp),%eax
 804968f:	8b 95 34 ff ff ff    	mov    -0xcc(%ebp),%edx
 8049695:	89 45 d8             	mov    %eax,-0x28(%ebp)
 8049698:	89 55 dc             	mov    %edx,-0x24(%ebp)
 804969b:	8b 45 18             	mov    0x18(%ebp),%eax
 804969e:	89 45 cc             	mov    %eax,-0x34(%ebp)
 80496a1:	eb 5c                	jmp    80496ff <number+0x253>
 80496a3:	8b 75 cc             	mov    -0x34(%ebp),%esi
 80496a6:	bf 00 00 00 00       	mov    $0x0,%edi
 80496ab:	8b 45 d8             	mov    -0x28(%ebp),%eax
 80496ae:	8b 55 dc             	mov    -0x24(%ebp),%edx
 80496b1:	89 74 24 08          	mov    %esi,0x8(%esp)
 80496b5:	89 7c 24 0c          	mov    %edi,0xc(%esp)
 80496b9:	89 04 24             	mov    %eax,(%esp)
 80496bc:	89 54 24 04          	mov    %edx,0x4(%esp)
 80496c0:	e8 1d 33 00 00       	call   804c9e2 <__umoddi3>
 80496c5:	03 45 d4             	add    -0x2c(%ebp),%eax
 80496c8:	0f b6 10             	movzbl (%eax),%edx
 80496cb:	8d 45 8a             	lea    -0x76(%ebp),%eax
 80496ce:	03 45 e0             	add    -0x20(%ebp),%eax
 80496d1:	88 10                	mov    %dl,(%eax)
 80496d3:	83 45 e0 01          	addl   $0x1,-0x20(%ebp)
 80496d7:	8b 45 cc             	mov    -0x34(%ebp),%eax
 80496da:	ba 00 00 00 00       	mov    $0x0,%edx
 80496df:	89 44 24 08          	mov    %eax,0x8(%esp)
 80496e3:	89 54 24 0c          	mov    %edx,0xc(%esp)
 80496e7:	8b 45 d8             	mov    -0x28(%ebp),%eax
 80496ea:	8b 55 dc             	mov    -0x24(%ebp),%edx
 80496ed:	89 04 24             	mov    %eax,(%esp)
 80496f0:	89 54 24 04          	mov    %edx,0x4(%esp)
 80496f4:	e8 91 32 00 00       	call   804c98a <__udivdi3>
 80496f9:	89 45 d8             	mov    %eax,-0x28(%ebp)
 80496fc:	89 55 dc             	mov    %edx,-0x24(%ebp)
 80496ff:	8b 45 d8             	mov    -0x28(%ebp),%eax
 8049702:	8b 55 dc             	mov    -0x24(%ebp),%edx
 8049705:	09 d0                	or     %edx,%eax
 8049707:	85 c0                	test   %eax,%eax
 8049709:	75 98                	jne    80496a3 <number+0x1f7>
 804970b:	8b 45 e0             	mov    -0x20(%ebp),%eax
 804970e:	3b 45 20             	cmp    0x20(%ebp),%eax
 8049711:	7e 06                	jle    8049719 <number+0x26d>
 8049713:	8b 45 e0             	mov    -0x20(%ebp),%eax
 8049716:	89 45 20             	mov    %eax,0x20(%ebp)
 8049719:	8b 45 20             	mov    0x20(%ebp),%eax
 804971c:	29 45 1c             	sub    %eax,0x1c(%ebp)
 804971f:	8b 45 24             	mov    0x24(%ebp),%eax
 8049722:	83 e0 11             	and    $0x11,%eax
 8049725:	85 c0                	test   %eax,%eax
 8049727:	75 23                	jne    804974c <number+0x2a0>
 8049729:	eb 12                	jmp    804973d <number+0x291>
 804972b:	8b 45 08             	mov    0x8(%ebp),%eax
 804972e:	3b 45 0c             	cmp    0xc(%ebp),%eax
 8049731:	77 06                	ja     8049739 <number+0x28d>
 8049733:	8b 45 08             	mov    0x8(%ebp),%eax
 8049736:	c6 00 20             	movb   $0x20,(%eax)
 8049739:	83 45 08 01          	addl   $0x1,0x8(%ebp)
 804973d:	83 7d 1c 00          	cmpl   $0x0,0x1c(%ebp)
 8049741:	0f 9f c0             	setg   %al
 8049744:	83 6d 1c 01          	subl   $0x1,0x1c(%ebp)
 8049748:	84 c0                	test   %al,%al
 804974a:	75 df                	jne    804972b <number+0x27f>
 804974c:	80 7d e7 00          	cmpb   $0x0,-0x19(%ebp)
 8049750:	74 15                	je     8049767 <number+0x2bb>
 8049752:	8b 45 08             	mov    0x8(%ebp),%eax
 8049755:	3b 45 0c             	cmp    0xc(%ebp),%eax
 8049758:	77 09                	ja     8049763 <number+0x2b7>
 804975a:	8b 45 08             	mov    0x8(%ebp),%eax
 804975d:	0f b6 55 e7          	movzbl -0x19(%ebp),%edx
 8049761:	88 10                	mov    %dl,(%eax)
 8049763:	83 45 08 01          	addl   $0x1,0x8(%ebp)
 8049767:	8b 45 24             	mov    0x24(%ebp),%eax
 804976a:	83 e0 20             	and    $0x20,%eax
 804976d:	85 c0                	test   %eax,%eax
 804976f:	74 4a                	je     80497bb <number+0x30f>
 8049771:	83 7d 18 08          	cmpl   $0x8,0x18(%ebp)
 8049775:	75 14                	jne    804978b <number+0x2df>
 8049777:	8b 45 08             	mov    0x8(%ebp),%eax
 804977a:	3b 45 0c             	cmp    0xc(%ebp),%eax
 804977d:	77 06                	ja     8049785 <number+0x2d9>
 804977f:	8b 45 08             	mov    0x8(%ebp),%eax
 8049782:	c6 00 30             	movb   $0x30,(%eax)
 8049785:	83 45 08 01          	addl   $0x1,0x8(%ebp)
 8049789:	eb 30                	jmp    80497bb <number+0x30f>
 804978b:	83 7d 18 10          	cmpl   $0x10,0x18(%ebp)
 804978f:	75 2a                	jne    80497bb <number+0x30f>
 8049791:	8b 45 08             	mov    0x8(%ebp),%eax
 8049794:	3b 45 0c             	cmp    0xc(%ebp),%eax
 8049797:	77 06                	ja     804979f <number+0x2f3>
 8049799:	8b 45 08             	mov    0x8(%ebp),%eax
 804979c:	c6 00 30             	movb   $0x30,(%eax)
 804979f:	83 45 08 01          	addl   $0x1,0x8(%ebp)
 80497a3:	8b 45 08             	mov    0x8(%ebp),%eax
 80497a6:	3b 45 0c             	cmp    0xc(%ebp),%eax
 80497a9:	77 0c                	ja     80497b7 <number+0x30b>
 80497ab:	8b 45 d4             	mov    -0x2c(%ebp),%eax
 80497ae:	0f b6 50 21          	movzbl 0x21(%eax),%edx
 80497b2:	8b 45 08             	mov    0x8(%ebp),%eax
 80497b5:	88 10                	mov    %dl,(%eax)
 80497b7:	83 45 08 01          	addl   $0x1,0x8(%ebp)
 80497bb:	8b 45 24             	mov    0x24(%ebp),%eax
 80497be:	83 e0 10             	and    $0x10,%eax
 80497c1:	85 c0                	test   %eax,%eax
 80497c3:	75 3c                	jne    8049801 <number+0x355>
 80497c5:	eb 15                	jmp    80497dc <number+0x330>
 80497c7:	8b 45 08             	mov    0x8(%ebp),%eax
 80497ca:	3b 45 0c             	cmp    0xc(%ebp),%eax
 80497cd:	77 09                	ja     80497d8 <number+0x32c>
 80497cf:	8b 45 08             	mov    0x8(%ebp),%eax
 80497d2:	0f b6 55 d3          	movzbl -0x2d(%ebp),%edx
 80497d6:	88 10                	mov    %dl,(%eax)
 80497d8:	83 45 08 01          	addl   $0x1,0x8(%ebp)
 80497dc:	83 7d 1c 00          	cmpl   $0x0,0x1c(%ebp)
 80497e0:	0f 9f c0             	setg   %al
 80497e3:	83 6d 1c 01          	subl   $0x1,0x1c(%ebp)
 80497e7:	84 c0                	test   %al,%al
 80497e9:	75 dc                	jne    80497c7 <number+0x31b>
 80497eb:	eb 14                	jmp    8049801 <number+0x355>
 80497ed:	8b 45 08             	mov    0x8(%ebp),%eax
 80497f0:	3b 45 0c             	cmp    0xc(%ebp),%eax
 80497f3:	77 06                	ja     80497fb <number+0x34f>
 80497f5:	8b 45 08             	mov    0x8(%ebp),%eax
 80497f8:	c6 00 30             	movb   $0x30,(%eax)
 80497fb:	83 45 08 01          	addl   $0x1,0x8(%ebp)
 80497ff:	eb 01                	jmp    8049802 <number+0x356>
 8049801:	90                   	nop
 8049802:	8b 45 20             	mov    0x20(%ebp),%eax
 8049805:	3b 45 e0             	cmp    -0x20(%ebp),%eax
 8049808:	0f 9f c0             	setg   %al
 804980b:	83 6d 20 01          	subl   $0x1,0x20(%ebp)
 804980f:	84 c0                	test   %al,%al
 8049811:	75 da                	jne    80497ed <number+0x341>
 8049813:	eb 1a                	jmp    804982f <number+0x383>
 8049815:	8b 45 08             	mov    0x8(%ebp),%eax
 8049818:	3b 45 0c             	cmp    0xc(%ebp),%eax
 804981b:	77 0e                	ja     804982b <number+0x37f>
 804981d:	8d 45 8a             	lea    -0x76(%ebp),%eax
 8049820:	03 45 e0             	add    -0x20(%ebp),%eax
 8049823:	0f b6 10             	movzbl (%eax),%edx
 8049826:	8b 45 08             	mov    0x8(%ebp),%eax
 8049829:	88 10                	mov    %dl,(%eax)
 804982b:	83 45 08 01          	addl   $0x1,0x8(%ebp)
 804982f:	83 7d e0 00          	cmpl   $0x0,-0x20(%ebp)
 8049833:	0f 9f c0             	setg   %al
 8049836:	83 6d e0 01          	subl   $0x1,-0x20(%ebp)
 804983a:	84 c0                	test   %al,%al
 804983c:	75 d7                	jne    8049815 <number+0x369>
 804983e:	eb 12                	jmp    8049852 <number+0x3a6>
 8049840:	8b 45 08             	mov    0x8(%ebp),%eax
 8049843:	3b 45 0c             	cmp    0xc(%ebp),%eax
 8049846:	77 06                	ja     804984e <number+0x3a2>
 8049848:	8b 45 08             	mov    0x8(%ebp),%eax
 804984b:	c6 00 20             	movb   $0x20,(%eax)
 804984e:	83 45 08 01          	addl   $0x1,0x8(%ebp)
 8049852:	83 7d 1c 00          	cmpl   $0x0,0x1c(%ebp)
 8049856:	0f 9f c0             	setg   %al
 8049859:	83 6d 1c 01          	subl   $0x1,0x1c(%ebp)
 804985d:	84 c0                	test   %al,%al
 804985f:	75 df                	jne    8049840 <number+0x394>
 8049861:	8b 45 08             	mov    0x8(%ebp),%eax
 8049864:	81 c4 dc 00 00 00    	add    $0xdc,%esp
 804986a:	5b                   	pop    %ebx
 804986b:	5e                   	pop    %esi
 804986c:	5f                   	pop    %edi
 804986d:	5d                   	pop    %ebp
 804986e:	c3                   	ret    

0804986f <vsnprintf>:
 804986f:	55                   	push   %ebp
 8049870:	89 e5                	mov    %esp,%ebp
 8049872:	53                   	push   %ebx
 8049873:	83 ec 64             	sub    $0x64,%esp
 8049876:	e8 02 ec ff ff       	call   804847d <__i686.get_pc_thunk.bx>
 804987b:	81 c3 59 69 00 00    	add    $0x6959,%ebx
 8049881:	8b 45 08             	mov    0x8(%ebp),%eax
 8049884:	89 45 e4             	mov    %eax,-0x1c(%ebp)
 8049887:	8b 45 0c             	mov    0xc(%ebp),%eax
 804988a:	83 e8 01             	sub    $0x1,%eax
 804988d:	03 45 08             	add    0x8(%ebp),%eax
 8049890:	89 45 e0             	mov    %eax,-0x20(%ebp)
 8049893:	8b 45 08             	mov    0x8(%ebp),%eax
 8049896:	83 e8 01             	sub    $0x1,%eax
 8049899:	3b 45 e0             	cmp    -0x20(%ebp),%eax
 804989c:	0f 86 65 07 00 00    	jbe    804a007 <vsnprintf+0x798>
 80498a2:	c7 45 e0 ff ff ff ff 	movl   $0xffffffff,-0x20(%ebp)
 80498a9:	8b 55 e0             	mov    -0x20(%ebp),%edx
 80498ac:	8b 45 08             	mov    0x8(%ebp),%eax
 80498af:	89 d1                	mov    %edx,%ecx
 80498b1:	29 c1                	sub    %eax,%ecx
 80498b3:	89 c8                	mov    %ecx,%eax
 80498b5:	83 c0 01             	add    $0x1,%eax
 80498b8:	89 45 0c             	mov    %eax,0xc(%ebp)
 80498bb:	e9 47 07 00 00       	jmp    804a007 <vsnprintf+0x798>
 80498c0:	8b 45 10             	mov    0x10(%ebp),%eax
 80498c3:	0f b6 00             	movzbl (%eax),%eax
 80498c6:	3c 25                	cmp    $0x25,%al
 80498c8:	74 1c                	je     80498e6 <vsnprintf+0x77>
 80498ca:	8b 45 e4             	mov    -0x1c(%ebp),%eax
 80498cd:	3b 45 e0             	cmp    -0x20(%ebp),%eax
 80498d0:	77 0b                	ja     80498dd <vsnprintf+0x6e>
 80498d2:	8b 45 10             	mov    0x10(%ebp),%eax
 80498d5:	0f b6 10             	movzbl (%eax),%edx
 80498d8:	8b 45 e4             	mov    -0x1c(%ebp),%eax
 80498db:	88 10                	mov    %dl,(%eax)
 80498dd:	83 45 e4 01          	addl   $0x1,-0x1c(%ebp)
 80498e1:	e9 16 07 00 00       	jmp    8049ffc <vsnprintf+0x78d>
 80498e6:	c7 45 d8 00 00 00 00 	movl   $0x0,-0x28(%ebp)
 80498ed:	8b 45 10             	mov    0x10(%ebp),%eax
 80498f0:	83 c0 01             	add    $0x1,%eax
 80498f3:	89 45 10             	mov    %eax,0x10(%ebp)
 80498f6:	8b 45 10             	mov    0x10(%ebp),%eax
 80498f9:	0f b6 00             	movzbl (%eax),%eax
 80498fc:	0f be c0             	movsbl %al,%eax
 80498ff:	83 e8 20             	sub    $0x20,%eax
 8049902:	83 f8 10             	cmp    $0x10,%eax
 8049905:	0f 87 83 00 00 00    	ja     804998e <vsnprintf+0x11f>
 804990b:	c1 e0 02             	shl    $0x2,%eax
 804990e:	8b 84 18 4c 97 ff ff 	mov    -0x68b4(%eax,%ebx,1),%eax
 8049915:	89 da                	mov    %ebx,%edx
 8049917:	29 c2                	sub    %eax,%edx
 8049919:	89 d0                	mov    %edx,%eax
 804991b:	ff e0                	jmp    *%eax
 804991d:	8d 76 00             	lea    0x0(%esi),%esi
 8049920:	61                   	popa   
 8049921:	68 00 00 46 68       	push   $0x68460000
 8049926:	00 00                	add    %al,(%eax)
 8049928:	46                   	inc    %esi
 8049929:	68 00 00 58 68       	push   $0x68580000
 804992e:	00 00                	add    %al,(%eax)
 8049930:	46                   	inc    %esi
 8049931:	68 00 00 46 68       	push   $0x68460000
 8049936:	00 00                	add    %al,(%eax)
 8049938:	46                   	inc    %esi
 8049939:	68 00 00 46 68       	push   $0x68460000
 804993e:	00 00                	add    %al,(%eax)
 8049940:	46                   	inc    %esi
 8049941:	68 00 00 46 68       	push   $0x68460000
 8049946:	00 00                	add    %al,(%eax)
 8049948:	46                   	inc    %esi
 8049949:	68 00 00 6a 68       	push   $0x686a0000
 804994e:	00 00                	add    %al,(%eax)
 8049950:	46                   	inc    %esi
 8049951:	68 00 00 70 68       	push   $0x68700000
 8049956:	00 00                	add    %al,(%eax)
 8049958:	46                   	inc    %esi
 8049959:	68 00 00 46 68       	push   $0x68460000
 804995e:	00 00                	add    %al,(%eax)
 8049960:	4f                   	dec    %edi
 8049961:	68 00 00 83 4d       	push   $0x4d830000
 8049966:	d8 10                	fcoms  (%eax)
 8049968:	eb 83                	jmp    80498ed <vsnprintf+0x7e>
 804996a:	83 4d d8 04          	orl    $0x4,-0x28(%ebp)
 804996e:	e9 7a ff ff ff       	jmp    80498ed <vsnprintf+0x7e>
 8049973:	83 4d d8 08          	orl    $0x8,-0x28(%ebp)
 8049977:	e9 71 ff ff ff       	jmp    80498ed <vsnprintf+0x7e>
 804997c:	83 4d d8 20          	orl    $0x20,-0x28(%ebp)
 8049980:	e9 68 ff ff ff       	jmp    80498ed <vsnprintf+0x7e>
 8049985:	83 4d d8 01          	orl    $0x1,-0x28(%ebp)
 8049989:	e9 5f ff ff ff       	jmp    80498ed <vsnprintf+0x7e>
 804998e:	c7 45 d4 ff ff ff ff 	movl   $0xffffffff,-0x2c(%ebp)
 8049995:	8b 45 10             	mov    0x10(%ebp),%eax
 8049998:	0f b6 00             	movzbl (%eax),%eax
 804999b:	0f b6 c0             	movzbl %al,%eax
 804999e:	0f b6 84 03 2c 00 00 	movzbl 0x2c(%ebx,%eax,1),%eax
 80499a5:	00 
 80499a6:	0f b6 c0             	movzbl %al,%eax
 80499a9:	83 e0 04             	and    $0x4,%eax
 80499ac:	85 c0                	test   %eax,%eax
 80499ae:	74 10                	je     80499c0 <vsnprintf+0x151>
 80499b0:	8d 45 10             	lea    0x10(%ebp),%eax
 80499b3:	89 04 24             	mov    %eax,(%esp)
 80499b6:	e8 87 fa ff ff       	call   8049442 <skip_atoi>
 80499bb:	89 45 d4             	mov    %eax,-0x2c(%ebp)
 80499be:	eb 2e                	jmp    80499ee <vsnprintf+0x17f>
 80499c0:	8b 45 10             	mov    0x10(%ebp),%eax
 80499c3:	0f b6 00             	movzbl (%eax),%eax
 80499c6:	3c 2a                	cmp    $0x2a,%al
 80499c8:	75 24                	jne    80499ee <vsnprintf+0x17f>
 80499ca:	8b 45 10             	mov    0x10(%ebp),%eax
 80499cd:	83 c0 01             	add    $0x1,%eax
 80499d0:	89 45 10             	mov    %eax,0x10(%ebp)
 80499d3:	8b 45 14             	mov    0x14(%ebp),%eax
 80499d6:	8d 50 04             	lea    0x4(%eax),%edx
 80499d9:	89 55 14             	mov    %edx,0x14(%ebp)
 80499dc:	8b 00                	mov    (%eax),%eax
 80499de:	89 45 d4             	mov    %eax,-0x2c(%ebp)
 80499e1:	83 7d d4 00          	cmpl   $0x0,-0x2c(%ebp)
 80499e5:	79 07                	jns    80499ee <vsnprintf+0x17f>
 80499e7:	f7 5d d4             	negl   -0x2c(%ebp)
 80499ea:	83 4d d8 10          	orl    $0x10,-0x28(%ebp)
 80499ee:	c7 45 d0 ff ff ff ff 	movl   $0xffffffff,-0x30(%ebp)
 80499f5:	8b 45 10             	mov    0x10(%ebp),%eax
 80499f8:	0f b6 00             	movzbl (%eax),%eax
 80499fb:	3c 2e                	cmp    $0x2e,%al
 80499fd:	75 62                	jne    8049a61 <vsnprintf+0x1f2>
 80499ff:	8b 45 10             	mov    0x10(%ebp),%eax
 8049a02:	83 c0 01             	add    $0x1,%eax
 8049a05:	89 45 10             	mov    %eax,0x10(%ebp)
 8049a08:	8b 45 10             	mov    0x10(%ebp),%eax
 8049a0b:	0f b6 00             	movzbl (%eax),%eax
 8049a0e:	0f b6 c0             	movzbl %al,%eax
 8049a11:	0f b6 84 03 2c 00 00 	movzbl 0x2c(%ebx,%eax,1),%eax
 8049a18:	00 
 8049a19:	0f b6 c0             	movzbl %al,%eax
 8049a1c:	83 e0 04             	and    $0x4,%eax
 8049a1f:	85 c0                	test   %eax,%eax
 8049a21:	74 10                	je     8049a33 <vsnprintf+0x1c4>
 8049a23:	8d 45 10             	lea    0x10(%ebp),%eax
 8049a26:	89 04 24             	mov    %eax,(%esp)
 8049a29:	e8 14 fa ff ff       	call   8049442 <skip_atoi>
 8049a2e:	89 45 d0             	mov    %eax,-0x30(%ebp)
 8049a31:	eb 21                	jmp    8049a54 <vsnprintf+0x1e5>
 8049a33:	8b 45 10             	mov    0x10(%ebp),%eax
 8049a36:	0f b6 00             	movzbl (%eax),%eax
 8049a39:	3c 2a                	cmp    $0x2a,%al
 8049a3b:	75 17                	jne    8049a54 <vsnprintf+0x1e5>
 8049a3d:	8b 45 10             	mov    0x10(%ebp),%eax
 8049a40:	83 c0 01             	add    $0x1,%eax
 8049a43:	89 45 10             	mov    %eax,0x10(%ebp)
 8049a46:	8b 45 14             	mov    0x14(%ebp),%eax
 8049a49:	8d 50 04             	lea    0x4(%eax),%edx
 8049a4c:	89 55 14             	mov    %edx,0x14(%ebp)
 8049a4f:	8b 00                	mov    (%eax),%eax
 8049a51:	89 45 d0             	mov    %eax,-0x30(%ebp)
 8049a54:	83 7d d0 00          	cmpl   $0x0,-0x30(%ebp)
 8049a58:	79 07                	jns    8049a61 <vsnprintf+0x1f2>
 8049a5a:	c7 45 d0 00 00 00 00 	movl   $0x0,-0x30(%ebp)
 8049a61:	c7 45 cc ff ff ff ff 	movl   $0xffffffff,-0x34(%ebp)
 8049a68:	8b 45 10             	mov    0x10(%ebp),%eax
 8049a6b:	0f b6 00             	movzbl (%eax),%eax
 8049a6e:	3c 68                	cmp    $0x68,%al
 8049a70:	74 1e                	je     8049a90 <vsnprintf+0x221>
 8049a72:	8b 45 10             	mov    0x10(%ebp),%eax
 8049a75:	0f b6 00             	movzbl (%eax),%eax
 8049a78:	3c 6c                	cmp    $0x6c,%al
 8049a7a:	74 14                	je     8049a90 <vsnprintf+0x221>
 8049a7c:	8b 45 10             	mov    0x10(%ebp),%eax
 8049a7f:	0f b6 00             	movzbl (%eax),%eax
 8049a82:	3c 4c                	cmp    $0x4c,%al
 8049a84:	74 0a                	je     8049a90 <vsnprintf+0x221>
 8049a86:	8b 45 10             	mov    0x10(%ebp),%eax
 8049a89:	0f b6 00             	movzbl (%eax),%eax
 8049a8c:	3c 5a                	cmp    $0x5a,%al
 8049a8e:	75 35                	jne    8049ac5 <vsnprintf+0x256>
 8049a90:	8b 45 10             	mov    0x10(%ebp),%eax
 8049a93:	0f b6 00             	movzbl (%eax),%eax
 8049a96:	0f be c0             	movsbl %al,%eax
 8049a99:	89 45 cc             	mov    %eax,-0x34(%ebp)
 8049a9c:	8b 45 10             	mov    0x10(%ebp),%eax
 8049a9f:	83 c0 01             	add    $0x1,%eax
 8049aa2:	89 45 10             	mov    %eax,0x10(%ebp)
 8049aa5:	83 7d cc 6c          	cmpl   $0x6c,-0x34(%ebp)
 8049aa9:	75 1a                	jne    8049ac5 <vsnprintf+0x256>
 8049aab:	8b 45 10             	mov    0x10(%ebp),%eax
 8049aae:	0f b6 00             	movzbl (%eax),%eax
 8049ab1:	3c 6c                	cmp    $0x6c,%al
 8049ab3:	75 10                	jne    8049ac5 <vsnprintf+0x256>
 8049ab5:	c7 45 cc 4c 00 00 00 	movl   $0x4c,-0x34(%ebp)
 8049abc:	8b 45 10             	mov    0x10(%ebp),%eax
 8049abf:	83 c0 01             	add    $0x1,%eax
 8049ac2:	89 45 10             	mov    %eax,0x10(%ebp)
 8049ac5:	8b 45 10             	mov    0x10(%ebp),%eax
 8049ac8:	0f b6 00             	movzbl (%eax),%eax
 8049acb:	3c 71                	cmp    $0x71,%al
 8049acd:	75 10                	jne    8049adf <vsnprintf+0x270>
 8049acf:	c7 45 cc 4c 00 00 00 	movl   $0x4c,-0x34(%ebp)
 8049ad6:	8b 45 10             	mov    0x10(%ebp),%eax
 8049ad9:	83 c0 01             	add    $0x1,%eax
 8049adc:	89 45 10             	mov    %eax,0x10(%ebp)
 8049adf:	c7 45 e8 0a 00 00 00 	movl   $0xa,-0x18(%ebp)
 8049ae6:	8b 45 10             	mov    0x10(%ebp),%eax
 8049ae9:	0f b6 00             	movzbl (%eax),%eax
 8049aec:	0f be c0             	movsbl %al,%eax
 8049aef:	83 e8 25             	sub    $0x25,%eax
 8049af2:	83 f8 53             	cmp    $0x53,%eax
 8049af5:	0f 87 9d 03 00 00    	ja     8049e98 <vsnprintf+0x629>
 8049afb:	c1 e0 02             	shl    $0x2,%eax
 8049afe:	8b 84 18 3c 99 ff ff 	mov    -0x66c4(%eax,%ebx,1),%eax
 8049b05:	89 d9                	mov    %ebx,%ecx
 8049b07:	29 c1                	sub    %eax,%ecx
 8049b09:	89 c8                	mov    %ecx,%eax
 8049b0b:	ff e0                	jmp    *%eax
 8049b0d:	8d 76 00             	lea    0x0(%esi),%esi
 8049b10:	79 63                	jns    8049b75 <vsnprintf+0x306>
 8049b12:	00 00                	add    %al,(%eax)
 8049b14:	3c 63                	cmp    $0x63,%al
 8049b16:	00 00                	add    %al,(%eax)
 8049b18:	3c 63                	cmp    $0x63,%al
 8049b1a:	00 00                	add    %al,(%eax)
 8049b1c:	3c 63                	cmp    $0x63,%al
 8049b1e:	00 00                	add    %al,(%eax)
 8049b20:	3c 63                	cmp    $0x63,%al
 8049b22:	00 00                	add    %al,(%eax)
 8049b24:	3c 63                	cmp    $0x63,%al
 8049b26:	00 00                	add    %al,(%eax)
 8049b28:	3c 63                	cmp    $0x63,%al
 8049b2a:	00 00                	add    %al,(%eax)
 8049b2c:	3c 63                	cmp    $0x63,%al
 8049b2e:	00 00                	add    %al,(%eax)
 8049b30:	3c 63                	cmp    $0x63,%al
 8049b32:	00 00                	add    %al,(%eax)
 8049b34:	3c 63                	cmp    $0x63,%al
 8049b36:	00 00                	add    %al,(%eax)
 8049b38:	3c 63                	cmp    $0x63,%al
 8049b3a:	00 00                	add    %al,(%eax)
 8049b3c:	3c 63                	cmp    $0x63,%al
 8049b3e:	00 00                	add    %al,(%eax)
 8049b40:	3c 63                	cmp    $0x63,%al
 8049b42:	00 00                	add    %al,(%eax)
 8049b44:	3c 63                	cmp    $0x63,%al
 8049b46:	00 00                	add    %al,(%eax)
 8049b48:	3c 63                	cmp    $0x63,%al
 8049b4a:	00 00                	add    %al,(%eax)
 8049b4c:	3c 63                	cmp    $0x63,%al
 8049b4e:	00 00                	add    %al,(%eax)
 8049b50:	3c 63                	cmp    $0x63,%al
 8049b52:	00 00                	add    %al,(%eax)
 8049b54:	3c 63                	cmp    $0x63,%al
 8049b56:	00 00                	add    %al,(%eax)
 8049b58:	3c 63                	cmp    $0x63,%al
 8049b5a:	00 00                	add    %al,(%eax)
 8049b5c:	3c 63                	cmp    $0x63,%al
 8049b5e:	00 00                	add    %al,(%eax)
 8049b60:	3c 63                	cmp    $0x63,%al
 8049b62:	00 00                	add    %al,(%eax)
 8049b64:	3c 63                	cmp    $0x63,%al
 8049b66:	00 00                	add    %al,(%eax)
 8049b68:	3c 63                	cmp    $0x63,%al
 8049b6a:	00 00                	add    %al,(%eax)
 8049b6c:	3c 63                	cmp    $0x63,%al
 8049b6e:	00 00                	add    %al,(%eax)
 8049b70:	3c 63                	cmp    $0x63,%al
 8049b72:	00 00                	add    %al,(%eax)
 8049b74:	3c 63                	cmp    $0x63,%al
 8049b76:	00 00                	add    %al,(%eax)
 8049b78:	3c 63                	cmp    $0x63,%al
 8049b7a:	00 00                	add    %al,(%eax)
 8049b7c:	3c 63                	cmp    $0x63,%al
 8049b7e:	00 00                	add    %al,(%eax)
 8049b80:	3c 63                	cmp    $0x63,%al
 8049b82:	00 00                	add    %al,(%eax)
 8049b84:	3c 63                	cmp    $0x63,%al
 8049b86:	00 00                	add    %al,(%eax)
 8049b88:	3c 63                	cmp    $0x63,%al
 8049b8a:	00 00                	add    %al,(%eax)
 8049b8c:	3c 63                	cmp    $0x63,%al
 8049b8e:	00 00                	add    %al,(%eax)
 8049b90:	3c 63                	cmp    $0x63,%al
 8049b92:	00 00                	add    %al,(%eax)
 8049b94:	46                   	inc    %esi
 8049b95:	63 00                	arpl   %ax,(%eax)
 8049b97:	00 46 63             	add    %al,0x63(%esi)
 8049b9a:	00 00                	add    %al,(%eax)
 8049b9c:	3c 63                	cmp    $0x63,%al
 8049b9e:	00 00                	add    %al,(%eax)
 8049ba0:	3c 63                	cmp    $0x63,%al
 8049ba2:	00 00                	add    %al,(%eax)
 8049ba4:	3c 63                	cmp    $0x63,%al
 8049ba6:	00 00                	add    %al,(%eax)
 8049ba8:	3c 63                	cmp    $0x63,%al
 8049baa:	00 00                	add    %al,(%eax)
 8049bac:	3c 63                	cmp    $0x63,%al
 8049bae:	00 00                	add    %al,(%eax)
 8049bb0:	3c 63                	cmp    $0x63,%al
 8049bb2:	00 00                	add    %al,(%eax)
 8049bb4:	3c 63                	cmp    $0x63,%al
 8049bb6:	00 00                	add    %al,(%eax)
 8049bb8:	3c 63                	cmp    $0x63,%al
 8049bba:	00 00                	add    %al,(%eax)
 8049bbc:	3c 63                	cmp    $0x63,%al
 8049bbe:	00 00                	add    %al,(%eax)
 8049bc0:	3c 63                	cmp    $0x63,%al
 8049bc2:	00 00                	add    %al,(%eax)
 8049bc4:	3c 63                	cmp    $0x63,%al
 8049bc6:	00 00                	add    %al,(%eax)
 8049bc8:	3c 63                	cmp    $0x63,%al
 8049bca:	00 00                	add    %al,(%eax)
 8049bcc:	3c 63                	cmp    $0x63,%al
 8049bce:	00 00                	add    %al,(%eax)
 8049bd0:	3c 63                	cmp    $0x63,%al
 8049bd2:	00 00                	add    %al,(%eax)
 8049bd4:	3c 63                	cmp    $0x63,%al
 8049bd6:	00 00                	add    %al,(%eax)
 8049bd8:	3c 63                	cmp    $0x63,%al
 8049bda:	00 00                	add    %al,(%eax)
 8049bdc:	59                   	pop    %ecx
 8049bdd:	63 00                	arpl   %ax,(%eax)
 8049bdf:	00 3c 63             	add    %bh,(%ebx,%eiz,2)
 8049be2:	00 00                	add    %al,(%eax)
 8049be4:	3c 63                	cmp    $0x63,%al
 8049be6:	00 00                	add    %al,(%eax)
 8049be8:	3c 63                	cmp    $0x63,%al
 8049bea:	00 00                	add    %al,(%eax)
 8049bec:	3c 63                	cmp    $0x63,%al
 8049bee:	00 00                	add    %al,(%eax)
 8049bf0:	3c 63                	cmp    $0x63,%al
 8049bf2:	00 00                	add    %al,(%eax)
 8049bf4:	3c 63                	cmp    $0x63,%al
 8049bf6:	00 00                	add    %al,(%eax)
 8049bf8:	3c 63                	cmp    $0x63,%al
 8049bfa:	00 00                	add    %al,(%eax)
 8049bfc:	3c 63                	cmp    $0x63,%al
 8049bfe:	00 00                	add    %al,(%eax)
 8049c00:	3c 63                	cmp    $0x63,%al
 8049c02:	00 00                	add    %al,(%eax)
 8049c04:	3c 63                	cmp    $0x63,%al
 8049c06:	00 00                	add    %al,(%eax)
 8049c08:	74 65                	je     8049c6f <vsnprintf+0x400>
 8049c0a:	00 00                	add    %al,(%eax)
 8049c0c:	4c                   	dec    %esp
 8049c0d:	63 00                	arpl   %ax,(%eax)
 8049c0f:	00 3c 63             	add    %bh,(%ebx,%eiz,2)
 8049c12:	00 00                	add    %al,(%eax)
 8049c14:	46                   	inc    %esi
 8049c15:	63 00                	arpl   %ax,(%eax)
 8049c17:	00 46 63             	add    %al,0x63(%esi)
 8049c1a:	00 00                	add    %al,(%eax)
 8049c1c:	3c 63                	cmp    $0x63,%al
 8049c1e:	00 00                	add    %al,(%eax)
 8049c20:	4c                   	dec    %esp
 8049c21:	63 00                	arpl   %ax,(%eax)
 8049c23:	00 3c 63             	add    %bh,(%ebx,%eiz,2)
 8049c26:	00 00                	add    %al,(%eax)
 8049c28:	3c 63                	cmp    $0x63,%al
 8049c2a:	00 00                	add    %al,(%eax)
 8049c2c:	3c 63                	cmp    $0x63,%al
 8049c2e:	00 00                	add    %al,(%eax)
 8049c30:	3c 63                	cmp    $0x63,%al
 8049c32:	00 00                	add    %al,(%eax)
 8049c34:	eb 63                	jmp    8049c99 <vsnprintf+0x42a>
 8049c36:	00 00                	add    %al,(%eax)
 8049c38:	62 63 00             	bound  %esp,0x0(%ebx)
 8049c3b:	00 4b 64             	add    %cl,0x64(%ebx)
 8049c3e:	00 00                	add    %al,(%eax)
 8049c40:	3c 63                	cmp    $0x63,%al
 8049c42:	00 00                	add    %al,(%eax)
 8049c44:	3c 63                	cmp    $0x63,%al
 8049c46:	00 00                	add    %al,(%eax)
 8049c48:	06                   	push   %es
 8049c49:	65 00 00             	add    %al,%gs:(%eax)
 8049c4c:	3c 63                	cmp    $0x63,%al
 8049c4e:	00 00                	add    %al,(%eax)
 8049c50:	f6 62 00             	mulb   0x0(%edx)
 8049c53:	00 3c 63             	add    %bh,(%ebx,%eiz,2)
 8049c56:	00 00                	add    %al,(%eax)
 8049c58:	3c 63                	cmp    $0x63,%al
 8049c5a:	00 00                	add    %al,(%eax)
 8049c5c:	55                   	push   %ebp
 8049c5d:	63 00                	arpl   %ax,(%eax)
 8049c5f:	00 8b 45 d8 83 e0    	add    %cl,-0x1f7c27bb(%ebx)
 8049c65:	10 85 c0 75 1e eb    	adc    %al,-0x14e18a40(%ebp)
 8049c6b:	12 8b 45 e4 3b 45    	adc    0x453be445(%ebx),%cl
 8049c71:	e0 77                	loopne 8049cea <vsnprintf+0x47b>
 8049c73:	06                   	push   %es
 8049c74:	8b 45 e4             	mov    -0x1c(%ebp),%eax
 8049c77:	c6 00 20             	movb   $0x20,(%eax)
 8049c7a:	83 45 e4 01          	addl   $0x1,-0x1c(%ebp)
 8049c7e:	83 6d d4 01          	subl   $0x1,-0x2c(%ebp)
 8049c82:	83 7d d4 00          	cmpl   $0x0,-0x2c(%ebp)
 8049c86:	7f e4                	jg     8049c6c <vsnprintf+0x3fd>
 8049c88:	8b 45 14             	mov    0x14(%ebp),%eax
 8049c8b:	8d 50 04             	lea    0x4(%eax),%edx
 8049c8e:	89 55 14             	mov    %edx,0x14(%ebp)
 8049c91:	8b 00                	mov    (%eax),%eax
 8049c93:	88 45 cb             	mov    %al,-0x35(%ebp)
 8049c96:	8b 45 e4             	mov    -0x1c(%ebp),%eax
 8049c99:	3b 45 e0             	cmp    -0x20(%ebp),%eax
 8049c9c:	77 09                	ja     8049ca7 <vsnprintf+0x438>
 8049c9e:	8b 45 e4             	mov    -0x1c(%ebp),%eax
 8049ca1:	0f b6 55 cb          	movzbl -0x35(%ebp),%edx
 8049ca5:	88 10                	mov    %dl,(%eax)
 8049ca7:	83 45 e4 01          	addl   $0x1,-0x1c(%ebp)
 8049cab:	eb 12                	jmp    8049cbf <vsnprintf+0x450>
 8049cad:	8b 45 e4             	mov    -0x1c(%ebp),%eax
 8049cb0:	3b 45 e0             	cmp    -0x20(%ebp),%eax
 8049cb3:	77 06                	ja     8049cbb <vsnprintf+0x44c>
 8049cb5:	8b 45 e4             	mov    -0x1c(%ebp),%eax
 8049cb8:	c6 00 20             	movb   $0x20,(%eax)
 8049cbb:	83 45 e4 01          	addl   $0x1,-0x1c(%ebp)
 8049cbf:	83 6d d4 01          	subl   $0x1,-0x2c(%ebp)
 8049cc3:	83 7d d4 00          	cmpl   $0x0,-0x2c(%ebp)
 8049cc7:	7f e4                	jg     8049cad <vsnprintf+0x43e>
 8049cc9:	e9 2e 03 00 00       	jmp    8049ffc <vsnprintf+0x78d>
 8049cce:	8b 45 14             	mov    0x14(%ebp),%eax
 8049cd1:	8d 50 04             	lea    0x4(%eax),%edx
 8049cd4:	89 55 14             	mov    %edx,0x14(%ebp)
 8049cd7:	8b 00                	mov    (%eax),%eax
 8049cd9:	89 45 dc             	mov    %eax,-0x24(%ebp)
 8049cdc:	83 7d dc 00          	cmpl   $0x0,-0x24(%ebp)
 8049ce0:	75 09                	jne    8049ceb <vsnprintf+0x47c>
 8049ce2:	8d 83 d8 d5 ff ff    	lea    -0x2a28(%ebx),%eax
 8049ce8:	89 45 dc             	mov    %eax,-0x24(%ebp)
 8049ceb:	8b 45 d0             	mov    -0x30(%ebp),%eax
 8049cee:	89 44 24 04          	mov    %eax,0x4(%esp)
 8049cf2:	8b 45 dc             	mov    -0x24(%ebp),%eax
 8049cf5:	89 04 24             	mov    %eax,(%esp)
 8049cf8:	e8 0f 2f 00 00       	call   804cc0c <strnlen>
 8049cfd:	89 45 c4             	mov    %eax,-0x3c(%ebp)
 8049d00:	8b 45 d8             	mov    -0x28(%ebp),%eax
 8049d03:	83 e0 10             	and    $0x10,%eax
 8049d06:	85 c0                	test   %eax,%eax
 8049d08:	75 25                	jne    8049d2f <vsnprintf+0x4c0>
 8049d0a:	eb 12                	jmp    8049d1e <vsnprintf+0x4af>
 8049d0c:	8b 45 e4             	mov    -0x1c(%ebp),%eax
 8049d0f:	3b 45 e0             	cmp    -0x20(%ebp),%eax
 8049d12:	77 06                	ja     8049d1a <vsnprintf+0x4ab>
 8049d14:	8b 45 e4             	mov    -0x1c(%ebp),%eax
 8049d17:	c6 00 20             	movb   $0x20,(%eax)
 8049d1a:	83 45 e4 01          	addl   $0x1,-0x1c(%ebp)
 8049d1e:	8b 45 d4             	mov    -0x2c(%ebp),%eax
 8049d21:	3b 45 c4             	cmp    -0x3c(%ebp),%eax
 8049d24:	0f 9f c0             	setg   %al
 8049d27:	83 6d d4 01          	subl   $0x1,-0x2c(%ebp)
 8049d2b:	84 c0                	test   %al,%al
 8049d2d:	75 dd                	jne    8049d0c <vsnprintf+0x49d>
 8049d2f:	c7 45 ec 00 00 00 00 	movl   $0x0,-0x14(%ebp)
 8049d36:	eb 1f                	jmp    8049d57 <vsnprintf+0x4e8>
 8049d38:	8b 45 e4             	mov    -0x1c(%ebp),%eax
 8049d3b:	3b 45 e0             	cmp    -0x20(%ebp),%eax
 8049d3e:	77 0b                	ja     8049d4b <vsnprintf+0x4dc>
 8049d40:	8b 45 dc             	mov    -0x24(%ebp),%eax
 8049d43:	0f b6 10             	movzbl (%eax),%edx
 8049d46:	8b 45 e4             	mov    -0x1c(%ebp),%eax
 8049d49:	88 10                	mov    %dl,(%eax)
 8049d4b:	83 45 e4 01          	addl   $0x1,-0x1c(%ebp)
 8049d4f:	83 45 dc 01          	addl   $0x1,-0x24(%ebp)
 8049d53:	83 45 ec 01          	addl   $0x1,-0x14(%ebp)
 8049d57:	8b 45 ec             	mov    -0x14(%ebp),%eax
 8049d5a:	3b 45 c4             	cmp    -0x3c(%ebp),%eax
 8049d5d:	7c d9                	jl     8049d38 <vsnprintf+0x4c9>
 8049d5f:	eb 12                	jmp    8049d73 <vsnprintf+0x504>
 8049d61:	8b 45 e4             	mov    -0x1c(%ebp),%eax
 8049d64:	3b 45 e0             	cmp    -0x20(%ebp),%eax
 8049d67:	77 06                	ja     8049d6f <vsnprintf+0x500>
 8049d69:	8b 45 e4             	mov    -0x1c(%ebp),%eax
 8049d6c:	c6 00 20             	movb   $0x20,(%eax)
 8049d6f:	83 45 e4 01          	addl   $0x1,-0x1c(%ebp)
 8049d73:	8b 45 d4             	mov    -0x2c(%ebp),%eax
 8049d76:	3b 45 c4             	cmp    -0x3c(%ebp),%eax
 8049d79:	0f 9f c0             	setg   %al
 8049d7c:	83 6d d4 01          	subl   $0x1,-0x2c(%ebp)
 8049d80:	84 c0                	test   %al,%al
 8049d82:	75 dd                	jne    8049d61 <vsnprintf+0x4f2>
 8049d84:	e9 73 02 00 00       	jmp    8049ffc <vsnprintf+0x78d>
 8049d89:	83 7d d4 ff          	cmpl   $0xffffffff,-0x2c(%ebp)
 8049d8d:	75 0b                	jne    8049d9a <vsnprintf+0x52b>
 8049d8f:	c7 45 d4 08 00 00 00 	movl   $0x8,-0x2c(%ebp)
 8049d96:	83 4d d8 01          	orl    $0x1,-0x28(%ebp)
 8049d9a:	8b 45 14             	mov    0x14(%ebp),%eax
 8049d9d:	8d 50 04             	lea    0x4(%eax),%edx
 8049da0:	89 55 14             	mov    %edx,0x14(%ebp)
 8049da3:	8b 00                	mov    (%eax),%eax
 8049da5:	ba 00 00 00 00       	mov    $0x0,%edx
 8049daa:	8b 4d d8             	mov    -0x28(%ebp),%ecx
 8049dad:	89 4c 24 1c          	mov    %ecx,0x1c(%esp)
 8049db1:	8b 4d d0             	mov    -0x30(%ebp),%ecx
 8049db4:	89 4c 24 18          	mov    %ecx,0x18(%esp)
 8049db8:	8b 4d d4             	mov    -0x2c(%ebp),%ecx
 8049dbb:	89 4c 24 14          	mov    %ecx,0x14(%esp)
 8049dbf:	c7 44 24 10 10 00 00 	movl   $0x10,0x10(%esp)
 8049dc6:	00 
 8049dc7:	89 44 24 08          	mov    %eax,0x8(%esp)
 8049dcb:	89 54 24 0c          	mov    %edx,0xc(%esp)
 8049dcf:	8b 45 e0             	mov    -0x20(%ebp),%eax
 8049dd2:	89 44 24 04          	mov    %eax,0x4(%esp)
 8049dd6:	8b 45 e4             	mov    -0x1c(%ebp),%eax
 8049dd9:	89 04 24             	mov    %eax,(%esp)
 8049ddc:	e8 cb f6 ff ff       	call   80494ac <number>
 8049de1:	89 45 e4             	mov    %eax,-0x1c(%ebp)
 8049de4:	e9 13 02 00 00       	jmp    8049ffc <vsnprintf+0x78d>
 8049de9:	83 7d cc 6c          	cmpl   $0x6c,-0x34(%ebp)
 8049ded:	75 20                	jne    8049e0f <vsnprintf+0x5a0>
 8049def:	8b 45 14             	mov    0x14(%ebp),%eax
 8049df2:	8d 50 04             	lea    0x4(%eax),%edx
 8049df5:	89 55 14             	mov    %edx,0x14(%ebp)
 8049df8:	8b 00                	mov    (%eax),%eax
 8049dfa:	89 45 c0             	mov    %eax,-0x40(%ebp)
 8049dfd:	8b 55 e4             	mov    -0x1c(%ebp),%edx
 8049e00:	8b 45 08             	mov    0x8(%ebp),%eax
 8049e03:	29 c2                	sub    %eax,%edx
 8049e05:	8b 45 c0             	mov    -0x40(%ebp),%eax
 8049e08:	89 10                	mov    %edx,(%eax)
 8049e0a:	e9 ed 01 00 00       	jmp    8049ffc <vsnprintf+0x78d>
 8049e0f:	83 7d cc 5a          	cmpl   $0x5a,-0x34(%ebp)
 8049e13:	75 26                	jne    8049e3b <vsnprintf+0x5cc>
 8049e15:	8b 45 14             	mov    0x14(%ebp),%eax
 8049e18:	8d 50 04             	lea    0x4(%eax),%edx
 8049e1b:	89 55 14             	mov    %edx,0x14(%ebp)
 8049e1e:	8b 00                	mov    (%eax),%eax
 8049e20:	89 45 bc             	mov    %eax,-0x44(%ebp)
 8049e23:	8b 55 e4             	mov    -0x1c(%ebp),%edx
 8049e26:	8b 45 08             	mov    0x8(%ebp),%eax
 8049e29:	89 d1                	mov    %edx,%ecx
 8049e2b:	29 c1                	sub    %eax,%ecx
 8049e2d:	89 c8                	mov    %ecx,%eax
 8049e2f:	89 c2                	mov    %eax,%edx
 8049e31:	8b 45 bc             	mov    -0x44(%ebp),%eax
 8049e34:	89 10                	mov    %edx,(%eax)
 8049e36:	e9 c1 01 00 00       	jmp    8049ffc <vsnprintf+0x78d>
 8049e3b:	8b 45 14             	mov    0x14(%ebp),%eax
 8049e3e:	8d 50 04             	lea    0x4(%eax),%edx
 8049e41:	89 55 14             	mov    %edx,0x14(%ebp)
 8049e44:	8b 00                	mov    (%eax),%eax
 8049e46:	89 45 b8             	mov    %eax,-0x48(%ebp)
 8049e49:	8b 55 e4             	mov    -0x1c(%ebp),%edx
 8049e4c:	8b 45 08             	mov    0x8(%ebp),%eax
 8049e4f:	29 c2                	sub    %eax,%edx
 8049e51:	8b 45 b8             	mov    -0x48(%ebp),%eax
 8049e54:	89 10                	mov    %edx,(%eax)
 8049e56:	e9 a1 01 00 00       	jmp    8049ffc <vsnprintf+0x78d>
 8049e5b:	8b 45 e4             	mov    -0x1c(%ebp),%eax
 8049e5e:	3b 45 e0             	cmp    -0x20(%ebp),%eax
 8049e61:	77 06                	ja     8049e69 <vsnprintf+0x5fa>
 8049e63:	8b 45 e4             	mov    -0x1c(%ebp),%eax
 8049e66:	c6 00 25             	movb   $0x25,(%eax)
 8049e69:	83 45 e4 01          	addl   $0x1,-0x1c(%ebp)
 8049e6d:	e9 8a 01 00 00       	jmp    8049ffc <vsnprintf+0x78d>
 8049e72:	c7 45 e8 08 00 00 00 	movl   $0x8,-0x18(%ebp)
 8049e79:	eb 64                	jmp    8049edf <vsnprintf+0x670>
 8049e7b:	83 4d d8 40          	orl    $0x40,-0x28(%ebp)
 8049e7f:	c7 45 e8 10 00 00 00 	movl   $0x10,-0x18(%ebp)
 8049e86:	eb 57                	jmp    8049edf <vsnprintf+0x670>
 8049e88:	83 4d d8 02          	orl    $0x2,-0x28(%ebp)
 8049e8c:	eb 50                	jmp    8049ede <vsnprintf+0x66f>
 8049e8e:	b8 ff ff ff ff       	mov    $0xffffffff,%eax
 8049e93:	e9 a6 01 00 00       	jmp    804a03e <vsnprintf+0x7cf>
 8049e98:	8b 45 e4             	mov    -0x1c(%ebp),%eax
 8049e9b:	3b 45 e0             	cmp    -0x20(%ebp),%eax
 8049e9e:	77 06                	ja     8049ea6 <vsnprintf+0x637>
 8049ea0:	8b 45 e4             	mov    -0x1c(%ebp),%eax
 8049ea3:	c6 00 25             	movb   $0x25,(%eax)
 8049ea6:	83 45 e4 01          	addl   $0x1,-0x1c(%ebp)
 8049eaa:	8b 45 10             	mov    0x10(%ebp),%eax
 8049ead:	0f b6 00             	movzbl (%eax),%eax
 8049eb0:	84 c0                	test   %al,%al
 8049eb2:	74 1c                	je     8049ed0 <vsnprintf+0x661>
 8049eb4:	8b 45 e4             	mov    -0x1c(%ebp),%eax
 8049eb7:	3b 45 e0             	cmp    -0x20(%ebp),%eax
 8049eba:	77 0b                	ja     8049ec7 <vsnprintf+0x658>
 8049ebc:	8b 45 10             	mov    0x10(%ebp),%eax
 8049ebf:	0f b6 10             	movzbl (%eax),%edx
 8049ec2:	8b 45 e4             	mov    -0x1c(%ebp),%eax
 8049ec5:	88 10                	mov    %dl,(%eax)
 8049ec7:	83 45 e4 01          	addl   $0x1,-0x1c(%ebp)
 8049ecb:	e9 2c 01 00 00       	jmp    8049ffc <vsnprintf+0x78d>
 8049ed0:	8b 45 10             	mov    0x10(%ebp),%eax
 8049ed3:	83 e8 01             	sub    $0x1,%eax
 8049ed6:	89 45 10             	mov    %eax,0x10(%ebp)
 8049ed9:	e9 1e 01 00 00       	jmp    8049ffc <vsnprintf+0x78d>
 8049ede:	90                   	nop
 8049edf:	83 7d cc 4c          	cmpl   $0x4c,-0x34(%ebp)
 8049ee3:	75 19                	jne    8049efe <vsnprintf+0x68f>
 8049ee5:	8b 45 14             	mov    0x14(%ebp),%eax
 8049ee8:	8d 50 08             	lea    0x8(%eax),%edx
 8049eeb:	89 55 14             	mov    %edx,0x14(%ebp)
 8049eee:	8b 50 04             	mov    0x4(%eax),%edx
 8049ef1:	8b 00                	mov    (%eax),%eax
 8049ef3:	89 45 f0             	mov    %eax,-0x10(%ebp)
 8049ef6:	89 55 f4             	mov    %edx,-0xc(%ebp)
 8049ef9:	e9 bf 00 00 00       	jmp    8049fbd <vsnprintf+0x74e>
 8049efe:	83 7d cc 6c          	cmpl   $0x6c,-0x34(%ebp)
 8049f02:	75 36                	jne    8049f3a <vsnprintf+0x6cb>
 8049f04:	8b 45 14             	mov    0x14(%ebp),%eax
 8049f07:	8d 50 04             	lea    0x4(%eax),%edx
 8049f0a:	89 55 14             	mov    %edx,0x14(%ebp)
 8049f0d:	8b 00                	mov    (%eax),%eax
 8049f0f:	89 45 f0             	mov    %eax,-0x10(%ebp)
 8049f12:	c7 45 f4 00 00 00 00 	movl   $0x0,-0xc(%ebp)
 8049f19:	8b 45 d8             	mov    -0x28(%ebp),%eax
 8049f1c:	83 e0 02             	and    $0x2,%eax
 8049f1f:	85 c0                	test   %eax,%eax
 8049f21:	0f 84 96 00 00 00    	je     8049fbd <vsnprintf+0x74e>
 8049f27:	8b 45 f0             	mov    -0x10(%ebp),%eax
 8049f2a:	89 c2                	mov    %eax,%edx
 8049f2c:	c1 fa 1f             	sar    $0x1f,%edx
 8049f2f:	89 45 f0             	mov    %eax,-0x10(%ebp)
 8049f32:	89 55 f4             	mov    %edx,-0xc(%ebp)
 8049f35:	e9 83 00 00 00       	jmp    8049fbd <vsnprintf+0x74e>
 8049f3a:	83 7d cc 5a          	cmpl   $0x5a,-0x34(%ebp)
 8049f3e:	75 17                	jne    8049f57 <vsnprintf+0x6e8>
 8049f40:	8b 45 14             	mov    0x14(%ebp),%eax
 8049f43:	8d 50 04             	lea    0x4(%eax),%edx
 8049f46:	89 55 14             	mov    %edx,0x14(%ebp)
 8049f49:	8b 00                	mov    (%eax),%eax
 8049f4b:	89 45 f0             	mov    %eax,-0x10(%ebp)
 8049f4e:	c7 45 f4 00 00 00 00 	movl   $0x0,-0xc(%ebp)
 8049f55:	eb 66                	jmp    8049fbd <vsnprintf+0x74e>
 8049f57:	83 7d cc 68          	cmpl   $0x68,-0x34(%ebp)
 8049f5b:	75 33                	jne    8049f90 <vsnprintf+0x721>
 8049f5d:	8b 45 14             	mov    0x14(%ebp),%eax
 8049f60:	8d 50 04             	lea    0x4(%eax),%edx
 8049f63:	89 55 14             	mov    %edx,0x14(%ebp)
 8049f66:	8b 00                	mov    (%eax),%eax
 8049f68:	0f b7 c0             	movzwl %ax,%eax
 8049f6b:	89 45 f0             	mov    %eax,-0x10(%ebp)
 8049f6e:	c7 45 f4 00 00 00 00 	movl   $0x0,-0xc(%ebp)
 8049f75:	8b 45 d8             	mov    -0x28(%ebp),%eax
 8049f78:	83 e0 02             	and    $0x2,%eax
 8049f7b:	85 c0                	test   %eax,%eax
 8049f7d:	74 3e                	je     8049fbd <vsnprintf+0x74e>
 8049f7f:	8b 45 f0             	mov    -0x10(%ebp),%eax
 8049f82:	98                   	cwtl   
 8049f83:	89 c2                	mov    %eax,%edx
 8049f85:	c1 fa 1f             	sar    $0x1f,%edx
 8049f88:	89 45 f0             	mov    %eax,-0x10(%ebp)
 8049f8b:	89 55 f4             	mov    %edx,-0xc(%ebp)
 8049f8e:	eb 2d                	jmp    8049fbd <vsnprintf+0x74e>
 8049f90:	8b 45 14             	mov    0x14(%ebp),%eax
 8049f93:	8d 50 04             	lea    0x4(%eax),%edx
 8049f96:	89 55 14             	mov    %edx,0x14(%ebp)
 8049f99:	8b 00                	mov    (%eax),%eax
 8049f9b:	89 45 f0             	mov    %eax,-0x10(%ebp)
 8049f9e:	c7 45 f4 00 00 00 00 	movl   $0x0,-0xc(%ebp)
 8049fa5:	8b 45 d8             	mov    -0x28(%ebp),%eax
 8049fa8:	83 e0 02             	and    $0x2,%eax
 8049fab:	85 c0                	test   %eax,%eax
 8049fad:	74 0e                	je     8049fbd <vsnprintf+0x74e>
 8049faf:	8b 45 f0             	mov    -0x10(%ebp),%eax
 8049fb2:	89 c2                	mov    %eax,%edx
 8049fb4:	c1 fa 1f             	sar    $0x1f,%edx
 8049fb7:	89 45 f0             	mov    %eax,-0x10(%ebp)
 8049fba:	89 55 f4             	mov    %edx,-0xc(%ebp)
 8049fbd:	8b 45 f0             	mov    -0x10(%ebp),%eax
 8049fc0:	8b 55 f4             	mov    -0xc(%ebp),%edx
 8049fc3:	8b 4d d8             	mov    -0x28(%ebp),%ecx
 8049fc6:	89 4c 24 1c          	mov    %ecx,0x1c(%esp)
 8049fca:	8b 4d d0             	mov    -0x30(%ebp),%ecx
 8049fcd:	89 4c 24 18          	mov    %ecx,0x18(%esp)
 8049fd1:	8b 4d d4             	mov    -0x2c(%ebp),%ecx
 8049fd4:	89 4c 24 14          	mov    %ecx,0x14(%esp)
 8049fd8:	8b 4d e8             	mov    -0x18(%ebp),%ecx
 8049fdb:	89 4c 24 10          	mov    %ecx,0x10(%esp)
 8049fdf:	89 44 24 08          	mov    %eax,0x8(%esp)
 8049fe3:	89 54 24 0c          	mov    %edx,0xc(%esp)
 8049fe7:	8b 45 e0             	mov    -0x20(%ebp),%eax
 8049fea:	89 44 24 04          	mov    %eax,0x4(%esp)
 8049fee:	8b 45 e4             	mov    -0x1c(%ebp),%eax
 8049ff1:	89 04 24             	mov    %eax,(%esp)
 8049ff4:	e8 b3 f4 ff ff       	call   80494ac <number>
 8049ff9:	89 45 e4             	mov    %eax,-0x1c(%ebp)
 8049ffc:	8b 45 10             	mov    0x10(%ebp),%eax
 8049fff:	83 c0 01             	add    $0x1,%eax
 804a002:	89 45 10             	mov    %eax,0x10(%ebp)
 804a005:	eb 01                	jmp    804a008 <vsnprintf+0x799>
 804a007:	90                   	nop
 804a008:	8b 45 10             	mov    0x10(%ebp),%eax
 804a00b:	0f b6 00             	movzbl (%eax),%eax
 804a00e:	84 c0                	test   %al,%al
 804a010:	0f 85 aa f8 ff ff    	jne    80498c0 <vsnprintf+0x51>
 804a016:	8b 45 e4             	mov    -0x1c(%ebp),%eax
 804a019:	3b 45 e0             	cmp    -0x20(%ebp),%eax
 804a01c:	77 08                	ja     804a026 <vsnprintf+0x7b7>
 804a01e:	8b 45 e4             	mov    -0x1c(%ebp),%eax
 804a021:	c6 00 00             	movb   $0x0,(%eax)
 804a024:	eb 0c                	jmp    804a032 <vsnprintf+0x7c3>
 804a026:	83 7d 0c 00          	cmpl   $0x0,0xc(%ebp)
 804a02a:	74 06                	je     804a032 <vsnprintf+0x7c3>
 804a02c:	8b 45 e0             	mov    -0x20(%ebp),%eax
 804a02f:	c6 00 00             	movb   $0x0,(%eax)
 804a032:	8b 55 e4             	mov    -0x1c(%ebp),%edx
 804a035:	8b 45 08             	mov    0x8(%ebp),%eax
 804a038:	89 d1                	mov    %edx,%ecx
 804a03a:	29 c1                	sub    %eax,%ecx
 804a03c:	89 c8                	mov    %ecx,%eax
 804a03e:	83 c4 64             	add    $0x64,%esp
 804a041:	5b                   	pop    %ebx
 804a042:	5d                   	pop    %ebp
 804a043:	c3                   	ret    

0804a044 <wrterror>:
 804a044:	55                   	push   %ebp
 804a045:	89 e5                	mov    %esp,%ebp
 804a047:	53                   	push   %ebx
 804a048:	83 ec 24             	sub    $0x24,%esp
 804a04b:	e8 2d e4 ff ff       	call   804847d <__i686.get_pc_thunk.bx>
 804a050:	81 c3 84 61 00 00    	add    $0x6184,%ebx
 804a056:	8d 83 e1 d5 ff ff    	lea    -0x2a1f(%ebx),%eax
 804a05c:	89 45 f4             	mov    %eax,-0xc(%ebp)
 804a05f:	8b 83 30 01 00 00    	mov    0x130(%ebx),%eax
 804a065:	89 04 24             	mov    %eax,(%esp)
 804a068:	e8 1c 2c 00 00       	call   804cc89 <strlen>
 804a06d:	8b 93 30 01 00 00    	mov    0x130(%ebx),%edx
 804a073:	89 44 24 08          	mov    %eax,0x8(%esp)
 804a077:	89 54 24 04          	mov    %edx,0x4(%esp)
 804a07b:	c7 04 24 02 00 00 00 	movl   $0x2,(%esp)
 804a082:	e8 0f eb ff ff       	call   8048b96 <write>
 804a087:	8b 83 c8 04 00 00    	mov    0x4c8(%ebx),%eax
 804a08d:	89 04 24             	mov    %eax,(%esp)
 804a090:	e8 f4 2b 00 00       	call   804cc89 <strlen>
 804a095:	8b 93 c8 04 00 00    	mov    0x4c8(%ebx),%edx
 804a09b:	89 44 24 08          	mov    %eax,0x8(%esp)
 804a09f:	89 54 24 04          	mov    %edx,0x4(%esp)
 804a0a3:	c7 04 24 02 00 00 00 	movl   $0x2,(%esp)
 804a0aa:	e8 e7 ea ff ff       	call   8048b96 <write>
 804a0af:	8b 45 f4             	mov    -0xc(%ebp),%eax
 804a0b2:	89 04 24             	mov    %eax,(%esp)
 804a0b5:	e8 cf 2b 00 00       	call   804cc89 <strlen>
 804a0ba:	89 44 24 08          	mov    %eax,0x8(%esp)
 804a0be:	8b 45 f4             	mov    -0xc(%ebp),%eax
 804a0c1:	89 44 24 04          	mov    %eax,0x4(%esp)
 804a0c5:	c7 04 24 02 00 00 00 	movl   $0x2,(%esp)
 804a0cc:	e8 c5 ea ff ff       	call   8048b96 <write>
 804a0d1:	8b 45 08             	mov    0x8(%ebp),%eax
 804a0d4:	89 04 24             	mov    %eax,(%esp)
 804a0d7:	e8 ad 2b 00 00       	call   804cc89 <strlen>
 804a0dc:	89 44 24 08          	mov    %eax,0x8(%esp)
 804a0e0:	8b 45 08             	mov    0x8(%ebp),%eax
 804a0e3:	89 44 24 04          	mov    %eax,0x4(%esp)
 804a0e7:	c7 04 24 02 00 00 00 	movl   $0x2,(%esp)
 804a0ee:	e8 a3 ea ff ff       	call   8048b96 <write>
 804a0f3:	c7 83 a4 04 00 00 01 	movl   $0x1,0x4a4(%ebx)
 804a0fa:	00 00 00 
 804a0fd:	c7 04 24 01 00 00 00 	movl   $0x1,(%esp)
 804a104:	e8 e7 e5 ff ff       	call   80486f0 <exit>
 804a109:	83 c4 24             	add    $0x24,%esp
 804a10c:	5b                   	pop    %ebx
 804a10d:	5d                   	pop    %ebp
 804a10e:	c3                   	ret    

0804a10f <wrtwarning>:
 804a10f:	55                   	push   %ebp
 804a110:	89 e5                	mov    %esp,%ebp
 804a112:	53                   	push   %ebx
 804a113:	83 ec 24             	sub    $0x24,%esp
 804a116:	e8 62 e3 ff ff       	call   804847d <__i686.get_pc_thunk.bx>
 804a11b:	81 c3 b9 60 00 00    	add    $0x60b9,%ebx
 804a121:	8d 83 ea d5 ff ff    	lea    -0x2a16(%ebx),%eax
 804a127:	89 45 f4             	mov    %eax,-0xc(%ebp)
 804a12a:	8b 83 a0 04 00 00    	mov    0x4a0(%ebx),%eax
 804a130:	85 c0                	test   %eax,%eax
 804a132:	74 0b                	je     804a13f <wrtwarning+0x30>
 804a134:	8b 45 08             	mov    0x8(%ebp),%eax
 804a137:	89 04 24             	mov    %eax,(%esp)
 804a13a:	e8 05 ff ff ff       	call   804a044 <wrterror>
 804a13f:	8b 83 30 01 00 00    	mov    0x130(%ebx),%eax
 804a145:	89 04 24             	mov    %eax,(%esp)
 804a148:	e8 3c 2b 00 00       	call   804cc89 <strlen>
 804a14d:	8b 93 30 01 00 00    	mov    0x130(%ebx),%edx
 804a153:	89 44 24 08          	mov    %eax,0x8(%esp)
 804a157:	89 54 24 04          	mov    %edx,0x4(%esp)
 804a15b:	c7 04 24 02 00 00 00 	movl   $0x2,(%esp)
 804a162:	e8 2f ea ff ff       	call   8048b96 <write>
 804a167:	8b 83 c8 04 00 00    	mov    0x4c8(%ebx),%eax
 804a16d:	89 04 24             	mov    %eax,(%esp)
 804a170:	e8 14 2b 00 00       	call   804cc89 <strlen>
 804a175:	8b 93 c8 04 00 00    	mov    0x4c8(%ebx),%edx
 804a17b:	89 44 24 08          	mov    %eax,0x8(%esp)
 804a17f:	89 54 24 04          	mov    %edx,0x4(%esp)
 804a183:	c7 04 24 02 00 00 00 	movl   $0x2,(%esp)
 804a18a:	e8 07 ea ff ff       	call   8048b96 <write>
 804a18f:	8b 45 f4             	mov    -0xc(%ebp),%eax
 804a192:	89 04 24             	mov    %eax,(%esp)
 804a195:	e8 ef 2a 00 00       	call   804cc89 <strlen>
 804a19a:	89 44 24 08          	mov    %eax,0x8(%esp)
 804a19e:	8b 45 f4             	mov    -0xc(%ebp),%eax
 804a1a1:	89 44 24 04          	mov    %eax,0x4(%esp)
 804a1a5:	c7 04 24 02 00 00 00 	movl   $0x2,(%esp)
 804a1ac:	e8 e5 e9 ff ff       	call   8048b96 <write>
 804a1b1:	8b 45 08             	mov    0x8(%ebp),%eax
 804a1b4:	89 04 24             	mov    %eax,(%esp)
 804a1b7:	e8 cd 2a 00 00       	call   804cc89 <strlen>
 804a1bc:	89 44 24 08          	mov    %eax,0x8(%esp)
 804a1c0:	8b 45 08             	mov    0x8(%ebp),%eax
 804a1c3:	89 44 24 04          	mov    %eax,0x4(%esp)
 804a1c7:	c7 04 24 02 00 00 00 	movl   $0x2,(%esp)
 804a1ce:	e8 c3 e9 ff ff       	call   8048b96 <write>
 804a1d3:	83 c4 24             	add    $0x24,%esp
 804a1d6:	5b                   	pop    %ebx
 804a1d7:	5d                   	pop    %ebp
 804a1d8:	c3                   	ret    

0804a1d9 <map_pages>:
 804a1d9:	55                   	push   %ebp
 804a1da:	89 e5                	mov    %esp,%ebp
 804a1dc:	53                   	push   %ebx
 804a1dd:	83 ec 24             	sub    $0x24,%esp
 804a1e0:	e8 98 e2 ff ff       	call   804847d <__i686.get_pc_thunk.bx>
 804a1e5:	81 c3 ef 5f 00 00    	add    $0x5fef,%ebx
 804a1eb:	c7 04 24 00 00 00 00 	movl   $0x0,(%esp)
 804a1f2:	e8 d1 e2 ff ff       	call   80484c8 <sbrk>
 804a1f7:	05 ff 0f 00 00       	add    $0xfff,%eax
 804a1fc:	25 00 f0 ff ff       	and    $0xfffff000,%eax
 804a201:	89 45 f4             	mov    %eax,-0xc(%ebp)
 804a204:	8b 45 08             	mov    0x8(%ebp),%eax
 804a207:	c1 e0 0c             	shl    $0xc,%eax
 804a20a:	03 45 f4             	add    -0xc(%ebp),%eax
 804a20d:	89 45 f0             	mov    %eax,-0x10(%ebp)
 804a210:	8b 45 f0             	mov    -0x10(%ebp),%eax
 804a213:	89 04 24             	mov    %eax,(%esp)
 804a216:	e8 7d e3 ff ff       	call   8048598 <brk>
 804a21b:	85 c0                	test   %eax,%eax
 804a21d:	74 07                	je     804a226 <map_pages+0x4d>
 804a21f:	b8 00 00 00 00       	mov    $0x0,%eax
 804a224:	eb 55                	jmp    804a27b <map_pages+0xa2>
 804a226:	8b 45 f0             	mov    -0x10(%ebp),%eax
 804a229:	89 c2                	mov    %eax,%edx
 804a22b:	c1 ea 0c             	shr    $0xc,%edx
 804a22e:	8b 83 7c 04 00 00    	mov    0x47c(%ebx),%eax
 804a234:	89 d1                	mov    %edx,%ecx
 804a236:	29 c1                	sub    %eax,%ecx
 804a238:	89 c8                	mov    %ecx,%eax
 804a23a:	83 e8 01             	sub    $0x1,%eax
 804a23d:	89 83 80 04 00 00    	mov    %eax,0x480(%ebx)
 804a243:	8b 45 f0             	mov    -0x10(%ebp),%eax
 804a246:	89 83 c0 04 00 00    	mov    %eax,0x4c0(%ebx)
 804a24c:	8b 83 80 04 00 00    	mov    0x480(%ebx),%eax
 804a252:	8d 50 01             	lea    0x1(%eax),%edx
 804a255:	8b 83 88 04 00 00    	mov    0x488(%ebx),%eax
 804a25b:	39 c2                	cmp    %eax,%edx
 804a25d:	72 19                	jb     804a278 <map_pages+0x9f>
 804a25f:	8b 83 80 04 00 00    	mov    0x480(%ebx),%eax
 804a265:	89 04 24             	mov    %eax,(%esp)
 804a268:	e8 14 00 00 00       	call   804a281 <extend_pgdir>
 804a26d:	85 c0                	test   %eax,%eax
 804a26f:	75 07                	jne    804a278 <map_pages+0x9f>
 804a271:	b8 00 00 00 00       	mov    $0x0,%eax
 804a276:	eb 03                	jmp    804a27b <map_pages+0xa2>
 804a278:	8b 45 f4             	mov    -0xc(%ebp),%eax
 804a27b:	83 c4 24             	add    $0x24,%esp
 804a27e:	5b                   	pop    %ebx
 804a27f:	5d                   	pop    %ebp
 804a280:	c3                   	ret    

0804a281 <extend_pgdir>:
 804a281:	55                   	push   %ebp
 804a282:	89 e5                	mov    %esp,%ebp
 804a284:	53                   	push   %ebx
 804a285:	83 ec 34             	sub    $0x34,%esp
 804a288:	e8 f0 e1 ff ff       	call   804847d <__i686.get_pc_thunk.bx>
 804a28d:	81 c3 47 5f 00 00    	add    $0x5f47,%ebx
 804a293:	8b 45 08             	mov    0x8(%ebp),%eax
 804a296:	c1 e0 02             	shl    $0x2,%eax
 804a299:	89 45 f4             	mov    %eax,-0xc(%ebp)
 804a29c:	8b 45 f4             	mov    -0xc(%ebp),%eax
 804a29f:	c1 e8 0c             	shr    $0xc,%eax
 804a2a2:	89 45 f4             	mov    %eax,-0xc(%ebp)
 804a2a5:	83 45 f4 02          	addl   $0x2,-0xc(%ebp)
 804a2a9:	8b 83 88 04 00 00    	mov    0x488(%ebx),%eax
 804a2af:	c1 e0 02             	shl    $0x2,%eax
 804a2b2:	89 45 f0             	mov    %eax,-0x10(%ebp)
 804a2b5:	8b 83 70 04 00 00    	mov    0x470(%ebx),%eax
 804a2bb:	8b 55 f4             	mov    -0xc(%ebp),%edx
 804a2be:	c1 e2 0c             	shl    $0xc,%edx
 804a2c1:	c7 44 24 14 00 00 00 	movl   $0x0,0x14(%esp)
 804a2c8:	00 
 804a2c9:	89 44 24 10          	mov    %eax,0x10(%esp)
 804a2cd:	c7 44 24 0c 02 00 00 	movl   $0x2,0xc(%esp)
 804a2d4:	00 
 804a2d5:	c7 44 24 08 03 00 00 	movl   $0x3,0x8(%esp)
 804a2dc:	00 
 804a2dd:	89 54 24 04          	mov    %edx,0x4(%esp)
 804a2e1:	c7 04 24 00 00 00 00 	movl   $0x0,(%esp)
 804a2e8:	e8 4f e6 ff ff       	call   804893c <mmap>
 804a2ed:	89 45 ec             	mov    %eax,-0x14(%ebp)
 804a2f0:	83 7d ec ff          	cmpl   $0xffffffff,-0x14(%ebp)
 804a2f4:	75 07                	jne    804a2fd <extend_pgdir+0x7c>
 804a2f6:	b8 00 00 00 00       	mov    $0x0,%eax
 804a2fb:	eb 5e                	jmp    804a35b <extend_pgdir+0xda>
 804a2fd:	8b 83 88 04 00 00    	mov    0x488(%ebx),%eax
 804a303:	8d 14 85 00 00 00 00 	lea    0x0(,%eax,4),%edx
 804a30a:	8b 83 84 04 00 00    	mov    0x484(%ebx),%eax
 804a310:	89 54 24 08          	mov    %edx,0x8(%esp)
 804a314:	89 44 24 04          	mov    %eax,0x4(%esp)
 804a318:	8b 45 ec             	mov    -0x14(%ebp),%eax
 804a31b:	89 04 24             	mov    %eax,(%esp)
 804a31e:	e8 6b 27 00 00       	call   804ca8e <memcpy>
 804a323:	8b 45 f4             	mov    -0xc(%ebp),%eax
 804a326:	c1 e0 0c             	shl    $0xc,%eax
 804a329:	c1 e8 02             	shr    $0x2,%eax
 804a32c:	89 83 88 04 00 00    	mov    %eax,0x488(%ebx)
 804a332:	8b 83 84 04 00 00    	mov    0x484(%ebx),%eax
 804a338:	89 45 e8             	mov    %eax,-0x18(%ebp)
 804a33b:	8b 45 ec             	mov    -0x14(%ebp),%eax
 804a33e:	89 83 84 04 00 00    	mov    %eax,0x484(%ebx)
 804a344:	8b 45 f0             	mov    -0x10(%ebp),%eax
 804a347:	89 44 24 04          	mov    %eax,0x4(%esp)
 804a34b:	8b 45 e8             	mov    -0x18(%ebp),%eax
 804a34e:	89 04 24             	mov    %eax,(%esp)
 804a351:	e8 5b e6 ff ff       	call   80489b1 <munmap>
 804a356:	b8 01 00 00 00       	mov    $0x1,%eax
 804a35b:	83 c4 34             	add    $0x34,%esp
 804a35e:	5b                   	pop    %ebx
 804a35f:	5d                   	pop    %ebp
 804a360:	c3                   	ret    

0804a361 <malloc_init>:
 804a361:	55                   	push   %ebp
 804a362:	89 e5                	mov    %esp,%ebp
 804a364:	53                   	push   %ebx
 804a365:	83 ec 34             	sub    $0x34,%esp
 804a368:	e8 10 e1 ff ff       	call   804847d <__i686.get_pc_thunk.bx>
 804a36d:	81 c3 67 5e 00 00    	add    $0x5e67,%ebx
 804a373:	c7 44 24 08 00 00 00 	movl   $0x0,0x8(%esp)
 804a37a:	00 
 804a37b:	c7 44 24 04 02 00 00 	movl   $0x2,0x4(%esp)
 804a382:	00 
 804a383:	8d 83 f5 d5 ff ff    	lea    -0x2a0b(%ebx),%eax
 804a389:	89 04 24             	mov    %eax,(%esp)
 804a38c:	e8 cc e6 ff ff       	call   8048a5d <open>
 804a391:	89 83 70 04 00 00    	mov    %eax,0x470(%ebx)
 804a397:	8b 83 70 04 00 00    	mov    0x470(%ebx),%eax
 804a39d:	83 f8 ff             	cmp    $0xffffffff,%eax
 804a3a0:	75 0e                	jne    804a3b0 <malloc_init+0x4f>
 804a3a2:	8d 83 ff d5 ff ff    	lea    -0x2a01(%ebx),%eax
 804a3a8:	89 04 24             	mov    %eax,(%esp)
 804a3ab:	e8 94 fc ff ff       	call   804a044 <wrterror>
 804a3b0:	c7 45 f0 00 00 00 00 	movl   $0x0,-0x10(%ebp)
 804a3b7:	e9 7f 02 00 00       	jmp    804a63b <malloc_init+0x2da>
 804a3bc:	83 7d f0 00          	cmpl   $0x0,-0x10(%ebp)
 804a3c0:	75 0c                	jne    804a3ce <malloc_init+0x6d>
 804a3c2:	c7 45 f4 00 00 00 00 	movl   $0x0,-0xc(%ebp)
 804a3c9:	e9 55 02 00 00       	jmp    804a623 <malloc_init+0x2c2>
 804a3ce:	83 7d f0 01          	cmpl   $0x1,-0x10(%ebp)
 804a3d2:	75 0c                	jne    804a3e0 <malloc_init+0x7f>
 804a3d4:	c7 45 f4 00 00 00 00 	movl   $0x0,-0xc(%ebp)
 804a3db:	e9 43 02 00 00       	jmp    804a623 <malloc_init+0x2c2>
 804a3e0:	8b 83 f8 ff ff ff    	mov    -0x8(%ebx),%eax
 804a3e6:	8b 00                	mov    (%eax),%eax
 804a3e8:	89 45 f4             	mov    %eax,-0xc(%ebp)
 804a3eb:	e9 33 02 00 00       	jmp    804a623 <malloc_init+0x2c2>
 804a3f0:	8b 45 f4             	mov    -0xc(%ebp),%eax
 804a3f3:	0f b6 00             	movzbl (%eax),%eax
 804a3f6:	0f be c0             	movsbl %al,%eax
 804a3f9:	83 e8 3c             	sub    $0x3c,%eax
 804a3fc:	83 f8 3e             	cmp    $0x3e,%eax
 804a3ff:	0f 87 ef 01 00 00    	ja     804a5f4 <malloc_init+0x293>
 804a405:	c1 e0 02             	shl    $0x2,%eax
 804a408:	8b 84 18 44 a2 ff ff 	mov    -0x5dbc(%eax,%ebx,1),%eax
 804a40f:	89 da                	mov    %ebx,%edx
 804a411:	29 c2                	sub    %eax,%edx
 804a413:	89 d0                	mov    %edx,%eax
 804a415:	ff e0                	jmp    *%eax
 804a417:	90                   	nop
 804a418:	ad                   	lods   %ds:(%esi),%eax
 804a419:	5c                   	pop    %esp
 804a41a:	00 00                	add    %al,(%eax)
 804a41c:	e0 5b                	loopne 804a479 <malloc_init+0x118>
 804a41e:	00 00                	add    %al,(%eax)
 804a420:	c0 5c 00 00 e0       	rcrb   $0xe0,0x0(%eax,%eax,1)
 804a425:	5b                   	pop    %ebx
 804a426:	00 00                	add    %al,(%eax)
 804a428:	e0 5b                	loopne 804a485 <malloc_init+0x124>
 804a42a:	00 00                	add    %al,(%eax)
 804a42c:	8b 5c 00 00          	mov    0x0(%eax,%eax,1),%ebx
 804a430:	e0 5b                	loopne 804a48d <malloc_init+0x12c>
 804a432:	00 00                	add    %al,(%eax)
 804a434:	e0 5b                	loopne 804a491 <malloc_init+0x130>
 804a436:	00 00                	add    %al,(%eax)
 804a438:	e0 5b                	loopne 804a495 <malloc_init+0x134>
 804a43a:	00 00                	add    %al,(%eax)
 804a43c:	e0 5b                	loopne 804a499 <malloc_init+0x138>
 804a43e:	00 00                	add    %al,(%eax)
 804a440:	e0 5b                	loopne 804a49d <malloc_init+0x13c>
 804a442:	00 00                	add    %al,(%eax)
 804a444:	e0 5b                	loopne 804a4a1 <malloc_init+0x140>
 804a446:	00 00                	add    %al,(%eax)
 804a448:	6d                   	insl   (%dx),%es:(%edi)
 804a449:	5c                   	pop    %esp
 804a44a:	00 00                	add    %al,(%eax)
 804a44c:	e0 5b                	loopne 804a4a9 <malloc_init+0x148>
 804a44e:	00 00                	add    %al,(%eax)
 804a450:	34 5c                	xor    $0x5c,%al
 804a452:	00 00                	add    %al,(%eax)
 804a454:	e0 5b                	loopne 804a4b1 <malloc_init+0x150>
 804a456:	00 00                	add    %al,(%eax)
 804a458:	e0 5b                	loopne 804a4b5 <malloc_init+0x154>
 804a45a:	00 00                	add    %al,(%eax)
 804a45c:	e0 5b                	loopne 804a4b9 <malloc_init+0x158>
 804a45e:	00 00                	add    %al,(%eax)
 804a460:	e0 5b                	loopne 804a4bd <malloc_init+0x15c>
 804a462:	00 00                	add    %al,(%eax)
 804a464:	e0 5b                	loopne 804a4c1 <malloc_init+0x160>
 804a466:	00 00                	add    %al,(%eax)
 804a468:	e0 5b                	loopne 804a4c5 <malloc_init+0x164>
 804a46a:	00 00                	add    %al,(%eax)
 804a46c:	e0 5b                	loopne 804a4c9 <malloc_init+0x168>
 804a46e:	00 00                	add    %al,(%eax)
 804a470:	4f                   	dec    %edi
 804a471:	5c                   	pop    %esp
 804a472:	00 00                	add    %al,(%eax)
 804a474:	e0 5b                	loopne 804a4d1 <malloc_init+0x170>
 804a476:	00 00                	add    %al,(%eax)
 804a478:	e0 5b                	loopne 804a4d5 <malloc_init+0x174>
 804a47a:	00 00                	add    %al,(%eax)
 804a47c:	e0 5b                	loopne 804a4d9 <malloc_init+0x178>
 804a47e:	00 00                	add    %al,(%eax)
 804a480:	1c 5c                	sbb    $0x5c,%al
 804a482:	00 00                	add    %al,(%eax)
 804a484:	e0 5b                	loopne 804a4e1 <malloc_init+0x180>
 804a486:	00 00                	add    %al,(%eax)
 804a488:	04 5c                	add    $0x5c,%al
 804a48a:	00 00                	add    %al,(%eax)
 804a48c:	e0 5b                	loopne 804a4e9 <malloc_init+0x188>
 804a48e:	00 00                	add    %al,(%eax)
 804a490:	ec                   	in     (%dx),%al
 804a491:	5b                   	pop    %ebx
 804a492:	00 00                	add    %al,(%eax)
 804a494:	e0 5b                	loopne 804a4f1 <malloc_init+0x190>
 804a496:	00 00                	add    %al,(%eax)
 804a498:	e0 5b                	loopne 804a4f5 <malloc_init+0x194>
 804a49a:	00 00                	add    %al,(%eax)
 804a49c:	e0 5b                	loopne 804a4f9 <malloc_init+0x198>
 804a49e:	00 00                	add    %al,(%eax)
 804a4a0:	e0 5b                	loopne 804a4fd <malloc_init+0x19c>
 804a4a2:	00 00                	add    %al,(%eax)
 804a4a4:	e0 5b                	loopne 804a501 <malloc_init+0x1a0>
 804a4a6:	00 00                	add    %al,(%eax)
 804a4a8:	e0 5b                	loopne 804a505 <malloc_init+0x1a4>
 804a4aa:	00 00                	add    %al,(%eax)
 804a4ac:	9a 5c 00 00 e0 5b 00 	lcall  $0x5b,$0xe000005c
 804a4b3:	00 e0                	add    %ah,%al
 804a4b5:	5b                   	pop    %ebx
 804a4b6:	00 00                	add    %al,(%eax)
 804a4b8:	e0 5b                	loopne 804a515 <malloc_init+0x1b4>
 804a4ba:	00 00                	add    %al,(%eax)
 804a4bc:	e0 5b                	loopne 804a519 <malloc_init+0x1b8>
 804a4be:	00 00                	add    %al,(%eax)
 804a4c0:	e0 5b                	loopne 804a51d <malloc_init+0x1bc>
 804a4c2:	00 00                	add    %al,(%eax)
 804a4c4:	e0 5b                	loopne 804a521 <malloc_init+0x1c0>
 804a4c6:	00 00                	add    %al,(%eax)
 804a4c8:	7c 5c                	jl     804a526 <malloc_init+0x1c5>
 804a4ca:	00 00                	add    %al,(%eax)
 804a4cc:	e0 5b                	loopne 804a529 <malloc_init+0x1c8>
 804a4ce:	00 00                	add    %al,(%eax)
 804a4d0:	40                   	inc    %eax
 804a4d1:	5c                   	pop    %esp
 804a4d2:	00 00                	add    %al,(%eax)
 804a4d4:	e0 5b                	loopne 804a531 <malloc_init+0x1d0>
 804a4d6:	00 00                	add    %al,(%eax)
 804a4d8:	e0 5b                	loopne 804a535 <malloc_init+0x1d4>
 804a4da:	00 00                	add    %al,(%eax)
 804a4dc:	e0 5b                	loopne 804a539 <malloc_init+0x1d8>
 804a4de:	00 00                	add    %al,(%eax)
 804a4e0:	e0 5b                	loopne 804a53d <malloc_init+0x1dc>
 804a4e2:	00 00                	add    %al,(%eax)
 804a4e4:	e0 5b                	loopne 804a541 <malloc_init+0x1e0>
 804a4e6:	00 00                	add    %al,(%eax)
 804a4e8:	e0 5b                	loopne 804a545 <malloc_init+0x1e4>
 804a4ea:	00 00                	add    %al,(%eax)
 804a4ec:	e0 5b                	loopne 804a549 <malloc_init+0x1e8>
 804a4ee:	00 00                	add    %al,(%eax)
 804a4f0:	5e                   	pop    %esi
 804a4f1:	5c                   	pop    %esp
 804a4f2:	00 00                	add    %al,(%eax)
 804a4f4:	e0 5b                	loopne 804a551 <malloc_init+0x1f0>
 804a4f6:	00 00                	add    %al,(%eax)
 804a4f8:	e0 5b                	loopne 804a555 <malloc_init+0x1f4>
 804a4fa:	00 00                	add    %al,(%eax)
 804a4fc:	e0 5b                	loopne 804a559 <malloc_init+0x1f8>
 804a4fe:	00 00                	add    %al,(%eax)
 804a500:	28 5c 00 00          	sub    %bl,0x0(%eax,%eax,1)
 804a504:	e0 5b                	loopne 804a561 <malloc_init+0x200>
 804a506:	00 00                	add    %al,(%eax)
 804a508:	10 5c 00 00          	adc    %bl,0x0(%eax,%eax,1)
 804a50c:	e0 5b                	loopne 804a569 <malloc_init+0x208>
 804a50e:	00 00                	add    %al,(%eax)
 804a510:	f8                   	clc    
 804a511:	5b                   	pop    %ebx
 804a512:	00 00                	add    %al,(%eax)
 804a514:	8b 83 2c 01 00 00    	mov    0x12c(%ebx),%eax
 804a51a:	01 c0                	add    %eax,%eax
 804a51c:	89 83 2c 01 00 00    	mov    %eax,0x12c(%ebx)
 804a522:	e9 f8 00 00 00       	jmp    804a61f <malloc_init+0x2be>
 804a527:	8b 83 2c 01 00 00    	mov    0x12c(%ebx),%eax
 804a52d:	d1 e8                	shr    %eax
 804a52f:	89 83 2c 01 00 00    	mov    %eax,0x12c(%ebx)
 804a535:	e9 e5 00 00 00       	jmp    804a61f <malloc_init+0x2be>
 804a53a:	c7 83 a0 04 00 00 00 	movl   $0x0,0x4a0(%ebx)
 804a541:	00 00 00 
 804a544:	e9 d6 00 00 00       	jmp    804a61f <malloc_init+0x2be>
 804a549:	c7 83 a0 04 00 00 01 	movl   $0x1,0x4a0(%ebx)
 804a550:	00 00 00 
 804a553:	e9 c7 00 00 00       	jmp    804a61f <malloc_init+0x2be>
 804a558:	c7 83 ac 04 00 00 00 	movl   $0x0,0x4ac(%ebx)
 804a55f:	00 00 00 
 804a562:	e9 b8 00 00 00       	jmp    804a61f <malloc_init+0x2be>
 804a567:	c7 83 ac 04 00 00 01 	movl   $0x1,0x4ac(%ebx)
 804a56e:	00 00 00 
 804a571:	e9 a9 00 00 00       	jmp    804a61f <malloc_init+0x2be>
 804a576:	c7 83 a8 04 00 00 00 	movl   $0x0,0x4a8(%ebx)
 804a57d:	00 00 00 
 804a580:	e9 9a 00 00 00       	jmp    804a61f <malloc_init+0x2be>
 804a585:	c7 83 a8 04 00 00 01 	movl   $0x1,0x4a8(%ebx)
 804a58c:	00 00 00 
 804a58f:	e9 8b 00 00 00       	jmp    804a61f <malloc_init+0x2be>
 804a594:	c7 83 bc 04 00 00 00 	movl   $0x0,0x4bc(%ebx)
 804a59b:	00 00 00 
 804a59e:	eb 7f                	jmp    804a61f <malloc_init+0x2be>
 804a5a0:	c7 83 bc 04 00 00 01 	movl   $0x1,0x4bc(%ebx)
 804a5a7:	00 00 00 
 804a5aa:	eb 73                	jmp    804a61f <malloc_init+0x2be>
 804a5ac:	c7 83 b4 04 00 00 00 	movl   $0x0,0x4b4(%ebx)
 804a5b3:	00 00 00 
 804a5b6:	eb 67                	jmp    804a61f <malloc_init+0x2be>
 804a5b8:	c7 83 b4 04 00 00 01 	movl   $0x1,0x4b4(%ebx)
 804a5bf:	00 00 00 
 804a5c2:	eb 5b                	jmp    804a61f <malloc_init+0x2be>
 804a5c4:	c7 83 b0 04 00 00 00 	movl   $0x0,0x4b0(%ebx)
 804a5cb:	00 00 00 
 804a5ce:	eb 4f                	jmp    804a61f <malloc_init+0x2be>
 804a5d0:	c7 83 b0 04 00 00 01 	movl   $0x1,0x4b0(%ebx)
 804a5d7:	00 00 00 
 804a5da:	eb 43                	jmp    804a61f <malloc_init+0x2be>
 804a5dc:	c7 83 b8 04 00 00 00 	movl   $0x0,0x4b8(%ebx)
 804a5e3:	00 00 00 
 804a5e6:	eb 37                	jmp    804a61f <malloc_init+0x2be>
 804a5e8:	c7 83 b8 04 00 00 01 	movl   $0x1,0x4b8(%ebx)
 804a5ef:	00 00 00 
 804a5f2:	eb 2b                	jmp    804a61f <malloc_init+0x2be>
 804a5f4:	8b 83 a0 04 00 00    	mov    0x4a0(%ebx),%eax
 804a5fa:	89 45 ec             	mov    %eax,-0x14(%ebp)
 804a5fd:	c7 83 a0 04 00 00 00 	movl   $0x0,0x4a0(%ebx)
 804a604:	00 00 00 
 804a607:	8d 83 14 d6 ff ff    	lea    -0x29ec(%ebx),%eax
 804a60d:	89 04 24             	mov    %eax,(%esp)
 804a610:	e8 fa fa ff ff       	call   804a10f <wrtwarning>
 804a615:	8b 45 ec             	mov    -0x14(%ebp),%eax
 804a618:	89 83 a0 04 00 00    	mov    %eax,0x4a0(%ebx)
 804a61e:	90                   	nop
 804a61f:	83 45 f4 01          	addl   $0x1,-0xc(%ebp)
 804a623:	83 7d f4 00          	cmpl   $0x0,-0xc(%ebp)
 804a627:	74 0e                	je     804a637 <malloc_init+0x2d6>
 804a629:	8b 45 f4             	mov    -0xc(%ebp),%eax
 804a62c:	0f b6 00             	movzbl (%eax),%eax
 804a62f:	84 c0                	test   %al,%al
 804a631:	0f 85 b9 fd ff ff    	jne    804a3f0 <malloc_init+0x8f>
 804a637:	83 45 f0 01          	addl   $0x1,-0x10(%ebp)
 804a63b:	83 7d f0 02          	cmpl   $0x2,-0x10(%ebp)
 804a63f:	0f 8e 77 fd ff ff    	jle    804a3bc <malloc_init+0x5b>
 804a645:	8b 83 b8 04 00 00    	mov    0x4b8(%ebx),%eax
 804a64b:	85 c0                	test   %eax,%eax
 804a64d:	74 0a                	je     804a659 <malloc_init+0x2f8>
 804a64f:	c7 83 bc 04 00 00 01 	movl   $0x1,0x4bc(%ebx)
 804a656:	00 00 00 
 804a659:	8b 83 bc 04 00 00    	mov    0x4bc(%ebx),%eax
 804a65f:	85 c0                	test   %eax,%eax
 804a661:	74 0a                	je     804a66d <malloc_init+0x30c>
 804a663:	c7 83 a8 04 00 00 01 	movl   $0x1,0x4a8(%ebx)
 804a66a:	00 00 00 
 804a66d:	8b 83 70 04 00 00    	mov    0x470(%ebx),%eax
 804a673:	c7 44 24 14 00 00 00 	movl   $0x0,0x14(%esp)
 804a67a:	00 
 804a67b:	89 44 24 10          	mov    %eax,0x10(%esp)
 804a67f:	c7 44 24 0c 02 00 00 	movl   $0x2,0xc(%esp)
 804a686:	00 
 804a687:	c7 44 24 08 03 00 00 	movl   $0x3,0x8(%esp)
 804a68e:	00 
 804a68f:	c7 44 24 04 00 10 00 	movl   $0x1000,0x4(%esp)
 804a696:	00 
 804a697:	c7 04 24 00 00 00 00 	movl   $0x0,(%esp)
 804a69e:	e8 99 e2 ff ff       	call   804893c <mmap>
 804a6a3:	89 83 84 04 00 00    	mov    %eax,0x484(%ebx)
 804a6a9:	8b 83 84 04 00 00    	mov    0x484(%ebx),%eax
 804a6af:	83 f8 ff             	cmp    $0xffffffff,%eax
 804a6b2:	75 0e                	jne    804a6c2 <malloc_init+0x361>
 804a6b4:	8d 83 34 d6 ff ff    	lea    -0x29cc(%ebx),%eax
 804a6ba:	89 04 24             	mov    %eax,(%esp)
 804a6bd:	e8 82 f9 ff ff       	call   804a044 <wrterror>
 804a6c2:	c7 04 24 00 00 00 00 	movl   $0x0,(%esp)
 804a6c9:	e8 fa dd ff ff       	call   80484c8 <sbrk>
 804a6ce:	05 ff 0f 00 00       	add    $0xfff,%eax
 804a6d3:	c1 e8 0c             	shr    $0xc,%eax
 804a6d6:	89 83 7c 04 00 00    	mov    %eax,0x47c(%ebx)
 804a6dc:	8b 83 7c 04 00 00    	mov    0x47c(%ebx),%eax
 804a6e2:	83 e8 0c             	sub    $0xc,%eax
 804a6e5:	89 83 7c 04 00 00    	mov    %eax,0x47c(%ebx)
 804a6eb:	c7 83 88 04 00 00 00 	movl   $0x400,0x488(%ebx)
 804a6f2:	04 00 00 
 804a6f5:	8b 83 2c 01 00 00    	mov    0x12c(%ebx),%eax
 804a6fb:	85 c0                	test   %eax,%eax
 804a6fd:	75 0f                	jne    804a70e <malloc_init+0x3ad>
 804a6ff:	8b 83 2c 01 00 00    	mov    0x12c(%ebx),%eax
 804a705:	83 c0 01             	add    $0x1,%eax
 804a708:	89 83 2c 01 00 00    	mov    %eax,0x12c(%ebx)
 804a70e:	8b 83 2c 01 00 00    	mov    0x12c(%ebx),%eax
 804a714:	c1 e0 0c             	shl    $0xc,%eax
 804a717:	89 83 2c 01 00 00    	mov    %eax,0x12c(%ebx)
 804a71d:	c7 04 24 14 00 00 00 	movl   $0x14,(%esp)
 804a724:	e8 b9 07 00 00       	call   804aee2 <imalloc>
 804a729:	89 83 c4 04 00 00    	mov    %eax,0x4c4(%ebx)
 804a72f:	8b 83 74 04 00 00    	mov    0x474(%ebx),%eax
 804a735:	83 c0 01             	add    $0x1,%eax
 804a738:	89 83 74 04 00 00    	mov    %eax,0x474(%ebx)
 804a73e:	83 c4 34             	add    $0x34,%esp
 804a741:	5b                   	pop    %ebx
 804a742:	5d                   	pop    %ebp
 804a743:	c3                   	ret    

0804a744 <malloc_pages>:
 804a744:	55                   	push   %ebp
 804a745:	89 e5                	mov    %esp,%ebp
 804a747:	53                   	push   %ebx
 804a748:	83 ec 34             	sub    $0x34,%esp
 804a74b:	e8 2d dd ff ff       	call   804847d <__i686.get_pc_thunk.bx>
 804a750:	81 c3 84 5a 00 00    	add    $0x5a84,%ebx
 804a756:	c7 45 f0 00 00 00 00 	movl   $0x0,-0x10(%ebp)
 804a75d:	8b 45 08             	mov    0x8(%ebp),%eax
 804a760:	05 ff 0f 00 00       	add    $0xfff,%eax
 804a765:	25 00 f0 ff ff       	and    $0xfffff000,%eax
 804a76a:	89 45 08             	mov    %eax,0x8(%ebp)
 804a76d:	c7 45 f4 00 00 00 00 	movl   $0x0,-0xc(%ebp)
 804a774:	8b 83 8c 04 00 00    	mov    0x48c(%ebx),%eax
 804a77a:	89 45 e8             	mov    %eax,-0x18(%ebp)
 804a77d:	e9 82 00 00 00       	jmp    804a804 <malloc_pages+0xc0>
 804a782:	8b 45 e8             	mov    -0x18(%ebp),%eax
 804a785:	8b 40 10             	mov    0x10(%eax),%eax
 804a788:	3b 45 08             	cmp    0x8(%ebp),%eax
 804a78b:	73 0a                	jae    804a797 <malloc_pages+0x53>
 804a78d:	8b 45 e8             	mov    -0x18(%ebp),%eax
 804a790:	8b 00                	mov    (%eax),%eax
 804a792:	89 45 e8             	mov    %eax,-0x18(%ebp)
 804a795:	eb 6d                	jmp    804a804 <malloc_pages+0xc0>
 804a797:	8b 45 e8             	mov    -0x18(%ebp),%eax
 804a79a:	8b 40 10             	mov    0x10(%eax),%eax
 804a79d:	3b 45 08             	cmp    0x8(%ebp),%eax
 804a7a0:	75 35                	jne    804a7d7 <malloc_pages+0x93>
 804a7a2:	8b 45 e8             	mov    -0x18(%ebp),%eax
 804a7a5:	8b 40 08             	mov    0x8(%eax),%eax
 804a7a8:	89 45 f4             	mov    %eax,-0xc(%ebp)
 804a7ab:	8b 45 e8             	mov    -0x18(%ebp),%eax
 804a7ae:	8b 00                	mov    (%eax),%eax
 804a7b0:	85 c0                	test   %eax,%eax
 804a7b2:	74 0e                	je     804a7c2 <malloc_pages+0x7e>
 804a7b4:	8b 45 e8             	mov    -0x18(%ebp),%eax
 804a7b7:	8b 00                	mov    (%eax),%eax
 804a7b9:	8b 55 e8             	mov    -0x18(%ebp),%edx
 804a7bc:	8b 52 04             	mov    0x4(%edx),%edx
 804a7bf:	89 50 04             	mov    %edx,0x4(%eax)
 804a7c2:	8b 45 e8             	mov    -0x18(%ebp),%eax
 804a7c5:	8b 40 04             	mov    0x4(%eax),%eax
 804a7c8:	8b 55 e8             	mov    -0x18(%ebp),%edx
 804a7cb:	8b 12                	mov    (%edx),%edx
 804a7cd:	89 10                	mov    %edx,(%eax)
 804a7cf:	8b 45 e8             	mov    -0x18(%ebp),%eax
 804a7d2:	89 45 f0             	mov    %eax,-0x10(%ebp)
 804a7d5:	eb 37                	jmp    804a80e <malloc_pages+0xca>
 804a7d7:	8b 45 e8             	mov    -0x18(%ebp),%eax
 804a7da:	8b 40 08             	mov    0x8(%eax),%eax
 804a7dd:	89 45 f4             	mov    %eax,-0xc(%ebp)
 804a7e0:	8b 45 e8             	mov    -0x18(%ebp),%eax
 804a7e3:	8b 40 08             	mov    0x8(%eax),%eax
 804a7e6:	89 c2                	mov    %eax,%edx
 804a7e8:	03 55 08             	add    0x8(%ebp),%edx
 804a7eb:	8b 45 e8             	mov    -0x18(%ebp),%eax
 804a7ee:	89 50 08             	mov    %edx,0x8(%eax)
 804a7f1:	8b 45 e8             	mov    -0x18(%ebp),%eax
 804a7f4:	8b 40 10             	mov    0x10(%eax),%eax
 804a7f7:	89 c2                	mov    %eax,%edx
 804a7f9:	2b 55 08             	sub    0x8(%ebp),%edx
 804a7fc:	8b 45 e8             	mov    -0x18(%ebp),%eax
 804a7ff:	89 50 10             	mov    %edx,0x10(%eax)
 804a802:	eb 0a                	jmp    804a80e <malloc_pages+0xca>
 804a804:	83 7d e8 00          	cmpl   $0x0,-0x18(%ebp)
 804a808:	0f 85 74 ff ff ff    	jne    804a782 <malloc_pages+0x3e>
 804a80e:	c1 6d 08 0c          	shrl   $0xc,0x8(%ebp)
 804a812:	83 7d f4 00          	cmpl   $0x0,-0xc(%ebp)
 804a816:	75 0e                	jne    804a826 <malloc_pages+0xe2>
 804a818:	8b 45 08             	mov    0x8(%ebp),%eax
 804a81b:	89 04 24             	mov    %eax,(%esp)
 804a81e:	e8 b6 f9 ff ff       	call   804a1d9 <map_pages>
 804a823:	89 45 f4             	mov    %eax,-0xc(%ebp)
 804a826:	83 7d f4 00          	cmpl   $0x0,-0xc(%ebp)
 804a82a:	0f 84 80 00 00 00    	je     804a8b0 <malloc_pages+0x16c>
 804a830:	8b 45 f4             	mov    -0xc(%ebp),%eax
 804a833:	89 c2                	mov    %eax,%edx
 804a835:	c1 ea 0c             	shr    $0xc,%edx
 804a838:	8b 83 7c 04 00 00    	mov    0x47c(%ebx),%eax
 804a83e:	89 d1                	mov    %edx,%ecx
 804a840:	29 c1                	sub    %eax,%ecx
 804a842:	89 c8                	mov    %ecx,%eax
 804a844:	89 45 e4             	mov    %eax,-0x1c(%ebp)
 804a847:	8b 83 84 04 00 00    	mov    0x484(%ebx),%eax
 804a84d:	8b 55 e4             	mov    -0x1c(%ebp),%edx
 804a850:	c1 e2 02             	shl    $0x2,%edx
 804a853:	01 d0                	add    %edx,%eax
 804a855:	c7 00 02 00 00 00    	movl   $0x2,(%eax)
 804a85b:	c7 45 ec 01 00 00 00 	movl   $0x1,-0x14(%ebp)
 804a862:	eb 1d                	jmp    804a881 <malloc_pages+0x13d>
 804a864:	8b 83 84 04 00 00    	mov    0x484(%ebx),%eax
 804a86a:	8b 55 ec             	mov    -0x14(%ebp),%edx
 804a86d:	8b 4d e4             	mov    -0x1c(%ebp),%ecx
 804a870:	01 ca                	add    %ecx,%edx
 804a872:	c1 e2 02             	shl    $0x2,%edx
 804a875:	01 d0                	add    %edx,%eax
 804a877:	c7 00 03 00 00 00    	movl   $0x3,(%eax)
 804a87d:	83 45 ec 01          	addl   $0x1,-0x14(%ebp)
 804a881:	8b 45 ec             	mov    -0x14(%ebp),%eax
 804a884:	3b 45 08             	cmp    0x8(%ebp),%eax
 804a887:	72 db                	jb     804a864 <malloc_pages+0x120>
 804a889:	8b 83 bc 04 00 00    	mov    0x4bc(%ebx),%eax
 804a88f:	85 c0                	test   %eax,%eax
 804a891:	74 1d                	je     804a8b0 <malloc_pages+0x16c>
 804a893:	8b 45 08             	mov    0x8(%ebp),%eax
 804a896:	c1 e0 0c             	shl    $0xc,%eax
 804a899:	89 44 24 08          	mov    %eax,0x8(%esp)
 804a89d:	c7 44 24 04 d0 00 00 	movl   $0xd0,0x4(%esp)
 804a8a4:	00 
 804a8a5:	8b 45 f4             	mov    -0xc(%ebp),%eax
 804a8a8:	89 04 24             	mov    %eax,(%esp)
 804a8ab:	e8 2c 23 00 00       	call   804cbdc <memset>
 804a8b0:	83 7d f0 00          	cmpl   $0x0,-0x10(%ebp)
 804a8b4:	74 20                	je     804a8d6 <malloc_pages+0x192>
 804a8b6:	8b 83 c4 04 00 00    	mov    0x4c4(%ebx),%eax
 804a8bc:	85 c0                	test   %eax,%eax
 804a8be:	75 0b                	jne    804a8cb <malloc_pages+0x187>
 804a8c0:	8b 45 f0             	mov    -0x10(%ebp),%eax
 804a8c3:	89 83 c4 04 00 00    	mov    %eax,0x4c4(%ebx)
 804a8c9:	eb 0b                	jmp    804a8d6 <malloc_pages+0x192>
 804a8cb:	8b 45 f0             	mov    -0x10(%ebp),%eax
 804a8ce:	89 04 24             	mov    %eax,(%esp)
 804a8d1:	e8 60 0f 00 00       	call   804b836 <ifree>
 804a8d6:	8b 45 f4             	mov    -0xc(%ebp),%eax
 804a8d9:	83 c4 34             	add    $0x34,%esp
 804a8dc:	5b                   	pop    %ebx
 804a8dd:	5d                   	pop    %ebp
 804a8de:	c3                   	ret    

0804a8df <malloc_make_chunks>:
 804a8df:	55                   	push   %ebp
 804a8e0:	89 e5                	mov    %esp,%ebp
 804a8e2:	57                   	push   %edi
 804a8e3:	56                   	push   %esi
 804a8e4:	53                   	push   %ebx
 804a8e5:	83 ec 4c             	sub    $0x4c,%esp
 804a8e8:	e8 90 db ff ff       	call   804847d <__i686.get_pc_thunk.bx>
 804a8ed:	81 c3 e7 58 00 00    	add    $0x58e7,%ebx
 804a8f3:	c7 04 24 00 10 00 00 	movl   $0x1000,(%esp)
 804a8fa:	e8 45 fe ff ff       	call   804a744 <malloc_pages>
 804a8ff:	89 45 d8             	mov    %eax,-0x28(%ebp)
 804a902:	83 7d d8 00          	cmpl   $0x0,-0x28(%ebp)
 804a906:	75 0a                	jne    804a912 <malloc_make_chunks+0x33>
 804a908:	b8 00 00 00 00       	mov    $0x0,%eax
 804a90d:	e9 16 02 00 00       	jmp    804ab28 <malloc_make_chunks+0x249>
 804a912:	c7 45 dc 10 00 00 00 	movl   $0x10,-0x24(%ebp)
 804a919:	8b 45 08             	mov    0x8(%ebp),%eax
 804a91c:	ba 00 10 00 00       	mov    $0x1000,%edx
 804a921:	89 d6                	mov    %edx,%esi
 804a923:	89 c1                	mov    %eax,%ecx
 804a925:	d3 ee                	shr    %cl,%esi
 804a927:	89 f0                	mov    %esi,%eax
 804a929:	83 c0 1f             	add    $0x1f,%eax
 804a92c:	c1 e8 05             	shr    $0x5,%eax
 804a92f:	c1 e0 02             	shl    $0x2,%eax
 804a932:	01 45 dc             	add    %eax,-0x24(%ebp)
 804a935:	8b 45 08             	mov    0x8(%ebp),%eax
 804a938:	ba 01 00 00 00       	mov    $0x1,%edx
 804a93d:	89 c1                	mov    %eax,%ecx
 804a93f:	d3 e2                	shl    %cl,%edx
 804a941:	8b 45 dc             	mov    -0x24(%ebp),%eax
 804a944:	01 c0                	add    %eax,%eax
 804a946:	39 c2                	cmp    %eax,%edx
 804a948:	77 08                	ja     804a952 <malloc_make_chunks+0x73>
 804a94a:	8b 45 d8             	mov    -0x28(%ebp),%eax
 804a94d:	89 45 e4             	mov    %eax,-0x1c(%ebp)
 804a950:	eb 29                	jmp    804a97b <malloc_make_chunks+0x9c>
 804a952:	8b 45 dc             	mov    -0x24(%ebp),%eax
 804a955:	89 04 24             	mov    %eax,(%esp)
 804a958:	e8 85 05 00 00       	call   804aee2 <imalloc>
 804a95d:	89 45 e4             	mov    %eax,-0x1c(%ebp)
 804a960:	83 7d e4 00          	cmpl   $0x0,-0x1c(%ebp)
 804a964:	75 15                	jne    804a97b <malloc_make_chunks+0x9c>
 804a966:	8b 45 d8             	mov    -0x28(%ebp),%eax
 804a969:	89 04 24             	mov    %eax,(%esp)
 804a96c:	e8 c5 0e 00 00       	call   804b836 <ifree>
 804a971:	b8 00 00 00 00       	mov    $0x0,%eax
 804a976:	e9 ad 01 00 00       	jmp    804ab28 <malloc_make_chunks+0x249>
 804a97b:	8b 45 08             	mov    0x8(%ebp),%eax
 804a97e:	ba 01 00 00 00       	mov    $0x1,%edx
 804a983:	89 d6                	mov    %edx,%esi
 804a985:	89 c1                	mov    %eax,%ecx
 804a987:	d3 e6                	shl    %cl,%esi
 804a989:	89 f0                	mov    %esi,%eax
 804a98b:	89 c2                	mov    %eax,%edx
 804a98d:	8b 45 e4             	mov    -0x1c(%ebp),%eax
 804a990:	66 89 50 08          	mov    %dx,0x8(%eax)
 804a994:	8b 45 08             	mov    0x8(%ebp),%eax
 804a997:	89 c2                	mov    %eax,%edx
 804a999:	8b 45 e4             	mov    -0x1c(%ebp),%eax
 804a99c:	66 89 50 0a          	mov    %dx,0xa(%eax)
 804a9a0:	8b 45 08             	mov    0x8(%ebp),%eax
 804a9a3:	ba 00 10 00 00       	mov    $0x1000,%edx
 804a9a8:	89 d6                	mov    %edx,%esi
 804a9aa:	89 c1                	mov    %eax,%ecx
 804a9ac:	d3 ee                	shr    %cl,%esi
 804a9ae:	89 f0                	mov    %esi,%eax
 804a9b0:	89 c2                	mov    %eax,%edx
 804a9b2:	8b 45 e4             	mov    -0x1c(%ebp),%eax
 804a9b5:	66 89 50 0c          	mov    %dx,0xc(%eax)
 804a9b9:	8b 45 e4             	mov    -0x1c(%ebp),%eax
 804a9bc:	0f b7 50 0c          	movzwl 0xc(%eax),%edx
 804a9c0:	8b 45 e4             	mov    -0x1c(%ebp),%eax
 804a9c3:	66 89 50 0e          	mov    %dx,0xe(%eax)
 804a9c7:	8b 45 e4             	mov    -0x1c(%ebp),%eax
 804a9ca:	8b 55 d8             	mov    -0x28(%ebp),%edx
 804a9cd:	89 50 04             	mov    %edx,0x4(%eax)
 804a9d0:	8b 45 e4             	mov    -0x1c(%ebp),%eax
 804a9d3:	0f b7 40 0e          	movzwl 0xe(%eax),%eax
 804a9d7:	0f b7 c0             	movzwl %ax,%eax
 804a9da:	89 45 d4             	mov    %eax,-0x2c(%ebp)
 804a9dd:	c7 45 e0 00 00 00 00 	movl   $0x0,-0x20(%ebp)
 804a9e4:	eb 19                	jmp    804a9ff <malloc_make_chunks+0x120>
 804a9e6:	8b 45 e0             	mov    -0x20(%ebp),%eax
 804a9e9:	89 c2                	mov    %eax,%edx
 804a9eb:	c1 ea 05             	shr    $0x5,%edx
 804a9ee:	8b 45 e4             	mov    -0x1c(%ebp),%eax
 804a9f1:	83 c2 04             	add    $0x4,%edx
 804a9f4:	c7 04 90 ff ff ff ff 	movl   $0xffffffff,(%eax,%edx,4)
 804a9fb:	83 45 e0 20          	addl   $0x20,-0x20(%ebp)
 804a9ff:	8b 45 e0             	mov    -0x20(%ebp),%eax
 804aa02:	8b 55 d4             	mov    -0x2c(%ebp),%edx
 804aa05:	89 d7                	mov    %edx,%edi
 804aa07:	29 c7                	sub    %eax,%edi
 804aa09:	89 f8                	mov    %edi,%eax
 804aa0b:	83 f8 1f             	cmp    $0x1f,%eax
 804aa0e:	77 d6                	ja     804a9e6 <malloc_make_chunks+0x107>
 804aa10:	eb 36                	jmp    804aa48 <malloc_make_chunks+0x169>
 804aa12:	8b 45 e0             	mov    -0x20(%ebp),%eax
 804aa15:	c1 e8 05             	shr    $0x5,%eax
 804aa18:	8b 55 e4             	mov    -0x1c(%ebp),%edx
 804aa1b:	8d 48 04             	lea    0x4(%eax),%ecx
 804aa1e:	8b 34 8a             	mov    (%edx,%ecx,4),%esi
 804aa21:	8b 55 e0             	mov    -0x20(%ebp),%edx
 804aa24:	83 e2 1f             	and    $0x1f,%edx
 804aa27:	c7 45 c4 01 00 00 00 	movl   $0x1,-0x3c(%ebp)
 804aa2e:	8b 7d c4             	mov    -0x3c(%ebp),%edi
 804aa31:	89 d1                	mov    %edx,%ecx
 804aa33:	d3 e7                	shl    %cl,%edi
 804aa35:	89 fa                	mov    %edi,%edx
 804aa37:	89 f1                	mov    %esi,%ecx
 804aa39:	09 d1                	or     %edx,%ecx
 804aa3b:	8b 55 e4             	mov    -0x1c(%ebp),%edx
 804aa3e:	83 c0 04             	add    $0x4,%eax
 804aa41:	89 0c 82             	mov    %ecx,(%edx,%eax,4)
 804aa44:	83 45 e0 01          	addl   $0x1,-0x20(%ebp)
 804aa48:	8b 45 e0             	mov    -0x20(%ebp),%eax
 804aa4b:	3b 45 d4             	cmp    -0x2c(%ebp),%eax
 804aa4e:	72 c2                	jb     804aa12 <malloc_make_chunks+0x133>
 804aa50:	8b 45 e4             	mov    -0x1c(%ebp),%eax
 804aa53:	8b 40 04             	mov    0x4(%eax),%eax
 804aa56:	3b 45 e4             	cmp    -0x1c(%ebp),%eax
 804aa59:	75 7c                	jne    804aad7 <malloc_make_chunks+0x1f8>
 804aa5b:	c7 45 e0 00 00 00 00 	movl   $0x0,-0x20(%ebp)
 804aa62:	eb 6d                	jmp    804aad1 <malloc_make_chunks+0x1f2>
 804aa64:	8b 45 e0             	mov    -0x20(%ebp),%eax
 804aa67:	c1 e8 05             	shr    $0x5,%eax
 804aa6a:	8b 55 e4             	mov    -0x1c(%ebp),%edx
 804aa6d:	8d 48 04             	lea    0x4(%eax),%ecx
 804aa70:	8b 34 8a             	mov    (%edx,%ecx,4),%esi
 804aa73:	8b 55 e0             	mov    -0x20(%ebp),%edx
 804aa76:	83 e2 1f             	and    $0x1f,%edx
 804aa79:	c7 45 c4 01 00 00 00 	movl   $0x1,-0x3c(%ebp)
 804aa80:	8b 7d c4             	mov    -0x3c(%ebp),%edi
 804aa83:	89 d1                	mov    %edx,%ecx
 804aa85:	d3 e7                	shl    %cl,%edi
 804aa87:	89 fa                	mov    %edi,%edx
 804aa89:	f7 d2                	not    %edx
 804aa8b:	89 f1                	mov    %esi,%ecx
 804aa8d:	21 d1                	and    %edx,%ecx
 804aa8f:	8b 55 e4             	mov    -0x1c(%ebp),%edx
 804aa92:	83 c0 04             	add    $0x4,%eax
 804aa95:	89 0c 82             	mov    %ecx,(%edx,%eax,4)
 804aa98:	8b 45 e4             	mov    -0x1c(%ebp),%eax
 804aa9b:	0f b7 40 0c          	movzwl 0xc(%eax),%eax
 804aa9f:	8d 50 ff             	lea    -0x1(%eax),%edx
 804aaa2:	8b 45 e4             	mov    -0x1c(%ebp),%eax
 804aaa5:	66 89 50 0c          	mov    %dx,0xc(%eax)
 804aaa9:	8b 45 e4             	mov    -0x1c(%ebp),%eax
 804aaac:	0f b7 40 0e          	movzwl 0xe(%eax),%eax
 804aab0:	8d 50 ff             	lea    -0x1(%eax),%edx
 804aab3:	8b 45 e4             	mov    -0x1c(%ebp),%eax
 804aab6:	66 89 50 0e          	mov    %dx,0xe(%eax)
 804aaba:	8b 45 08             	mov    0x8(%ebp),%eax
 804aabd:	ba 01 00 00 00       	mov    $0x1,%edx
 804aac2:	89 d6                	mov    %edx,%esi
 804aac4:	89 c1                	mov    %eax,%ecx
 804aac6:	d3 e6                	shl    %cl,%esi
 804aac8:	89 f0                	mov    %esi,%eax
 804aaca:	29 45 dc             	sub    %eax,-0x24(%ebp)
 804aacd:	83 45 e0 01          	addl   $0x1,-0x20(%ebp)
 804aad1:	83 7d dc 00          	cmpl   $0x0,-0x24(%ebp)
 804aad5:	75 8d                	jne    804aa64 <malloc_make_chunks+0x185>
 804aad7:	8b 83 84 04 00 00    	mov    0x484(%ebx),%eax
 804aadd:	8b 55 d8             	mov    -0x28(%ebp),%edx
 804aae0:	89 d1                	mov    %edx,%ecx
 804aae2:	c1 e9 0c             	shr    $0xc,%ecx
 804aae5:	8b 93 7c 04 00 00    	mov    0x47c(%ebx),%edx
 804aaeb:	89 cf                	mov    %ecx,%edi
 804aaed:	29 d7                	sub    %edx,%edi
 804aaef:	89 fa                	mov    %edi,%edx
 804aaf1:	c1 e2 02             	shl    $0x2,%edx
 804aaf4:	01 c2                	add    %eax,%edx
 804aaf6:	8b 45 e4             	mov    -0x1c(%ebp),%eax
 804aaf9:	89 02                	mov    %eax,(%edx)
 804aafb:	8b 83 84 04 00 00    	mov    0x484(%ebx),%eax
 804ab01:	8b 55 08             	mov    0x8(%ebp),%edx
 804ab04:	c1 e2 02             	shl    $0x2,%edx
 804ab07:	01 d0                	add    %edx,%eax
 804ab09:	8b 10                	mov    (%eax),%edx
 804ab0b:	8b 45 e4             	mov    -0x1c(%ebp),%eax
 804ab0e:	89 10                	mov    %edx,(%eax)
 804ab10:	8b 83 84 04 00 00    	mov    0x484(%ebx),%eax
 804ab16:	8b 55 08             	mov    0x8(%ebp),%edx
 804ab19:	c1 e2 02             	shl    $0x2,%edx
 804ab1c:	01 c2                	add    %eax,%edx
 804ab1e:	8b 45 e4             	mov    -0x1c(%ebp),%eax
 804ab21:	89 02                	mov    %eax,(%edx)
 804ab23:	b8 01 00 00 00       	mov    $0x1,%eax
 804ab28:	83 c4 4c             	add    $0x4c,%esp
 804ab2b:	5b                   	pop    %ebx
 804ab2c:	5e                   	pop    %esi
 804ab2d:	5f                   	pop    %edi
 804ab2e:	5d                   	pop    %ebp
 804ab2f:	c3                   	ret    

0804ab30 <malloc_bytes>:
 804ab30:	55                   	push   %ebp
 804ab31:	89 e5                	mov    %esp,%ebp
 804ab33:	57                   	push   %edi
 804ab34:	56                   	push   %esi
 804ab35:	53                   	push   %ebx
 804ab36:	83 ec 5c             	sub    $0x5c,%esp
 804ab39:	e8 3f d9 ff ff       	call   804847d <__i686.get_pc_thunk.bx>
 804ab3e:	81 c3 96 56 00 00    	add    $0x5696,%ebx
 804ab44:	83 7d 08 0f          	cmpl   $0xf,0x8(%ebp)
 804ab48:	77 07                	ja     804ab51 <malloc_bytes+0x21>
 804ab4a:	c7 45 08 10 00 00 00 	movl   $0x10,0x8(%ebp)
 804ab51:	c7 45 e0 01 00 00 00 	movl   $0x1,-0x20(%ebp)
 804ab58:	8b 45 08             	mov    0x8(%ebp),%eax
 804ab5b:	83 e8 01             	sub    $0x1,%eax
 804ab5e:	89 45 e4             	mov    %eax,-0x1c(%ebp)
 804ab61:	eb 04                	jmp    804ab67 <malloc_bytes+0x37>
 804ab63:	83 45 e0 01          	addl   $0x1,-0x20(%ebp)
 804ab67:	d1 7d e4             	sarl   -0x1c(%ebp)
 804ab6a:	83 7d e4 00          	cmpl   $0x0,-0x1c(%ebp)
 804ab6e:	75 f3                	jne    804ab63 <malloc_bytes+0x33>
 804ab70:	8b 83 84 04 00 00    	mov    0x484(%ebx),%eax
 804ab76:	8b 55 e0             	mov    -0x20(%ebp),%edx
 804ab79:	c1 e2 02             	shl    $0x2,%edx
 804ab7c:	01 d0                	add    %edx,%eax
 804ab7e:	8b 00                	mov    (%eax),%eax
 804ab80:	85 c0                	test   %eax,%eax
 804ab82:	0f 85 49 02 00 00    	jne    804add1 <malloc_bytes+0x2a1>
 804ab88:	8b 45 e0             	mov    -0x20(%ebp),%eax
 804ab8b:	89 45 cc             	mov    %eax,-0x34(%ebp)
 804ab8e:	c7 04 24 00 10 00 00 	movl   $0x1000,(%esp)
 804ab95:	e8 aa fb ff ff       	call   804a744 <malloc_pages>
 804ab9a:	89 45 c8             	mov    %eax,-0x38(%ebp)
 804ab9d:	83 7d c8 00          	cmpl   $0x0,-0x38(%ebp)
 804aba1:	75 0a                	jne    804abad <malloc_bytes+0x7d>
 804aba3:	b8 00 00 00 00       	mov    $0x0,%eax
 804aba8:	e9 16 02 00 00       	jmp    804adc3 <malloc_bytes+0x293>
 804abad:	c7 45 c4 10 00 00 00 	movl   $0x10,-0x3c(%ebp)
 804abb4:	8b 45 cc             	mov    -0x34(%ebp),%eax
 804abb7:	ba 00 10 00 00       	mov    $0x1000,%edx
 804abbc:	89 d6                	mov    %edx,%esi
 804abbe:	89 c1                	mov    %eax,%ecx
 804abc0:	d3 ee                	shr    %cl,%esi
 804abc2:	89 f0                	mov    %esi,%eax
 804abc4:	83 c0 1f             	add    $0x1f,%eax
 804abc7:	c1 e8 05             	shr    $0x5,%eax
 804abca:	c1 e0 02             	shl    $0x2,%eax
 804abcd:	01 45 c4             	add    %eax,-0x3c(%ebp)
 804abd0:	8b 45 cc             	mov    -0x34(%ebp),%eax
 804abd3:	ba 01 00 00 00       	mov    $0x1,%edx
 804abd8:	89 c1                	mov    %eax,%ecx
 804abda:	d3 e2                	shl    %cl,%edx
 804abdc:	8b 45 c4             	mov    -0x3c(%ebp),%eax
 804abdf:	01 c0                	add    %eax,%eax
 804abe1:	39 c2                	cmp    %eax,%edx
 804abe3:	77 08                	ja     804abed <malloc_bytes+0xbd>
 804abe5:	8b 45 c8             	mov    -0x38(%ebp),%eax
 804abe8:	89 45 c0             	mov    %eax,-0x40(%ebp)
 804abeb:	eb 29                	jmp    804ac16 <malloc_bytes+0xe6>
 804abed:	8b 45 c4             	mov    -0x3c(%ebp),%eax
 804abf0:	89 04 24             	mov    %eax,(%esp)
 804abf3:	e8 ea 02 00 00       	call   804aee2 <imalloc>
 804abf8:	89 45 c0             	mov    %eax,-0x40(%ebp)
 804abfb:	83 7d c0 00          	cmpl   $0x0,-0x40(%ebp)
 804abff:	75 15                	jne    804ac16 <malloc_bytes+0xe6>
 804ac01:	8b 45 c8             	mov    -0x38(%ebp),%eax
 804ac04:	89 04 24             	mov    %eax,(%esp)
 804ac07:	e8 2a 0c 00 00       	call   804b836 <ifree>
 804ac0c:	b8 00 00 00 00       	mov    $0x0,%eax
 804ac11:	e9 ad 01 00 00       	jmp    804adc3 <malloc_bytes+0x293>
 804ac16:	8b 45 cc             	mov    -0x34(%ebp),%eax
 804ac19:	ba 01 00 00 00       	mov    $0x1,%edx
 804ac1e:	89 d6                	mov    %edx,%esi
 804ac20:	89 c1                	mov    %eax,%ecx
 804ac22:	d3 e6                	shl    %cl,%esi
 804ac24:	89 f0                	mov    %esi,%eax
 804ac26:	89 c2                	mov    %eax,%edx
 804ac28:	8b 45 c0             	mov    -0x40(%ebp),%eax
 804ac2b:	66 89 50 08          	mov    %dx,0x8(%eax)
 804ac2f:	8b 45 cc             	mov    -0x34(%ebp),%eax
 804ac32:	89 c2                	mov    %eax,%edx
 804ac34:	8b 45 c0             	mov    -0x40(%ebp),%eax
 804ac37:	66 89 50 0a          	mov    %dx,0xa(%eax)
 804ac3b:	8b 45 cc             	mov    -0x34(%ebp),%eax
 804ac3e:	ba 00 10 00 00       	mov    $0x1000,%edx
 804ac43:	89 d6                	mov    %edx,%esi
 804ac45:	89 c1                	mov    %eax,%ecx
 804ac47:	d3 ee                	shr    %cl,%esi
 804ac49:	89 f0                	mov    %esi,%eax
 804ac4b:	89 c2                	mov    %eax,%edx
 804ac4d:	8b 45 c0             	mov    -0x40(%ebp),%eax
 804ac50:	66 89 50 0c          	mov    %dx,0xc(%eax)
 804ac54:	8b 45 c0             	mov    -0x40(%ebp),%eax
 804ac57:	0f b7 50 0c          	movzwl 0xc(%eax),%edx
 804ac5b:	8b 45 c0             	mov    -0x40(%ebp),%eax
 804ac5e:	66 89 50 0e          	mov    %dx,0xe(%eax)
 804ac62:	8b 45 c0             	mov    -0x40(%ebp),%eax
 804ac65:	8b 55 c8             	mov    -0x38(%ebp),%edx
 804ac68:	89 50 04             	mov    %edx,0x4(%eax)
 804ac6b:	8b 45 c0             	mov    -0x40(%ebp),%eax
 804ac6e:	0f b7 40 0e          	movzwl 0xe(%eax),%eax
 804ac72:	0f b7 c0             	movzwl %ax,%eax
 804ac75:	89 45 bc             	mov    %eax,-0x44(%ebp)
 804ac78:	c7 45 b8 00 00 00 00 	movl   $0x0,-0x48(%ebp)
 804ac7f:	eb 19                	jmp    804ac9a <malloc_bytes+0x16a>
 804ac81:	8b 45 b8             	mov    -0x48(%ebp),%eax
 804ac84:	89 c2                	mov    %eax,%edx
 804ac86:	c1 ea 05             	shr    $0x5,%edx
 804ac89:	8b 45 c0             	mov    -0x40(%ebp),%eax
 804ac8c:	83 c2 04             	add    $0x4,%edx
 804ac8f:	c7 04 90 ff ff ff ff 	movl   $0xffffffff,(%eax,%edx,4)
 804ac96:	83 45 b8 20          	addl   $0x20,-0x48(%ebp)
 804ac9a:	8b 45 b8             	mov    -0x48(%ebp),%eax
 804ac9d:	8b 55 bc             	mov    -0x44(%ebp),%edx
 804aca0:	89 d7                	mov    %edx,%edi
 804aca2:	29 c7                	sub    %eax,%edi
 804aca4:	89 f8                	mov    %edi,%eax
 804aca6:	83 f8 1f             	cmp    $0x1f,%eax
 804aca9:	77 d6                	ja     804ac81 <malloc_bytes+0x151>
 804acab:	eb 36                	jmp    804ace3 <malloc_bytes+0x1b3>
 804acad:	8b 45 b8             	mov    -0x48(%ebp),%eax
 804acb0:	c1 e8 05             	shr    $0x5,%eax
 804acb3:	8b 55 c0             	mov    -0x40(%ebp),%edx
 804acb6:	8d 48 04             	lea    0x4(%eax),%ecx
 804acb9:	8b 34 8a             	mov    (%edx,%ecx,4),%esi
 804acbc:	8b 55 b8             	mov    -0x48(%ebp),%edx
 804acbf:	83 e2 1f             	and    $0x1f,%edx
 804acc2:	c7 45 b4 01 00 00 00 	movl   $0x1,-0x4c(%ebp)
 804acc9:	8b 7d b4             	mov    -0x4c(%ebp),%edi
 804accc:	89 d1                	mov    %edx,%ecx
 804acce:	d3 e7                	shl    %cl,%edi
 804acd0:	89 fa                	mov    %edi,%edx
 804acd2:	89 f1                	mov    %esi,%ecx
 804acd4:	09 d1                	or     %edx,%ecx
 804acd6:	8b 55 c0             	mov    -0x40(%ebp),%edx
 804acd9:	83 c0 04             	add    $0x4,%eax
 804acdc:	89 0c 82             	mov    %ecx,(%edx,%eax,4)
 804acdf:	83 45 b8 01          	addl   $0x1,-0x48(%ebp)
 804ace3:	8b 45 bc             	mov    -0x44(%ebp),%eax
 804ace6:	3b 45 b8             	cmp    -0x48(%ebp),%eax
 804ace9:	77 c2                	ja     804acad <malloc_bytes+0x17d>
 804aceb:	8b 45 c0             	mov    -0x40(%ebp),%eax
 804acee:	8b 40 04             	mov    0x4(%eax),%eax
 804acf1:	39 45 c0             	cmp    %eax,-0x40(%ebp)
 804acf4:	75 7c                	jne    804ad72 <malloc_bytes+0x242>
 804acf6:	c7 45 b8 00 00 00 00 	movl   $0x0,-0x48(%ebp)
 804acfd:	eb 6d                	jmp    804ad6c <malloc_bytes+0x23c>
 804acff:	8b 45 b8             	mov    -0x48(%ebp),%eax
 804ad02:	c1 e8 05             	shr    $0x5,%eax
 804ad05:	8b 55 c0             	mov    -0x40(%ebp),%edx
 804ad08:	8d 48 04             	lea    0x4(%eax),%ecx
 804ad0b:	8b 34 8a             	mov    (%edx,%ecx,4),%esi
 804ad0e:	8b 55 b8             	mov    -0x48(%ebp),%edx
 804ad11:	83 e2 1f             	and    $0x1f,%edx
 804ad14:	c7 45 b4 01 00 00 00 	movl   $0x1,-0x4c(%ebp)
 804ad1b:	8b 7d b4             	mov    -0x4c(%ebp),%edi
 804ad1e:	89 d1                	mov    %edx,%ecx
 804ad20:	d3 e7                	shl    %cl,%edi
 804ad22:	89 fa                	mov    %edi,%edx
 804ad24:	f7 d2                	not    %edx
 804ad26:	89 f1                	mov    %esi,%ecx
 804ad28:	21 d1                	and    %edx,%ecx
 804ad2a:	8b 55 c0             	mov    -0x40(%ebp),%edx
 804ad2d:	83 c0 04             	add    $0x4,%eax
 804ad30:	89 0c 82             	mov    %ecx,(%edx,%eax,4)
 804ad33:	8b 45 c0             	mov    -0x40(%ebp),%eax
 804ad36:	0f b7 40 0c          	movzwl 0xc(%eax),%eax
 804ad3a:	8d 50 ff             	lea    -0x1(%eax),%edx
 804ad3d:	8b 45 c0             	mov    -0x40(%ebp),%eax
 804ad40:	66 89 50 0c          	mov    %dx,0xc(%eax)
 804ad44:	8b 45 c0             	mov    -0x40(%ebp),%eax
 804ad47:	0f b7 40 0e          	movzwl 0xe(%eax),%eax
 804ad4b:	8d 50 ff             	lea    -0x1(%eax),%edx
 804ad4e:	8b 45 c0             	mov    -0x40(%ebp),%eax
 804ad51:	66 89 50 0e          	mov    %dx,0xe(%eax)
 804ad55:	8b 45 cc             	mov    -0x34(%ebp),%eax
 804ad58:	ba 01 00 00 00       	mov    $0x1,%edx
 804ad5d:	89 d6                	mov    %edx,%esi
 804ad5f:	89 c1                	mov    %eax,%ecx
 804ad61:	d3 e6                	shl    %cl,%esi
 804ad63:	89 f0                	mov    %esi,%eax
 804ad65:	29 45 c4             	sub    %eax,-0x3c(%ebp)
 804ad68:	83 45 b8 01          	addl   $0x1,-0x48(%ebp)
 804ad6c:	83 7d c4 00          	cmpl   $0x0,-0x3c(%ebp)
 804ad70:	75 8d                	jne    804acff <malloc_bytes+0x1cf>
 804ad72:	8b 83 84 04 00 00    	mov    0x484(%ebx),%eax
 804ad78:	8b 55 c8             	mov    -0x38(%ebp),%edx
 804ad7b:	89 d1                	mov    %edx,%ecx
 804ad7d:	c1 e9 0c             	shr    $0xc,%ecx
 804ad80:	8b 93 7c 04 00 00    	mov    0x47c(%ebx),%edx
 804ad86:	89 cf                	mov    %ecx,%edi
 804ad88:	29 d7                	sub    %edx,%edi
 804ad8a:	89 fa                	mov    %edi,%edx
 804ad8c:	c1 e2 02             	shl    $0x2,%edx
 804ad8f:	01 c2                	add    %eax,%edx
 804ad91:	8b 45 c0             	mov    -0x40(%ebp),%eax
 804ad94:	89 02                	mov    %eax,(%edx)
 804ad96:	8b 83 84 04 00 00    	mov    0x484(%ebx),%eax
 804ad9c:	8b 55 cc             	mov    -0x34(%ebp),%edx
 804ad9f:	c1 e2 02             	shl    $0x2,%edx
 804ada2:	01 d0                	add    %edx,%eax
 804ada4:	8b 10                	mov    (%eax),%edx
 804ada6:	8b 45 c0             	mov    -0x40(%ebp),%eax
 804ada9:	89 10                	mov    %edx,(%eax)
 804adab:	8b 83 84 04 00 00    	mov    0x484(%ebx),%eax
 804adb1:	8b 55 cc             	mov    -0x34(%ebp),%edx
 804adb4:	c1 e2 02             	shl    $0x2,%edx
 804adb7:	01 c2                	add    %eax,%edx
 804adb9:	8b 45 c0             	mov    -0x40(%ebp),%eax
 804adbc:	89 02                	mov    %eax,(%edx)
 804adbe:	b8 01 00 00 00       	mov    $0x1,%eax
 804adc3:	85 c0                	test   %eax,%eax
 804adc5:	75 0a                	jne    804add1 <malloc_bytes+0x2a1>
 804adc7:	b8 00 00 00 00       	mov    $0x0,%eax
 804adcc:	e9 09 01 00 00       	jmp    804aeda <malloc_bytes+0x3aa>
 804add1:	8b 83 84 04 00 00    	mov    0x484(%ebx),%eax
 804add7:	8b 55 e0             	mov    -0x20(%ebp),%edx
 804adda:	c1 e2 02             	shl    $0x2,%edx
 804addd:	01 d0                	add    %edx,%eax
 804addf:	8b 00                	mov    (%eax),%eax
 804ade1:	89 45 d0             	mov    %eax,-0x30(%ebp)
 804ade4:	8b 45 d0             	mov    -0x30(%ebp),%eax
 804ade7:	83 c0 10             	add    $0x10,%eax
 804adea:	89 45 d4             	mov    %eax,-0x2c(%ebp)
 804aded:	eb 04                	jmp    804adf3 <malloc_bytes+0x2c3>
 804adef:	83 45 d4 04          	addl   $0x4,-0x2c(%ebp)
 804adf3:	8b 45 d4             	mov    -0x2c(%ebp),%eax
 804adf6:	8b 00                	mov    (%eax),%eax
 804adf8:	85 c0                	test   %eax,%eax
 804adfa:	74 f3                	je     804adef <malloc_bytes+0x2bf>
 804adfc:	c7 45 dc 01 00 00 00 	movl   $0x1,-0x24(%ebp)
 804ae03:	c7 45 d8 00 00 00 00 	movl   $0x0,-0x28(%ebp)
 804ae0a:	eb 0c                	jmp    804ae18 <malloc_bytes+0x2e8>
 804ae0c:	8b 45 dc             	mov    -0x24(%ebp),%eax
 804ae0f:	01 c0                	add    %eax,%eax
 804ae11:	89 45 dc             	mov    %eax,-0x24(%ebp)
 804ae14:	83 45 d8 01          	addl   $0x1,-0x28(%ebp)
 804ae18:	8b 45 d4             	mov    -0x2c(%ebp),%eax
 804ae1b:	8b 00                	mov    (%eax),%eax
 804ae1d:	23 45 dc             	and    -0x24(%ebp),%eax
 804ae20:	85 c0                	test   %eax,%eax
 804ae22:	74 e8                	je     804ae0c <malloc_bytes+0x2dc>
 804ae24:	8b 45 d4             	mov    -0x2c(%ebp),%eax
 804ae27:	8b 00                	mov    (%eax),%eax
 804ae29:	89 c2                	mov    %eax,%edx
 804ae2b:	33 55 dc             	xor    -0x24(%ebp),%edx
 804ae2e:	8b 45 d4             	mov    -0x2c(%ebp),%eax
 804ae31:	89 10                	mov    %edx,(%eax)
 804ae33:	8b 45 d0             	mov    -0x30(%ebp),%eax
 804ae36:	0f b7 40 0c          	movzwl 0xc(%eax),%eax
 804ae3a:	8d 50 ff             	lea    -0x1(%eax),%edx
 804ae3d:	8b 45 d0             	mov    -0x30(%ebp),%eax
 804ae40:	66 89 50 0c          	mov    %dx,0xc(%eax)
 804ae44:	8b 45 d0             	mov    -0x30(%ebp),%eax
 804ae47:	0f b7 40 0c          	movzwl 0xc(%eax),%eax
 804ae4b:	66 85 c0             	test   %ax,%ax
 804ae4e:	75 1e                	jne    804ae6e <malloc_bytes+0x33e>
 804ae50:	8b 83 84 04 00 00    	mov    0x484(%ebx),%eax
 804ae56:	8b 55 e0             	mov    -0x20(%ebp),%edx
 804ae59:	c1 e2 02             	shl    $0x2,%edx
 804ae5c:	01 c2                	add    %eax,%edx
 804ae5e:	8b 45 d0             	mov    -0x30(%ebp),%eax
 804ae61:	8b 00                	mov    (%eax),%eax
 804ae63:	89 02                	mov    %eax,(%edx)
 804ae65:	8b 45 d0             	mov    -0x30(%ebp),%eax
 804ae68:	c7 00 00 00 00 00    	movl   $0x0,(%eax)
 804ae6e:	8b 55 d4             	mov    -0x2c(%ebp),%edx
 804ae71:	8b 45 d0             	mov    -0x30(%ebp),%eax
 804ae74:	83 c0 10             	add    $0x10,%eax
 804ae77:	89 d1                	mov    %edx,%ecx
 804ae79:	29 c1                	sub    %eax,%ecx
 804ae7b:	89 c8                	mov    %ecx,%eax
 804ae7d:	c1 f8 02             	sar    $0x2,%eax
 804ae80:	89 c2                	mov    %eax,%edx
 804ae82:	c1 e2 05             	shl    $0x5,%edx
 804ae85:	8b 45 d8             	mov    -0x28(%ebp),%eax
 804ae88:	01 d0                	add    %edx,%eax
 804ae8a:	89 45 d8             	mov    %eax,-0x28(%ebp)
 804ae8d:	8b 45 d0             	mov    -0x30(%ebp),%eax
 804ae90:	0f b7 40 0a          	movzwl 0xa(%eax),%eax
 804ae94:	0f b7 c0             	movzwl %ax,%eax
 804ae97:	89 c1                	mov    %eax,%ecx
 804ae99:	d3 65 d8             	shll   %cl,-0x28(%ebp)
 804ae9c:	8b 83 bc 04 00 00    	mov    0x4bc(%ebx),%eax
 804aea2:	85 c0                	test   %eax,%eax
 804aea4:	74 29                	je     804aecf <malloc_bytes+0x39f>
 804aea6:	8b 45 d0             	mov    -0x30(%ebp),%eax
 804aea9:	0f b7 40 08          	movzwl 0x8(%eax),%eax
 804aead:	0f b7 c0             	movzwl %ax,%eax
 804aeb0:	8b 55 d0             	mov    -0x30(%ebp),%edx
 804aeb3:	8b 4a 04             	mov    0x4(%edx),%ecx
 804aeb6:	8b 55 d8             	mov    -0x28(%ebp),%edx
 804aeb9:	01 ca                	add    %ecx,%edx
 804aebb:	89 44 24 08          	mov    %eax,0x8(%esp)
 804aebf:	c7 44 24 04 d0 00 00 	movl   $0xd0,0x4(%esp)
 804aec6:	00 
 804aec7:	89 14 24             	mov    %edx,(%esp)
 804aeca:	e8 0d 1d 00 00       	call   804cbdc <memset>
 804aecf:	8b 45 d0             	mov    -0x30(%ebp),%eax
 804aed2:	8b 50 04             	mov    0x4(%eax),%edx
 804aed5:	8b 45 d8             	mov    -0x28(%ebp),%eax
 804aed8:	01 d0                	add    %edx,%eax
 804aeda:	83 c4 5c             	add    $0x5c,%esp
 804aedd:	5b                   	pop    %ebx
 804aede:	5e                   	pop    %esi
 804aedf:	5f                   	pop    %edi
 804aee0:	5d                   	pop    %ebp
 804aee1:	c3                   	ret    

0804aee2 <imalloc>:
 804aee2:	55                   	push   %ebp
 804aee3:	89 e5                	mov    %esp,%ebp
 804aee5:	53                   	push   %ebx
 804aee6:	83 ec 24             	sub    $0x24,%esp
 804aee9:	e8 8f d5 ff ff       	call   804847d <__i686.get_pc_thunk.bx>
 804aeee:	81 c3 e6 52 00 00    	add    $0x52e6,%ebx
 804aef4:	8b 83 a4 04 00 00    	mov    0x4a4(%ebx),%eax
 804aefa:	85 c0                	test   %eax,%eax
 804aefc:	74 0c                	je     804af0a <imalloc+0x28>
 804aefe:	c7 04 24 01 00 00 00 	movl   $0x1,(%esp)
 804af05:	e8 e6 d7 ff ff       	call   80486f0 <exit>
 804af0a:	8b 45 08             	mov    0x8(%ebp),%eax
 804af0d:	05 00 10 00 00       	add    $0x1000,%eax
 804af12:	3b 45 08             	cmp    0x8(%ebp),%eax
 804af15:	73 09                	jae    804af20 <imalloc+0x3e>
 804af17:	c7 45 f4 00 00 00 00 	movl   $0x0,-0xc(%ebp)
 804af1e:	eb 27                	jmp    804af47 <imalloc+0x65>
 804af20:	81 7d 08 00 08 00 00 	cmpl   $0x800,0x8(%ebp)
 804af27:	77 10                	ja     804af39 <imalloc+0x57>
 804af29:	8b 45 08             	mov    0x8(%ebp),%eax
 804af2c:	89 04 24             	mov    %eax,(%esp)
 804af2f:	e8 fc fb ff ff       	call   804ab30 <malloc_bytes>
 804af34:	89 45 f4             	mov    %eax,-0xc(%ebp)
 804af37:	eb 0e                	jmp    804af47 <imalloc+0x65>
 804af39:	8b 45 08             	mov    0x8(%ebp),%eax
 804af3c:	89 04 24             	mov    %eax,(%esp)
 804af3f:	e8 00 f8 ff ff       	call   804a744 <malloc_pages>
 804af44:	89 45 f4             	mov    %eax,-0xc(%ebp)
 804af47:	8b 83 a0 04 00 00    	mov    0x4a0(%ebx),%eax
 804af4d:	85 c0                	test   %eax,%eax
 804af4f:	74 14                	je     804af65 <imalloc+0x83>
 804af51:	83 7d f4 00          	cmpl   $0x0,-0xc(%ebp)
 804af55:	75 0e                	jne    804af65 <imalloc+0x83>
 804af57:	8d 83 52 d6 ff ff    	lea    -0x29ae(%ebx),%eax
 804af5d:	89 04 24             	mov    %eax,(%esp)
 804af60:	e8 df f0 ff ff       	call   804a044 <wrterror>
 804af65:	8b 83 b8 04 00 00    	mov    0x4b8(%ebx),%eax
 804af6b:	85 c0                	test   %eax,%eax
 804af6d:	74 20                	je     804af8f <imalloc+0xad>
 804af6f:	83 7d f4 00          	cmpl   $0x0,-0xc(%ebp)
 804af73:	74 1a                	je     804af8f <imalloc+0xad>
 804af75:	8b 45 08             	mov    0x8(%ebp),%eax
 804af78:	89 44 24 08          	mov    %eax,0x8(%esp)
 804af7c:	c7 44 24 04 00 00 00 	movl   $0x0,0x4(%esp)
 804af83:	00 
 804af84:	8b 45 f4             	mov    -0xc(%ebp),%eax
 804af87:	89 04 24             	mov    %eax,(%esp)
 804af8a:	e8 4d 1c 00 00       	call   804cbdc <memset>
 804af8f:	8b 45 f4             	mov    -0xc(%ebp),%eax
 804af92:	83 c4 24             	add    $0x24,%esp
 804af95:	5b                   	pop    %ebx
 804af96:	5d                   	pop    %ebp
 804af97:	c3                   	ret    

0804af98 <irealloc>:
 804af98:	55                   	push   %ebp
 804af99:	89 e5                	mov    %esp,%ebp
 804af9b:	57                   	push   %edi
 804af9c:	56                   	push   %esi
 804af9d:	53                   	push   %ebx
 804af9e:	83 ec 3c             	sub    $0x3c,%esp
 804afa1:	e8 d7 d4 ff ff       	call   804847d <__i686.get_pc_thunk.bx>
 804afa6:	81 c3 2e 52 00 00    	add    $0x522e,%ebx
 804afac:	8b 83 a4 04 00 00    	mov    0x4a4(%ebx),%eax
 804afb2:	85 c0                	test   %eax,%eax
 804afb4:	74 0c                	je     804afc2 <irealloc+0x2a>
 804afb6:	c7 04 24 01 00 00 00 	movl   $0x1,(%esp)
 804afbd:	e8 2e d7 ff ff       	call   80486f0 <exit>
 804afc2:	8b 45 08             	mov    0x8(%ebp),%eax
 804afc5:	89 c2                	mov    %eax,%edx
 804afc7:	c1 ea 0c             	shr    $0xc,%edx
 804afca:	8b 83 7c 04 00 00    	mov    0x47c(%ebx),%eax
 804afd0:	89 d1                	mov    %edx,%ecx
 804afd2:	29 c1                	sub    %eax,%ecx
 804afd4:	89 c8                	mov    %ecx,%eax
 804afd6:	89 45 dc             	mov    %eax,-0x24(%ebp)
 804afd9:	83 7d dc 0b          	cmpl   $0xb,-0x24(%ebp)
 804afdd:	77 18                	ja     804aff7 <irealloc+0x5f>
 804afdf:	8d 83 68 d6 ff ff    	lea    -0x2998(%ebx),%eax
 804afe5:	89 04 24             	mov    %eax,(%esp)
 804afe8:	e8 22 f1 ff ff       	call   804a10f <wrtwarning>
 804afed:	b8 00 00 00 00       	mov    $0x0,%eax
 804aff2:	e9 0c 02 00 00       	jmp    804b203 <irealloc+0x26b>
 804aff7:	8b 83 80 04 00 00    	mov    0x480(%ebx),%eax
 804affd:	39 45 dc             	cmp    %eax,-0x24(%ebp)
 804b000:	76 18                	jbe    804b01a <irealloc+0x82>
 804b002:	8d 83 90 d6 ff ff    	lea    -0x2970(%ebx),%eax
 804b008:	89 04 24             	mov    %eax,(%esp)
 804b00b:	e8 ff f0 ff ff       	call   804a10f <wrtwarning>
 804b010:	b8 00 00 00 00       	mov    $0x0,%eax
 804b015:	e9 e9 01 00 00       	jmp    804b203 <irealloc+0x26b>
 804b01a:	8b 83 84 04 00 00    	mov    0x484(%ebx),%eax
 804b020:	8b 55 dc             	mov    -0x24(%ebp),%edx
 804b023:	c1 e2 02             	shl    $0x2,%edx
 804b026:	01 d0                	add    %edx,%eax
 804b028:	89 45 e0             	mov    %eax,-0x20(%ebp)
 804b02b:	8b 45 e0             	mov    -0x20(%ebp),%eax
 804b02e:	8b 00                	mov    (%eax),%eax
 804b030:	83 f8 02             	cmp    $0x2,%eax
 804b033:	75 75                	jne    804b0aa <irealloc+0x112>
 804b035:	8b 45 08             	mov    0x8(%ebp),%eax
 804b038:	25 ff 0f 00 00       	and    $0xfff,%eax
 804b03d:	85 c0                	test   %eax,%eax
 804b03f:	74 18                	je     804b059 <irealloc+0xc1>
 804b041:	8d 83 b7 d6 ff ff    	lea    -0x2949(%ebx),%eax
 804b047:	89 04 24             	mov    %eax,(%esp)
 804b04a:	e8 c0 f0 ff ff       	call   804a10f <wrtwarning>
 804b04f:	b8 00 00 00 00       	mov    $0x0,%eax
 804b054:	e9 aa 01 00 00       	jmp    804b203 <irealloc+0x26b>
 804b059:	c7 45 e4 00 10 00 00 	movl   $0x1000,-0x1c(%ebp)
 804b060:	eb 07                	jmp    804b069 <irealloc+0xd1>
 804b062:	81 45 e4 00 10 00 00 	addl   $0x1000,-0x1c(%ebp)
 804b069:	83 45 e0 04          	addl   $0x4,-0x20(%ebp)
 804b06d:	8b 45 e0             	mov    -0x20(%ebp),%eax
 804b070:	8b 00                	mov    (%eax),%eax
 804b072:	83 f8 03             	cmp    $0x3,%eax
 804b075:	74 eb                	je     804b062 <irealloc+0xca>
 804b077:	8b 83 a8 04 00 00    	mov    0x4a8(%ebx),%eax
 804b07d:	85 c0                	test   %eax,%eax
 804b07f:	0f 85 14 01 00 00    	jne    804b199 <irealloc+0x201>
 804b085:	8b 45 0c             	mov    0xc(%ebp),%eax
 804b088:	3b 45 e4             	cmp    -0x1c(%ebp),%eax
 804b08b:	0f 87 08 01 00 00    	ja     804b199 <irealloc+0x201>
 804b091:	8b 45 e4             	mov    -0x1c(%ebp),%eax
 804b094:	2d 00 10 00 00       	sub    $0x1000,%eax
 804b099:	3b 45 0c             	cmp    0xc(%ebp),%eax
 804b09c:	0f 83 f7 00 00 00    	jae    804b199 <irealloc+0x201>
 804b0a2:	8b 45 08             	mov    0x8(%ebp),%eax
 804b0a5:	e9 59 01 00 00       	jmp    804b203 <irealloc+0x26b>
 804b0aa:	8b 45 e0             	mov    -0x20(%ebp),%eax
 804b0ad:	8b 00                	mov    (%eax),%eax
 804b0af:	83 f8 03             	cmp    $0x3,%eax
 804b0b2:	0f 86 cc 00 00 00    	jbe    804b184 <irealloc+0x1ec>
 804b0b8:	8b 45 e0             	mov    -0x20(%ebp),%eax
 804b0bb:	8b 00                	mov    (%eax),%eax
 804b0bd:	0f b7 40 08          	movzwl 0x8(%eax),%eax
 804b0c1:	0f b7 c0             	movzwl %ax,%eax
 804b0c4:	83 e8 01             	sub    $0x1,%eax
 804b0c7:	89 c2                	mov    %eax,%edx
 804b0c9:	8b 45 08             	mov    0x8(%ebp),%eax
 804b0cc:	21 d0                	and    %edx,%eax
 804b0ce:	85 c0                	test   %eax,%eax
 804b0d0:	74 18                	je     804b0ea <irealloc+0x152>
 804b0d2:	8d 83 d2 d6 ff ff    	lea    -0x292e(%ebx),%eax
 804b0d8:	89 04 24             	mov    %eax,(%esp)
 804b0db:	e8 2f f0 ff ff       	call   804a10f <wrtwarning>
 804b0e0:	b8 00 00 00 00       	mov    $0x0,%eax
 804b0e5:	e9 19 01 00 00       	jmp    804b203 <irealloc+0x26b>
 804b0ea:	8b 45 08             	mov    0x8(%ebp),%eax
 804b0ed:	89 c2                	mov    %eax,%edx
 804b0ef:	81 e2 ff 0f 00 00    	and    $0xfff,%edx
 804b0f5:	8b 45 e0             	mov    -0x20(%ebp),%eax
 804b0f8:	8b 00                	mov    (%eax),%eax
 804b0fa:	0f b7 40 0a          	movzwl 0xa(%eax),%eax
 804b0fe:	0f b7 c0             	movzwl %ax,%eax
 804b101:	89 d6                	mov    %edx,%esi
 804b103:	89 c1                	mov    %eax,%ecx
 804b105:	d3 ee                	shr    %cl,%esi
 804b107:	89 f0                	mov    %esi,%eax
 804b109:	89 45 d8             	mov    %eax,-0x28(%ebp)
 804b10c:	8b 45 e0             	mov    -0x20(%ebp),%eax
 804b10f:	8b 00                	mov    (%eax),%eax
 804b111:	8b 55 d8             	mov    -0x28(%ebp),%edx
 804b114:	c1 ea 05             	shr    $0x5,%edx
 804b117:	83 c2 04             	add    $0x4,%edx
 804b11a:	8b 14 90             	mov    (%eax,%edx,4),%edx
 804b11d:	8b 45 d8             	mov    -0x28(%ebp),%eax
 804b120:	83 e0 1f             	and    $0x1f,%eax
 804b123:	be 01 00 00 00       	mov    $0x1,%esi
 804b128:	89 f7                	mov    %esi,%edi
 804b12a:	89 c1                	mov    %eax,%ecx
 804b12c:	d3 e7                	shl    %cl,%edi
 804b12e:	89 f8                	mov    %edi,%eax
 804b130:	21 d0                	and    %edx,%eax
 804b132:	85 c0                	test   %eax,%eax
 804b134:	74 18                	je     804b14e <irealloc+0x1b6>
 804b136:	8d 83 ee d6 ff ff    	lea    -0x2912(%ebx),%eax
 804b13c:	89 04 24             	mov    %eax,(%esp)
 804b13f:	e8 cb ef ff ff       	call   804a10f <wrtwarning>
 804b144:	b8 00 00 00 00       	mov    $0x0,%eax
 804b149:	e9 b5 00 00 00       	jmp    804b203 <irealloc+0x26b>
 804b14e:	8b 45 e0             	mov    -0x20(%ebp),%eax
 804b151:	8b 00                	mov    (%eax),%eax
 804b153:	0f b7 40 08          	movzwl 0x8(%eax),%eax
 804b157:	0f b7 c0             	movzwl %ax,%eax
 804b15a:	89 45 e4             	mov    %eax,-0x1c(%ebp)
 804b15d:	8b 83 a8 04 00 00    	mov    0x4a8(%ebx),%eax
 804b163:	85 c0                	test   %eax,%eax
 804b165:	75 32                	jne    804b199 <irealloc+0x201>
 804b167:	8b 45 0c             	mov    0xc(%ebp),%eax
 804b16a:	3b 45 e4             	cmp    -0x1c(%ebp),%eax
 804b16d:	73 2a                	jae    804b199 <irealloc+0x201>
 804b16f:	8b 45 e4             	mov    -0x1c(%ebp),%eax
 804b172:	d1 e8                	shr    %eax
 804b174:	3b 45 0c             	cmp    0xc(%ebp),%eax
 804b177:	72 06                	jb     804b17f <irealloc+0x1e7>
 804b179:	83 7d e4 10          	cmpl   $0x10,-0x1c(%ebp)
 804b17d:	75 1a                	jne    804b199 <irealloc+0x201>
 804b17f:	8b 45 08             	mov    0x8(%ebp),%eax
 804b182:	eb 7f                	jmp    804b203 <irealloc+0x26b>
 804b184:	8d 83 06 d7 ff ff    	lea    -0x28fa(%ebx),%eax
 804b18a:	89 04 24             	mov    %eax,(%esp)
 804b18d:	e8 7d ef ff ff       	call   804a10f <wrtwarning>
 804b192:	b8 00 00 00 00       	mov    $0x0,%eax
 804b197:	eb 6a                	jmp    804b203 <irealloc+0x26b>
 804b199:	8b 45 0c             	mov    0xc(%ebp),%eax
 804b19c:	89 04 24             	mov    %eax,(%esp)
 804b19f:	e8 3e fd ff ff       	call   804aee2 <imalloc>
 804b1a4:	89 45 d4             	mov    %eax,-0x2c(%ebp)
 804b1a7:	83 7d d4 00          	cmpl   $0x0,-0x2c(%ebp)
 804b1ab:	74 53                	je     804b200 <irealloc+0x268>
 804b1ad:	83 7d 0c 00          	cmpl   $0x0,0xc(%ebp)
 804b1b1:	74 42                	je     804b1f5 <irealloc+0x25d>
 804b1b3:	83 7d e4 00          	cmpl   $0x0,-0x1c(%ebp)
 804b1b7:	74 3c                	je     804b1f5 <irealloc+0x25d>
 804b1b9:	8b 45 e4             	mov    -0x1c(%ebp),%eax
 804b1bc:	3b 45 0c             	cmp    0xc(%ebp),%eax
 804b1bf:	73 1b                	jae    804b1dc <irealloc+0x244>
 804b1c1:	8b 45 e4             	mov    -0x1c(%ebp),%eax
 804b1c4:	89 44 24 08          	mov    %eax,0x8(%esp)
 804b1c8:	8b 45 08             	mov    0x8(%ebp),%eax
 804b1cb:	89 44 24 04          	mov    %eax,0x4(%esp)
 804b1cf:	8b 45 d4             	mov    -0x2c(%ebp),%eax
 804b1d2:	89 04 24             	mov    %eax,(%esp)
 804b1d5:	e8 b4 18 00 00       	call   804ca8e <memcpy>
 804b1da:	eb 19                	jmp    804b1f5 <irealloc+0x25d>
 804b1dc:	8b 45 0c             	mov    0xc(%ebp),%eax
 804b1df:	89 44 24 08          	mov    %eax,0x8(%esp)
 804b1e3:	8b 45 08             	mov    0x8(%ebp),%eax
 804b1e6:	89 44 24 04          	mov    %eax,0x4(%esp)
 804b1ea:	8b 45 d4             	mov    -0x2c(%ebp),%eax
 804b1ed:	89 04 24             	mov    %eax,(%esp)
 804b1f0:	e8 99 18 00 00       	call   804ca8e <memcpy>
 804b1f5:	8b 45 08             	mov    0x8(%ebp),%eax
 804b1f8:	89 04 24             	mov    %eax,(%esp)
 804b1fb:	e8 36 06 00 00       	call   804b836 <ifree>
 804b200:	8b 45 d4             	mov    -0x2c(%ebp),%eax
 804b203:	83 c4 3c             	add    $0x3c,%esp
 804b206:	5b                   	pop    %ebx
 804b207:	5e                   	pop    %esi
 804b208:	5f                   	pop    %edi
 804b209:	5d                   	pop    %ebp
 804b20a:	c3                   	ret    

0804b20b <free_pages>:
 804b20b:	55                   	push   %ebp
 804b20c:	89 e5                	mov    %esp,%ebp
 804b20e:	53                   	push   %ebx
 804b20f:	83 ec 34             	sub    $0x34,%esp
 804b212:	e8 66 d2 ff ff       	call   804847d <__i686.get_pc_thunk.bx>
 804b217:	81 c3 bd 4f 00 00    	add    $0x4fbd,%ebx
 804b21d:	c7 45 ec 00 00 00 00 	movl   $0x0,-0x14(%ebp)
 804b224:	83 7d 10 01          	cmpl   $0x1,0x10(%ebp)
 804b228:	75 13                	jne    804b23d <free_pages+0x32>
 804b22a:	8d 83 1e d7 ff ff    	lea    -0x28e2(%ebx),%eax
 804b230:	89 04 24             	mov    %eax,(%esp)
 804b233:	e8 d7 ee ff ff       	call   804a10f <wrtwarning>
 804b238:	e9 d8 03 00 00       	jmp    804b615 <free_pages+0x40a>
 804b23d:	83 7d 10 02          	cmpl   $0x2,0x10(%ebp)
 804b241:	74 13                	je     804b256 <free_pages+0x4b>
 804b243:	8d 83 06 d7 ff ff    	lea    -0x28fa(%ebx),%eax
 804b249:	89 04 24             	mov    %eax,(%esp)
 804b24c:	e8 be ee ff ff       	call   804a10f <wrtwarning>
 804b251:	e9 bf 03 00 00       	jmp    804b615 <free_pages+0x40a>
 804b256:	8b 45 08             	mov    0x8(%ebp),%eax
 804b259:	25 ff 0f 00 00       	and    $0xfff,%eax
 804b25e:	85 c0                	test   %eax,%eax
 804b260:	74 13                	je     804b275 <free_pages+0x6a>
 804b262:	8d 83 b7 d6 ff ff    	lea    -0x2949(%ebx),%eax
 804b268:	89 04 24             	mov    %eax,(%esp)
 804b26b:	e8 9f ee ff ff       	call   804a10f <wrtwarning>
 804b270:	e9 a0 03 00 00       	jmp    804b615 <free_pages+0x40a>
 804b275:	8b 83 84 04 00 00    	mov    0x484(%ebx),%eax
 804b27b:	8b 55 0c             	mov    0xc(%ebp),%edx
 804b27e:	c1 e2 02             	shl    $0x2,%edx
 804b281:	01 d0                	add    %edx,%eax
 804b283:	c7 00 01 00 00 00    	movl   $0x1,(%eax)
 804b289:	c7 45 f4 01 00 00 00 	movl   $0x1,-0xc(%ebp)
 804b290:	eb 1b                	jmp    804b2ad <free_pages+0xa2>
 804b292:	8b 93 84 04 00 00    	mov    0x484(%ebx),%edx
 804b298:	8b 45 0c             	mov    0xc(%ebp),%eax
 804b29b:	03 45 f4             	add    -0xc(%ebp),%eax
 804b29e:	c1 e0 02             	shl    $0x2,%eax
 804b2a1:	01 d0                	add    %edx,%eax
 804b2a3:	c7 00 01 00 00 00    	movl   $0x1,(%eax)
 804b2a9:	83 45 f4 01          	addl   $0x1,-0xc(%ebp)
 804b2ad:	8b 93 84 04 00 00    	mov    0x484(%ebx),%edx
 804b2b3:	8b 45 0c             	mov    0xc(%ebp),%eax
 804b2b6:	03 45 f4             	add    -0xc(%ebp),%eax
 804b2b9:	c1 e0 02             	shl    $0x2,%eax
 804b2bc:	01 d0                	add    %edx,%eax
 804b2be:	8b 00                	mov    (%eax),%eax
 804b2c0:	83 f8 03             	cmp    $0x3,%eax
 804b2c3:	74 cd                	je     804b292 <free_pages+0x87>
 804b2c5:	8b 45 f4             	mov    -0xc(%ebp),%eax
 804b2c8:	c1 e0 0c             	shl    $0xc,%eax
 804b2cb:	89 45 e8             	mov    %eax,-0x18(%ebp)
 804b2ce:	8b 83 bc 04 00 00    	mov    0x4bc(%ebx),%eax
 804b2d4:	85 c0                	test   %eax,%eax
 804b2d6:	74 1a                	je     804b2f2 <free_pages+0xe7>
 804b2d8:	8b 45 e8             	mov    -0x18(%ebp),%eax
 804b2db:	89 44 24 08          	mov    %eax,0x8(%esp)
 804b2df:	c7 44 24 04 d0 00 00 	movl   $0xd0,0x4(%esp)
 804b2e6:	00 
 804b2e7:	8b 45 08             	mov    0x8(%ebp),%eax
 804b2ea:	89 04 24             	mov    %eax,(%esp)
 804b2ed:	e8 ea 18 00 00       	call   804cbdc <memset>
 804b2f2:	8b 45 e8             	mov    -0x18(%ebp),%eax
 804b2f5:	8b 55 08             	mov    0x8(%ebp),%edx
 804b2f8:	01 d0                	add    %edx,%eax
 804b2fa:	89 45 e4             	mov    %eax,-0x1c(%ebp)
 804b2fd:	8b 83 c4 04 00 00    	mov    0x4c4(%ebx),%eax
 804b303:	85 c0                	test   %eax,%eax
 804b305:	75 12                	jne    804b319 <free_pages+0x10e>
 804b307:	c7 04 24 14 00 00 00 	movl   $0x14,(%esp)
 804b30e:	e8 cf fb ff ff       	call   804aee2 <imalloc>
 804b313:	89 83 c4 04 00 00    	mov    %eax,0x4c4(%ebx)
 804b319:	8b 83 c4 04 00 00    	mov    0x4c4(%ebx),%eax
 804b31f:	8b 55 08             	mov    0x8(%ebp),%edx
 804b322:	89 50 08             	mov    %edx,0x8(%eax)
 804b325:	8b 83 c4 04 00 00    	mov    0x4c4(%ebx),%eax
 804b32b:	8b 55 e4             	mov    -0x1c(%ebp),%edx
 804b32e:	89 50 0c             	mov    %edx,0xc(%eax)
 804b331:	8b 83 c4 04 00 00    	mov    0x4c4(%ebx),%eax
 804b337:	8b 55 e8             	mov    -0x18(%ebp),%edx
 804b33a:	89 50 10             	mov    %edx,0x10(%eax)
 804b33d:	8b 83 8c 04 00 00    	mov    0x48c(%ebx),%eax
 804b343:	85 c0                	test   %eax,%eax
 804b345:	75 41                	jne    804b388 <free_pages+0x17d>
 804b347:	8b 83 c4 04 00 00    	mov    0x4c4(%ebx),%eax
 804b34d:	8b 93 8c 04 00 00    	mov    0x48c(%ebx),%edx
 804b353:	89 10                	mov    %edx,(%eax)
 804b355:	8b 83 c4 04 00 00    	mov    0x4c4(%ebx),%eax
 804b35b:	8d 93 8c 04 00 00    	lea    0x48c(%ebx),%edx
 804b361:	89 50 04             	mov    %edx,0x4(%eax)
 804b364:	8b 83 c4 04 00 00    	mov    0x4c4(%ebx),%eax
 804b36a:	89 83 8c 04 00 00    	mov    %eax,0x48c(%ebx)
 804b370:	8b 83 c4 04 00 00    	mov    0x4c4(%ebx),%eax
 804b376:	89 45 f0             	mov    %eax,-0x10(%ebp)
 804b379:	c7 83 c4 04 00 00 00 	movl   $0x0,0x4c4(%ebx)
 804b380:	00 00 00 
 804b383:	e9 a2 01 00 00       	jmp    804b52a <free_pages+0x31f>
 804b388:	8b 45 e8             	mov    -0x18(%ebp),%eax
 804b38b:	8b 55 08             	mov    0x8(%ebp),%edx
 804b38e:	01 d0                	add    %edx,%eax
 804b390:	89 45 e4             	mov    %eax,-0x1c(%ebp)
 804b393:	8b 83 8c 04 00 00    	mov    0x48c(%ebx),%eax
 804b399:	89 45 f0             	mov    %eax,-0x10(%ebp)
 804b39c:	eb 08                	jmp    804b3a6 <free_pages+0x19b>
 804b39e:	8b 45 f0             	mov    -0x10(%ebp),%eax
 804b3a1:	8b 00                	mov    (%eax),%eax
 804b3a3:	89 45 f0             	mov    %eax,-0x10(%ebp)
 804b3a6:	8b 45 f0             	mov    -0x10(%ebp),%eax
 804b3a9:	8b 40 0c             	mov    0xc(%eax),%eax
 804b3ac:	3b 45 08             	cmp    0x8(%ebp),%eax
 804b3af:	73 09                	jae    804b3ba <free_pages+0x1af>
 804b3b1:	8b 45 f0             	mov    -0x10(%ebp),%eax
 804b3b4:	8b 00                	mov    (%eax),%eax
 804b3b6:	85 c0                	test   %eax,%eax
 804b3b8:	75 e4                	jne    804b39e <free_pages+0x193>
 804b3ba:	8b 45 f0             	mov    -0x10(%ebp),%eax
 804b3bd:	8b 40 08             	mov    0x8(%eax),%eax
 804b3c0:	3b 45 e4             	cmp    -0x1c(%ebp),%eax
 804b3c3:	76 4f                	jbe    804b414 <free_pages+0x209>
 804b3c5:	8b 83 c4 04 00 00    	mov    0x4c4(%ebx),%eax
 804b3cb:	8b 55 f0             	mov    -0x10(%ebp),%edx
 804b3ce:	89 10                	mov    %edx,(%eax)
 804b3d0:	8b 83 c4 04 00 00    	mov    0x4c4(%ebx),%eax
 804b3d6:	8b 55 f0             	mov    -0x10(%ebp),%edx
 804b3d9:	8b 52 04             	mov    0x4(%edx),%edx
 804b3dc:	89 50 04             	mov    %edx,0x4(%eax)
 804b3df:	8b 93 c4 04 00 00    	mov    0x4c4(%ebx),%edx
 804b3e5:	8b 45 f0             	mov    -0x10(%ebp),%eax
 804b3e8:	89 50 04             	mov    %edx,0x4(%eax)
 804b3eb:	8b 83 c4 04 00 00    	mov    0x4c4(%ebx),%eax
 804b3f1:	8b 40 04             	mov    0x4(%eax),%eax
 804b3f4:	8b 93 c4 04 00 00    	mov    0x4c4(%ebx),%edx
 804b3fa:	89 10                	mov    %edx,(%eax)
 804b3fc:	8b 83 c4 04 00 00    	mov    0x4c4(%ebx),%eax
 804b402:	89 45 f0             	mov    %eax,-0x10(%ebp)
 804b405:	c7 83 c4 04 00 00 00 	movl   $0x0,0x4c4(%ebx)
 804b40c:	00 00 00 
 804b40f:	e9 16 01 00 00       	jmp    804b52a <free_pages+0x31f>
 804b414:	8b 45 f0             	mov    -0x10(%ebp),%eax
 804b417:	8b 40 0c             	mov    0xc(%eax),%eax
 804b41a:	3b 45 08             	cmp    0x8(%ebp),%eax
 804b41d:	0f 85 91 00 00 00    	jne    804b4b4 <free_pages+0x2a9>
 804b423:	8b 45 f0             	mov    -0x10(%ebp),%eax
 804b426:	8b 40 0c             	mov    0xc(%eax),%eax
 804b429:	89 c2                	mov    %eax,%edx
 804b42b:	03 55 e8             	add    -0x18(%ebp),%edx
 804b42e:	8b 45 f0             	mov    -0x10(%ebp),%eax
 804b431:	89 50 0c             	mov    %edx,0xc(%eax)
 804b434:	8b 45 f0             	mov    -0x10(%ebp),%eax
 804b437:	8b 40 10             	mov    0x10(%eax),%eax
 804b43a:	89 c2                	mov    %eax,%edx
 804b43c:	03 55 e8             	add    -0x18(%ebp),%edx
 804b43f:	8b 45 f0             	mov    -0x10(%ebp),%eax
 804b442:	89 50 10             	mov    %edx,0x10(%eax)
 804b445:	8b 45 f0             	mov    -0x10(%ebp),%eax
 804b448:	8b 00                	mov    (%eax),%eax
 804b44a:	85 c0                	test   %eax,%eax
 804b44c:	0f 84 d8 00 00 00    	je     804b52a <free_pages+0x31f>
 804b452:	8b 45 f0             	mov    -0x10(%ebp),%eax
 804b455:	8b 50 0c             	mov    0xc(%eax),%edx
 804b458:	8b 45 f0             	mov    -0x10(%ebp),%eax
 804b45b:	8b 00                	mov    (%eax),%eax
 804b45d:	8b 40 08             	mov    0x8(%eax),%eax
 804b460:	39 c2                	cmp    %eax,%edx
 804b462:	0f 85 c2 00 00 00    	jne    804b52a <free_pages+0x31f>
 804b468:	8b 45 f0             	mov    -0x10(%ebp),%eax
 804b46b:	8b 00                	mov    (%eax),%eax
 804b46d:	89 45 ec             	mov    %eax,-0x14(%ebp)
 804b470:	8b 45 ec             	mov    -0x14(%ebp),%eax
 804b473:	8b 50 0c             	mov    0xc(%eax),%edx
 804b476:	8b 45 f0             	mov    -0x10(%ebp),%eax
 804b479:	89 50 0c             	mov    %edx,0xc(%eax)
 804b47c:	8b 45 f0             	mov    -0x10(%ebp),%eax
 804b47f:	8b 50 10             	mov    0x10(%eax),%edx
 804b482:	8b 45 ec             	mov    -0x14(%ebp),%eax
 804b485:	8b 40 10             	mov    0x10(%eax),%eax
 804b488:	01 c2                	add    %eax,%edx
 804b48a:	8b 45 f0             	mov    -0x10(%ebp),%eax
 804b48d:	89 50 10             	mov    %edx,0x10(%eax)
 804b490:	8b 45 ec             	mov    -0x14(%ebp),%eax
 804b493:	8b 10                	mov    (%eax),%edx
 804b495:	8b 45 f0             	mov    -0x10(%ebp),%eax
 804b498:	89 10                	mov    %edx,(%eax)
 804b49a:	8b 45 f0             	mov    -0x10(%ebp),%eax
 804b49d:	8b 00                	mov    (%eax),%eax
 804b49f:	85 c0                	test   %eax,%eax
 804b4a1:	0f 84 83 00 00 00    	je     804b52a <free_pages+0x31f>
 804b4a7:	8b 45 f0             	mov    -0x10(%ebp),%eax
 804b4aa:	8b 00                	mov    (%eax),%eax
 804b4ac:	8b 55 f0             	mov    -0x10(%ebp),%edx
 804b4af:	89 50 04             	mov    %edx,0x4(%eax)
 804b4b2:	eb 76                	jmp    804b52a <free_pages+0x31f>
 804b4b4:	8b 45 f0             	mov    -0x10(%ebp),%eax
 804b4b7:	8b 40 08             	mov    0x8(%eax),%eax
 804b4ba:	3b 45 e4             	cmp    -0x1c(%ebp),%eax
 804b4bd:	75 1c                	jne    804b4db <free_pages+0x2d0>
 804b4bf:	8b 45 f0             	mov    -0x10(%ebp),%eax
 804b4c2:	8b 40 10             	mov    0x10(%eax),%eax
 804b4c5:	89 c2                	mov    %eax,%edx
 804b4c7:	03 55 e8             	add    -0x18(%ebp),%edx
 804b4ca:	8b 45 f0             	mov    -0x10(%ebp),%eax
 804b4cd:	89 50 10             	mov    %edx,0x10(%eax)
 804b4d0:	8b 45 f0             	mov    -0x10(%ebp),%eax
 804b4d3:	8b 55 08             	mov    0x8(%ebp),%edx
 804b4d6:	89 50 08             	mov    %edx,0x8(%eax)
 804b4d9:	eb 4f                	jmp    804b52a <free_pages+0x31f>
 804b4db:	8b 45 f0             	mov    -0x10(%ebp),%eax
 804b4de:	8b 00                	mov    (%eax),%eax
 804b4e0:	85 c0                	test   %eax,%eax
 804b4e2:	75 38                	jne    804b51c <free_pages+0x311>
 804b4e4:	8b 83 c4 04 00 00    	mov    0x4c4(%ebx),%eax
 804b4ea:	c7 00 00 00 00 00    	movl   $0x0,(%eax)
 804b4f0:	8b 83 c4 04 00 00    	mov    0x4c4(%ebx),%eax
 804b4f6:	8b 55 f0             	mov    -0x10(%ebp),%edx
 804b4f9:	89 50 04             	mov    %edx,0x4(%eax)
 804b4fc:	8b 93 c4 04 00 00    	mov    0x4c4(%ebx),%edx
 804b502:	8b 45 f0             	mov    -0x10(%ebp),%eax
 804b505:	89 10                	mov    %edx,(%eax)
 804b507:	8b 83 c4 04 00 00    	mov    0x4c4(%ebx),%eax
 804b50d:	89 45 f0             	mov    %eax,-0x10(%ebp)
 804b510:	c7 83 c4 04 00 00 00 	movl   $0x0,0x4c4(%ebx)
 804b517:	00 00 00 
 804b51a:	eb 0e                	jmp    804b52a <free_pages+0x31f>
 804b51c:	8d 83 35 d7 ff ff    	lea    -0x28cb(%ebx),%eax
 804b522:	89 04 24             	mov    %eax,(%esp)
 804b525:	e8 1a eb ff ff       	call   804a044 <wrterror>
 804b52a:	8b 45 f0             	mov    -0x10(%ebp),%eax
 804b52d:	8b 00                	mov    (%eax),%eax
 804b52f:	85 c0                	test   %eax,%eax
 804b531:	0f 85 cd 00 00 00    	jne    804b604 <free_pages+0x3f9>
 804b537:	8b 45 f0             	mov    -0x10(%ebp),%eax
 804b53a:	8b 50 10             	mov    0x10(%eax),%edx
 804b53d:	8b 83 2c 01 00 00    	mov    0x12c(%ebx),%eax
 804b543:	39 c2                	cmp    %eax,%edx
 804b545:	0f 86 b9 00 00 00    	jbe    804b604 <free_pages+0x3f9>
 804b54b:	8b 45 f0             	mov    -0x10(%ebp),%eax
 804b54e:	8b 50 0c             	mov    0xc(%eax),%edx
 804b551:	8b 83 c0 04 00 00    	mov    0x4c0(%ebx),%eax
 804b557:	39 c2                	cmp    %eax,%edx
 804b559:	0f 85 a5 00 00 00    	jne    804b604 <free_pages+0x3f9>
 804b55f:	c7 04 24 00 00 00 00 	movl   $0x0,(%esp)
 804b566:	e8 5d cf ff ff       	call   80484c8 <sbrk>
 804b56b:	8b 93 c0 04 00 00    	mov    0x4c0(%ebx),%edx
 804b571:	39 d0                	cmp    %edx,%eax
 804b573:	0f 85 8b 00 00 00    	jne    804b604 <free_pages+0x3f9>
 804b579:	8b 45 f0             	mov    -0x10(%ebp),%eax
 804b57c:	8b 50 08             	mov    0x8(%eax),%edx
 804b57f:	8b 83 2c 01 00 00    	mov    0x12c(%ebx),%eax
 804b585:	01 c2                	add    %eax,%edx
 804b587:	8b 45 f0             	mov    -0x10(%ebp),%eax
 804b58a:	89 50 0c             	mov    %edx,0xc(%eax)
 804b58d:	8b 93 2c 01 00 00    	mov    0x12c(%ebx),%edx
 804b593:	8b 45 f0             	mov    -0x10(%ebp),%eax
 804b596:	89 50 10             	mov    %edx,0x10(%eax)
 804b599:	8b 45 f0             	mov    -0x10(%ebp),%eax
 804b59c:	8b 40 0c             	mov    0xc(%eax),%eax
 804b59f:	89 04 24             	mov    %eax,(%esp)
 804b5a2:	e8 f1 cf ff ff       	call   8048598 <brk>
 804b5a7:	8b 45 f0             	mov    -0x10(%ebp),%eax
 804b5aa:	8b 40 0c             	mov    0xc(%eax),%eax
 804b5ad:	89 83 c0 04 00 00    	mov    %eax,0x4c0(%ebx)
 804b5b3:	8b 45 f0             	mov    -0x10(%ebp),%eax
 804b5b6:	8b 40 0c             	mov    0xc(%eax),%eax
 804b5b9:	89 c2                	mov    %eax,%edx
 804b5bb:	c1 ea 0c             	shr    $0xc,%edx
 804b5be:	8b 83 7c 04 00 00    	mov    0x47c(%ebx),%eax
 804b5c4:	89 d1                	mov    %edx,%ecx
 804b5c6:	29 c1                	sub    %eax,%ecx
 804b5c8:	89 c8                	mov    %ecx,%eax
 804b5ca:	89 45 0c             	mov    %eax,0xc(%ebp)
 804b5cd:	8b 45 0c             	mov    0xc(%ebp),%eax
 804b5d0:	83 e8 01             	sub    $0x1,%eax
 804b5d3:	89 83 80 04 00 00    	mov    %eax,0x480(%ebx)
 804b5d9:	8b 45 0c             	mov    0xc(%ebp),%eax
 804b5dc:	89 45 f4             	mov    %eax,-0xc(%ebp)
 804b5df:	eb 18                	jmp    804b5f9 <free_pages+0x3ee>
 804b5e1:	8b 83 84 04 00 00    	mov    0x484(%ebx),%eax
 804b5e7:	8b 55 f4             	mov    -0xc(%ebp),%edx
 804b5ea:	c1 e2 02             	shl    $0x2,%edx
 804b5ed:	01 d0                	add    %edx,%eax
 804b5ef:	c7 00 00 00 00 00    	movl   $0x0,(%eax)
 804b5f5:	83 45 f4 01          	addl   $0x1,-0xc(%ebp)
 804b5f9:	8b 83 80 04 00 00    	mov    0x480(%ebx),%eax
 804b5ff:	39 45 f4             	cmp    %eax,-0xc(%ebp)
 804b602:	76 dd                	jbe    804b5e1 <free_pages+0x3d6>
 804b604:	83 7d ec 00          	cmpl   $0x0,-0x14(%ebp)
 804b608:	74 0b                	je     804b615 <free_pages+0x40a>
 804b60a:	8b 45 ec             	mov    -0x14(%ebp),%eax
 804b60d:	89 04 24             	mov    %eax,(%esp)
 804b610:	e8 21 02 00 00       	call   804b836 <ifree>
 804b615:	83 c4 34             	add    $0x34,%esp
 804b618:	5b                   	pop    %ebx
 804b619:	5d                   	pop    %ebp
 804b61a:	c3                   	ret    

0804b61b <free_bytes>:
 804b61b:	55                   	push   %ebp
 804b61c:	89 e5                	mov    %esp,%ebp
 804b61e:	57                   	push   %edi
 804b61f:	56                   	push   %esi
 804b620:	53                   	push   %ebx
 804b621:	83 ec 3c             	sub    $0x3c,%esp
 804b624:	e8 54 ce ff ff       	call   804847d <__i686.get_pc_thunk.bx>
 804b629:	81 c3 ab 4b 00 00    	add    $0x4bab,%ebx
 804b62f:	8b 45 08             	mov    0x8(%ebp),%eax
 804b632:	89 c2                	mov    %eax,%edx
 804b634:	81 e2 ff 0f 00 00    	and    $0xfff,%edx
 804b63a:	8b 45 10             	mov    0x10(%ebp),%eax
 804b63d:	0f b7 40 0a          	movzwl 0xa(%eax),%eax
 804b641:	0f b7 c0             	movzwl %ax,%eax
 804b644:	89 d6                	mov    %edx,%esi
 804b646:	89 c1                	mov    %eax,%ecx
 804b648:	d3 ee                	shr    %cl,%esi
 804b64a:	89 f0                	mov    %esi,%eax
 804b64c:	89 45 e0             	mov    %eax,-0x20(%ebp)
 804b64f:	8b 45 10             	mov    0x10(%ebp),%eax
 804b652:	0f b7 40 08          	movzwl 0x8(%eax),%eax
 804b656:	0f b7 c0             	movzwl %ax,%eax
 804b659:	83 e8 01             	sub    $0x1,%eax
 804b65c:	89 c2                	mov    %eax,%edx
 804b65e:	8b 45 08             	mov    0x8(%ebp),%eax
 804b661:	21 d0                	and    %edx,%eax
 804b663:	85 c0                	test   %eax,%eax
 804b665:	74 13                	je     804b67a <free_bytes+0x5f>
 804b667:	8d 83 d2 d6 ff ff    	lea    -0x292e(%ebx),%eax
 804b66d:	89 04 24             	mov    %eax,(%esp)
 804b670:	e8 9a ea ff ff       	call   804a10f <wrtwarning>
 804b675:	e9 b4 01 00 00       	jmp    804b82e <free_bytes+0x213>
 804b67a:	8b 45 e0             	mov    -0x20(%ebp),%eax
 804b67d:	89 c2                	mov    %eax,%edx
 804b67f:	c1 ea 05             	shr    $0x5,%edx
 804b682:	8b 45 10             	mov    0x10(%ebp),%eax
 804b685:	83 c2 04             	add    $0x4,%edx
 804b688:	8b 14 90             	mov    (%eax,%edx,4),%edx
 804b68b:	8b 45 e0             	mov    -0x20(%ebp),%eax
 804b68e:	83 e0 1f             	and    $0x1f,%eax
 804b691:	be 01 00 00 00       	mov    $0x1,%esi
 804b696:	89 f7                	mov    %esi,%edi
 804b698:	89 c1                	mov    %eax,%ecx
 804b69a:	d3 e7                	shl    %cl,%edi
 804b69c:	89 f8                	mov    %edi,%eax
 804b69e:	21 d0                	and    %edx,%eax
 804b6a0:	85 c0                	test   %eax,%eax
 804b6a2:	74 13                	je     804b6b7 <free_bytes+0x9c>
 804b6a4:	8d 83 ee d6 ff ff    	lea    -0x2912(%ebx),%eax
 804b6aa:	89 04 24             	mov    %eax,(%esp)
 804b6ad:	e8 5d ea ff ff       	call   804a10f <wrtwarning>
 804b6b2:	e9 77 01 00 00       	jmp    804b82e <free_bytes+0x213>
 804b6b7:	8b 83 bc 04 00 00    	mov    0x4bc(%ebx),%eax
 804b6bd:	85 c0                	test   %eax,%eax
 804b6bf:	74 21                	je     804b6e2 <free_bytes+0xc7>
 804b6c1:	8b 45 10             	mov    0x10(%ebp),%eax
 804b6c4:	0f b7 40 08          	movzwl 0x8(%eax),%eax
 804b6c8:	0f b7 c0             	movzwl %ax,%eax
 804b6cb:	89 44 24 08          	mov    %eax,0x8(%esp)
 804b6cf:	c7 44 24 04 d0 00 00 	movl   $0xd0,0x4(%esp)
 804b6d6:	00 
 804b6d7:	8b 45 08             	mov    0x8(%ebp),%eax
 804b6da:	89 04 24             	mov    %eax,(%esp)
 804b6dd:	e8 fa 14 00 00       	call   804cbdc <memset>
 804b6e2:	8b 45 e0             	mov    -0x20(%ebp),%eax
 804b6e5:	c1 e8 05             	shr    $0x5,%eax
 804b6e8:	8b 55 10             	mov    0x10(%ebp),%edx
 804b6eb:	8d 48 04             	lea    0x4(%eax),%ecx
 804b6ee:	8b 34 8a             	mov    (%edx,%ecx,4),%esi
 804b6f1:	8b 55 e0             	mov    -0x20(%ebp),%edx
 804b6f4:	83 e2 1f             	and    $0x1f,%edx
 804b6f7:	c7 45 d4 01 00 00 00 	movl   $0x1,-0x2c(%ebp)
 804b6fe:	8b 7d d4             	mov    -0x2c(%ebp),%edi
 804b701:	89 d1                	mov    %edx,%ecx
 804b703:	d3 e7                	shl    %cl,%edi
 804b705:	89 fa                	mov    %edi,%edx
 804b707:	89 f1                	mov    %esi,%ecx
 804b709:	09 d1                	or     %edx,%ecx
 804b70b:	8b 55 10             	mov    0x10(%ebp),%edx
 804b70e:	83 c0 04             	add    $0x4,%eax
 804b711:	89 0c 82             	mov    %ecx,(%edx,%eax,4)
 804b714:	8b 45 10             	mov    0x10(%ebp),%eax
 804b717:	0f b7 40 0c          	movzwl 0xc(%eax),%eax
 804b71b:	8d 50 01             	lea    0x1(%eax),%edx
 804b71e:	8b 45 10             	mov    0x10(%ebp),%eax
 804b721:	66 89 50 0c          	mov    %dx,0xc(%eax)
 804b725:	8b 93 84 04 00 00    	mov    0x484(%ebx),%edx
 804b72b:	8b 45 10             	mov    0x10(%ebp),%eax
 804b72e:	0f b7 40 0a          	movzwl 0xa(%eax),%eax
 804b732:	0f b7 c0             	movzwl %ax,%eax
 804b735:	c1 e0 02             	shl    $0x2,%eax
 804b738:	01 d0                	add    %edx,%eax
 804b73a:	89 45 e4             	mov    %eax,-0x1c(%ebp)
 804b73d:	8b 45 10             	mov    0x10(%ebp),%eax
 804b740:	0f b7 40 0c          	movzwl 0xc(%eax),%eax
 804b744:	66 83 f8 01          	cmp    $0x1,%ax
 804b748:	75 61                	jne    804b7ab <free_bytes+0x190>
 804b74a:	8b 93 84 04 00 00    	mov    0x484(%ebx),%edx
 804b750:	8b 45 10             	mov    0x10(%ebp),%eax
 804b753:	0f b7 40 0a          	movzwl 0xa(%eax),%eax
 804b757:	0f b7 c0             	movzwl %ax,%eax
 804b75a:	c1 e0 02             	shl    $0x2,%eax
 804b75d:	01 d0                	add    %edx,%eax
 804b75f:	89 45 e4             	mov    %eax,-0x1c(%ebp)
 804b762:	eb 08                	jmp    804b76c <free_bytes+0x151>
 804b764:	8b 45 e4             	mov    -0x1c(%ebp),%eax
 804b767:	8b 00                	mov    (%eax),%eax
 804b769:	89 45 e4             	mov    %eax,-0x1c(%ebp)
 804b76c:	8b 45 e4             	mov    -0x1c(%ebp),%eax
 804b76f:	8b 00                	mov    (%eax),%eax
 804b771:	85 c0                	test   %eax,%eax
 804b773:	74 1f                	je     804b794 <free_bytes+0x179>
 804b775:	8b 45 e4             	mov    -0x1c(%ebp),%eax
 804b778:	8b 00                	mov    (%eax),%eax
 804b77a:	8b 00                	mov    (%eax),%eax
 804b77c:	85 c0                	test   %eax,%eax
 804b77e:	74 14                	je     804b794 <free_bytes+0x179>
 804b780:	8b 45 e4             	mov    -0x1c(%ebp),%eax
 804b783:	8b 00                	mov    (%eax),%eax
 804b785:	8b 00                	mov    (%eax),%eax
 804b787:	8b 50 04             	mov    0x4(%eax),%edx
 804b78a:	8b 45 10             	mov    0x10(%ebp),%eax
 804b78d:	8b 40 04             	mov    0x4(%eax),%eax
 804b790:	39 c2                	cmp    %eax,%edx
 804b792:	72 d0                	jb     804b764 <free_bytes+0x149>
 804b794:	8b 45 e4             	mov    -0x1c(%ebp),%eax
 804b797:	8b 10                	mov    (%eax),%edx
 804b799:	8b 45 10             	mov    0x10(%ebp),%eax
 804b79c:	89 10                	mov    %edx,(%eax)
 804b79e:	8b 45 e4             	mov    -0x1c(%ebp),%eax
 804b7a1:	8b 55 10             	mov    0x10(%ebp),%edx
 804b7a4:	89 10                	mov    %edx,(%eax)
 804b7a6:	e9 83 00 00 00       	jmp    804b82e <free_bytes+0x213>
 804b7ab:	8b 45 10             	mov    0x10(%ebp),%eax
 804b7ae:	0f b7 50 0c          	movzwl 0xc(%eax),%edx
 804b7b2:	8b 45 10             	mov    0x10(%ebp),%eax
 804b7b5:	0f b7 40 0e          	movzwl 0xe(%eax),%eax
 804b7b9:	66 39 c2             	cmp    %ax,%dx
 804b7bc:	74 0c                	je     804b7ca <free_bytes+0x1af>
 804b7be:	eb 6e                	jmp    804b82e <free_bytes+0x213>
 804b7c0:	8b 45 e4             	mov    -0x1c(%ebp),%eax
 804b7c3:	8b 00                	mov    (%eax),%eax
 804b7c5:	89 45 e4             	mov    %eax,-0x1c(%ebp)
 804b7c8:	eb 01                	jmp    804b7cb <free_bytes+0x1b0>
 804b7ca:	90                   	nop
 804b7cb:	8b 45 e4             	mov    -0x1c(%ebp),%eax
 804b7ce:	8b 00                	mov    (%eax),%eax
 804b7d0:	3b 45 10             	cmp    0x10(%ebp),%eax
 804b7d3:	75 eb                	jne    804b7c0 <free_bytes+0x1a5>
 804b7d5:	8b 45 10             	mov    0x10(%ebp),%eax
 804b7d8:	8b 10                	mov    (%eax),%edx
 804b7da:	8b 45 e4             	mov    -0x1c(%ebp),%eax
 804b7dd:	89 10                	mov    %edx,(%eax)
 804b7df:	8b 93 84 04 00 00    	mov    0x484(%ebx),%edx
 804b7e5:	8b 45 10             	mov    0x10(%ebp),%eax
 804b7e8:	8b 40 04             	mov    0x4(%eax),%eax
 804b7eb:	89 c1                	mov    %eax,%ecx
 804b7ed:	c1 e9 0c             	shr    $0xc,%ecx
 804b7f0:	8b 83 7c 04 00 00    	mov    0x47c(%ebx),%eax
 804b7f6:	89 ce                	mov    %ecx,%esi
 804b7f8:	29 c6                	sub    %eax,%esi
 804b7fa:	89 f0                	mov    %esi,%eax
 804b7fc:	c1 e0 02             	shl    $0x2,%eax
 804b7ff:	01 d0                	add    %edx,%eax
 804b801:	c7 00 02 00 00 00    	movl   $0x2,(%eax)
 804b807:	8b 45 10             	mov    0x10(%ebp),%eax
 804b80a:	8b 40 04             	mov    0x4(%eax),%eax
 804b80d:	89 45 dc             	mov    %eax,-0x24(%ebp)
 804b810:	8b 45 dc             	mov    -0x24(%ebp),%eax
 804b813:	3b 45 10             	cmp    0x10(%ebp),%eax
 804b816:	74 0b                	je     804b823 <free_bytes+0x208>
 804b818:	8b 45 10             	mov    0x10(%ebp),%eax
 804b81b:	89 04 24             	mov    %eax,(%esp)
 804b81e:	e8 13 00 00 00       	call   804b836 <ifree>
 804b823:	8b 45 dc             	mov    -0x24(%ebp),%eax
 804b826:	89 04 24             	mov    %eax,(%esp)
 804b829:	e8 08 00 00 00       	call   804b836 <ifree>
 804b82e:	83 c4 3c             	add    $0x3c,%esp
 804b831:	5b                   	pop    %ebx
 804b832:	5e                   	pop    %esi
 804b833:	5f                   	pop    %edi
 804b834:	5d                   	pop    %ebp
 804b835:	c3                   	ret    

0804b836 <ifree>:
 804b836:	55                   	push   %ebp
 804b837:	89 e5                	mov    %esp,%ebp
 804b839:	57                   	push   %edi
 804b83a:	56                   	push   %esi
 804b83b:	53                   	push   %ebx
 804b83c:	83 ec 6c             	sub    $0x6c,%esp
 804b83f:	e8 39 cc ff ff       	call   804847d <__i686.get_pc_thunk.bx>
 804b844:	81 c3 90 49 00 00    	add    $0x4990,%ebx
 804b84a:	83 7d 08 00          	cmpl   $0x0,0x8(%ebp)
 804b84e:	0f 84 b9 06 00 00    	je     804bf0d <ifree+0x6d7>
 804b854:	8b 83 74 04 00 00    	mov    0x474(%ebx),%eax
 804b85a:	85 c0                	test   %eax,%eax
 804b85c:	75 13                	jne    804b871 <ifree+0x3b>
 804b85e:	8d 83 50 d7 ff ff    	lea    -0x28b0(%ebx),%eax
 804b864:	89 04 24             	mov    %eax,(%esp)
 804b867:	e8 a3 e8 ff ff       	call   804a10f <wrtwarning>
 804b86c:	e9 a3 06 00 00       	jmp    804bf14 <ifree+0x6de>
 804b871:	8b 83 a4 04 00 00    	mov    0x4a4(%ebx),%eax
 804b877:	85 c0                	test   %eax,%eax
 804b879:	0f 85 91 06 00 00    	jne    804bf10 <ifree+0x6da>
 804b87f:	8b 45 08             	mov    0x8(%ebp),%eax
 804b882:	89 c2                	mov    %eax,%edx
 804b884:	c1 ea 0c             	shr    $0xc,%edx
 804b887:	8b 83 7c 04 00 00    	mov    0x47c(%ebx),%eax
 804b88d:	89 d1                	mov    %edx,%ecx
 804b88f:	29 c1                	sub    %eax,%ecx
 804b891:	89 c8                	mov    %ecx,%eax
 804b893:	89 45 e4             	mov    %eax,-0x1c(%ebp)
 804b896:	83 7d e4 0b          	cmpl   $0xb,-0x1c(%ebp)
 804b89a:	77 13                	ja     804b8af <ifree+0x79>
 804b89c:	8d 83 68 d6 ff ff    	lea    -0x2998(%ebx),%eax
 804b8a2:	89 04 24             	mov    %eax,(%esp)
 804b8a5:	e8 65 e8 ff ff       	call   804a10f <wrtwarning>
 804b8aa:	e9 65 06 00 00       	jmp    804bf14 <ifree+0x6de>
 804b8af:	8b 83 80 04 00 00    	mov    0x480(%ebx),%eax
 804b8b5:	39 45 e4             	cmp    %eax,-0x1c(%ebp)
 804b8b8:	76 13                	jbe    804b8cd <ifree+0x97>
 804b8ba:	8d 83 90 d6 ff ff    	lea    -0x2970(%ebx),%eax
 804b8c0:	89 04 24             	mov    %eax,(%esp)
 804b8c3:	e8 47 e8 ff ff       	call   804a10f <wrtwarning>
 804b8c8:	e9 47 06 00 00       	jmp    804bf14 <ifree+0x6de>
 804b8cd:	8b 83 84 04 00 00    	mov    0x484(%ebx),%eax
 804b8d3:	8b 55 e4             	mov    -0x1c(%ebp),%edx
 804b8d6:	c1 e2 02             	shl    $0x2,%edx
 804b8d9:	01 d0                	add    %edx,%eax
 804b8db:	8b 00                	mov    (%eax),%eax
 804b8dd:	89 45 e0             	mov    %eax,-0x20(%ebp)
 804b8e0:	83 7d e0 03          	cmpl   $0x3,-0x20(%ebp)
 804b8e4:	0f 87 13 04 00 00    	ja     804bcfd <ifree+0x4c7>
 804b8ea:	8b 45 e4             	mov    -0x1c(%ebp),%eax
 804b8ed:	8b 55 08             	mov    0x8(%ebp),%edx
 804b8f0:	89 55 dc             	mov    %edx,-0x24(%ebp)
 804b8f3:	89 45 d8             	mov    %eax,-0x28(%ebp)
 804b8f6:	8b 45 e0             	mov    -0x20(%ebp),%eax
 804b8f9:	89 45 d4             	mov    %eax,-0x2c(%ebp)
 804b8fc:	c7 45 d0 00 00 00 00 	movl   $0x0,-0x30(%ebp)
 804b903:	83 7d d4 01          	cmpl   $0x1,-0x2c(%ebp)
 804b907:	75 13                	jne    804b91c <ifree+0xe6>
 804b909:	8d 83 1e d7 ff ff    	lea    -0x28e2(%ebx),%eax
 804b90f:	89 04 24             	mov    %eax,(%esp)
 804b912:	e8 f8 e7 ff ff       	call   804a10f <wrtwarning>
 804b917:	e9 f7 05 00 00       	jmp    804bf13 <ifree+0x6dd>
 804b91c:	83 7d d4 02          	cmpl   $0x2,-0x2c(%ebp)
 804b920:	74 13                	je     804b935 <ifree+0xff>
 804b922:	8d 83 06 d7 ff ff    	lea    -0x28fa(%ebx),%eax
 804b928:	89 04 24             	mov    %eax,(%esp)
 804b92b:	e8 df e7 ff ff       	call   804a10f <wrtwarning>
 804b930:	e9 de 05 00 00       	jmp    804bf13 <ifree+0x6dd>
 804b935:	8b 45 dc             	mov    -0x24(%ebp),%eax
 804b938:	25 ff 0f 00 00       	and    $0xfff,%eax
 804b93d:	85 c0                	test   %eax,%eax
 804b93f:	74 13                	je     804b954 <ifree+0x11e>
 804b941:	8d 83 b7 d6 ff ff    	lea    -0x2949(%ebx),%eax
 804b947:	89 04 24             	mov    %eax,(%esp)
 804b94a:	e8 c0 e7 ff ff       	call   804a10f <wrtwarning>
 804b94f:	e9 bf 05 00 00       	jmp    804bf13 <ifree+0x6dd>
 804b954:	8b 83 84 04 00 00    	mov    0x484(%ebx),%eax
 804b95a:	8b 55 d8             	mov    -0x28(%ebp),%edx
 804b95d:	c1 e2 02             	shl    $0x2,%edx
 804b960:	01 d0                	add    %edx,%eax
 804b962:	c7 00 01 00 00 00    	movl   $0x1,(%eax)
 804b968:	c7 45 cc 01 00 00 00 	movl   $0x1,-0x34(%ebp)
 804b96f:	eb 1b                	jmp    804b98c <ifree+0x156>
 804b971:	8b 93 84 04 00 00    	mov    0x484(%ebx),%edx
 804b977:	8b 45 d8             	mov    -0x28(%ebp),%eax
 804b97a:	03 45 cc             	add    -0x34(%ebp),%eax
 804b97d:	c1 e0 02             	shl    $0x2,%eax
 804b980:	01 d0                	add    %edx,%eax
 804b982:	c7 00 01 00 00 00    	movl   $0x1,(%eax)
 804b988:	83 45 cc 01          	addl   $0x1,-0x34(%ebp)
 804b98c:	8b 93 84 04 00 00    	mov    0x484(%ebx),%edx
 804b992:	8b 45 d8             	mov    -0x28(%ebp),%eax
 804b995:	03 45 cc             	add    -0x34(%ebp),%eax
 804b998:	c1 e0 02             	shl    $0x2,%eax
 804b99b:	01 d0                	add    %edx,%eax
 804b99d:	8b 00                	mov    (%eax),%eax
 804b99f:	83 f8 03             	cmp    $0x3,%eax
 804b9a2:	74 cd                	je     804b971 <ifree+0x13b>
 804b9a4:	8b 45 cc             	mov    -0x34(%ebp),%eax
 804b9a7:	c1 e0 0c             	shl    $0xc,%eax
 804b9aa:	89 45 c8             	mov    %eax,-0x38(%ebp)
 804b9ad:	8b 83 bc 04 00 00    	mov    0x4bc(%ebx),%eax
 804b9b3:	85 c0                	test   %eax,%eax
 804b9b5:	74 1a                	je     804b9d1 <ifree+0x19b>
 804b9b7:	8b 45 c8             	mov    -0x38(%ebp),%eax
 804b9ba:	89 44 24 08          	mov    %eax,0x8(%esp)
 804b9be:	c7 44 24 04 d0 00 00 	movl   $0xd0,0x4(%esp)
 804b9c5:	00 
 804b9c6:	8b 45 dc             	mov    -0x24(%ebp),%eax
 804b9c9:	89 04 24             	mov    %eax,(%esp)
 804b9cc:	e8 0b 12 00 00       	call   804cbdc <memset>
 804b9d1:	8b 45 c8             	mov    -0x38(%ebp),%eax
 804b9d4:	8b 55 dc             	mov    -0x24(%ebp),%edx
 804b9d7:	01 d0                	add    %edx,%eax
 804b9d9:	89 45 c4             	mov    %eax,-0x3c(%ebp)
 804b9dc:	8b 83 c4 04 00 00    	mov    0x4c4(%ebx),%eax
 804b9e2:	85 c0                	test   %eax,%eax
 804b9e4:	75 12                	jne    804b9f8 <ifree+0x1c2>
 804b9e6:	c7 04 24 14 00 00 00 	movl   $0x14,(%esp)
 804b9ed:	e8 f0 f4 ff ff       	call   804aee2 <imalloc>
 804b9f2:	89 83 c4 04 00 00    	mov    %eax,0x4c4(%ebx)
 804b9f8:	8b 83 c4 04 00 00    	mov    0x4c4(%ebx),%eax
 804b9fe:	8b 55 dc             	mov    -0x24(%ebp),%edx
 804ba01:	89 50 08             	mov    %edx,0x8(%eax)
 804ba04:	8b 83 c4 04 00 00    	mov    0x4c4(%ebx),%eax
 804ba0a:	8b 55 c4             	mov    -0x3c(%ebp),%edx
 804ba0d:	89 50 0c             	mov    %edx,0xc(%eax)
 804ba10:	8b 83 c4 04 00 00    	mov    0x4c4(%ebx),%eax
 804ba16:	8b 55 c8             	mov    -0x38(%ebp),%edx
 804ba19:	89 50 10             	mov    %edx,0x10(%eax)
 804ba1c:	8b 83 8c 04 00 00    	mov    0x48c(%ebx),%eax
 804ba22:	85 c0                	test   %eax,%eax
 804ba24:	75 41                	jne    804ba67 <ifree+0x231>
 804ba26:	8b 83 c4 04 00 00    	mov    0x4c4(%ebx),%eax
 804ba2c:	8b 93 8c 04 00 00    	mov    0x48c(%ebx),%edx
 804ba32:	89 10                	mov    %edx,(%eax)
 804ba34:	8b 83 c4 04 00 00    	mov    0x4c4(%ebx),%eax
 804ba3a:	8d 93 8c 04 00 00    	lea    0x48c(%ebx),%edx
 804ba40:	89 50 04             	mov    %edx,0x4(%eax)
 804ba43:	8b 83 c4 04 00 00    	mov    0x4c4(%ebx),%eax
 804ba49:	89 83 8c 04 00 00    	mov    %eax,0x48c(%ebx)
 804ba4f:	8b 83 c4 04 00 00    	mov    0x4c4(%ebx),%eax
 804ba55:	89 45 c0             	mov    %eax,-0x40(%ebp)
 804ba58:	c7 83 c4 04 00 00 00 	movl   $0x0,0x4c4(%ebx)
 804ba5f:	00 00 00 
 804ba62:	e9 a2 01 00 00       	jmp    804bc09 <ifree+0x3d3>
 804ba67:	8b 45 c8             	mov    -0x38(%ebp),%eax
 804ba6a:	8b 55 dc             	mov    -0x24(%ebp),%edx
 804ba6d:	01 d0                	add    %edx,%eax
 804ba6f:	89 45 c4             	mov    %eax,-0x3c(%ebp)
 804ba72:	8b 83 8c 04 00 00    	mov    0x48c(%ebx),%eax
 804ba78:	89 45 c0             	mov    %eax,-0x40(%ebp)
 804ba7b:	eb 08                	jmp    804ba85 <ifree+0x24f>
 804ba7d:	8b 45 c0             	mov    -0x40(%ebp),%eax
 804ba80:	8b 00                	mov    (%eax),%eax
 804ba82:	89 45 c0             	mov    %eax,-0x40(%ebp)
 804ba85:	8b 45 c0             	mov    -0x40(%ebp),%eax
 804ba88:	8b 40 0c             	mov    0xc(%eax),%eax
 804ba8b:	39 45 dc             	cmp    %eax,-0x24(%ebp)
 804ba8e:	76 09                	jbe    804ba99 <ifree+0x263>
 804ba90:	8b 45 c0             	mov    -0x40(%ebp),%eax
 804ba93:	8b 00                	mov    (%eax),%eax
 804ba95:	85 c0                	test   %eax,%eax
 804ba97:	75 e4                	jne    804ba7d <ifree+0x247>
 804ba99:	8b 45 c0             	mov    -0x40(%ebp),%eax
 804ba9c:	8b 40 08             	mov    0x8(%eax),%eax
 804ba9f:	39 45 c4             	cmp    %eax,-0x3c(%ebp)
 804baa2:	73 4f                	jae    804baf3 <ifree+0x2bd>
 804baa4:	8b 83 c4 04 00 00    	mov    0x4c4(%ebx),%eax
 804baaa:	8b 55 c0             	mov    -0x40(%ebp),%edx
 804baad:	89 10                	mov    %edx,(%eax)
 804baaf:	8b 83 c4 04 00 00    	mov    0x4c4(%ebx),%eax
 804bab5:	8b 55 c0             	mov    -0x40(%ebp),%edx
 804bab8:	8b 52 04             	mov    0x4(%edx),%edx
 804babb:	89 50 04             	mov    %edx,0x4(%eax)
 804babe:	8b 93 c4 04 00 00    	mov    0x4c4(%ebx),%edx
 804bac4:	8b 45 c0             	mov    -0x40(%ebp),%eax
 804bac7:	89 50 04             	mov    %edx,0x4(%eax)
